
SensorDataUnit.elf:     file format elf32-littlearm

Sections:
Idx Name          Size      VMA       LMA       File off  Algn
  0 .intvec       000000c0  10040000  10040000  00001000  2**0
                  CONTENTS, ALLOC, LOAD, READONLY, DATA
  1 .text         0000975c  100400c0  100400c0  000010c0  2**2
                  CONTENTS, ALLOC, LOAD, READONLY, CODE
  2 .init         00000004  1004981c  1004981c  0000a81c  2**2
                  CONTENTS, ALLOC, LOAD, READONLY, CODE
  3 .fini         00000004  10049820  10049820  0000a820  2**2
                  CONTENTS, ALLOC, LOAD, READONLY, CODE
  4 .ARM.exidx    00000008  10049824  10049824  0000a824  2**2
                  CONTENTS, ALLOC, LOAD, READONLY, DATA
  5 .data         00000018  200001f8  1004982c  0000b1f8  2**2
                  CONTENTS, ALLOC, LOAD, DATA
  6 .ram_preamble 0000002c  20000004  1004982c  0000b004  2**2
                  ALLOC
  7 .bss          000001c4  20000034  20000034  0000c034  2**2
                  ALLOC
  8 .noinit       00000000  20000210  10049844  00000000  2**0
                  ALLOC
  9 .heap         00000000  20000210  20000210  0000b210  2**0
                  CONTENTS
 10 CSTACK        00000c00  20007400  20007400  0000b400  2**0
                  ALLOC
 11 .rom_info     00000000  10000000  10000000  0000b210  2**0
                  CONTENTS
 12 .ARM.attributes 00000028  00000000  00000000  0000b210  2**0
                  CONTENTS, READONLY
 13 .debug_info   00015f6e  00000000  00000000  0000b238  2**0
                  CONTENTS, READONLY, DEBUGGING, OCTETS
 14 .debug_abbrev 00002e52  00000000  00000000  000211a6  2**0
                  CONTENTS, READONLY, DEBUGGING, OCTETS
 15 .debug_aranges 00001740  00000000  00000000  00023ff8  2**3
                  CONTENTS, READONLY, DEBUGGING, OCTETS
 16 .debug_rnglists 0000121d  00000000  00000000  00025738  2**0
                  CONTENTS, READONLY, DEBUGGING, OCTETS
 17 .debug_macro  0002008f  00000000  00000000  00026955  2**0
                  CONTENTS, READONLY, DEBUGGING, OCTETS
 18 .debug_line   000175ff  00000000  00000000  000469e4  2**0
                  CONTENTS, READONLY, DEBUGGING, OCTETS
 19 .debug_str    000e54df  00000000  00000000  0005dfe3  2**0
                  CONTENTS, READONLY, DEBUGGING, OCTETS
 20 .comment      00000043  00000000  00000000  001434c2  2**0
                  CONTENTS, READONLY
 21 .debug_frame  0000595c  00000000  00000000  00143508  2**2
                  CONTENTS, READONLY, DEBUGGING, OCTETS
 22 .debug_line_str 0000007b  00000000  00000000  00148e64  2**0
                  CONTENTS, READONLY, DEBUGGING, OCTETS

Disassembly of section .text:

100400c0 <__udivsi3>:
100400c0:	2200      	movs	r2, #0
100400c2:	0843      	lsrs	r3, r0, #1
100400c4:	428b      	cmp	r3, r1
100400c6:	d374      	bcc.n	100401b2 <__udivsi3+0xf2>
100400c8:	0903      	lsrs	r3, r0, #4
100400ca:	428b      	cmp	r3, r1
100400cc:	d35f      	bcc.n	1004018e <__udivsi3+0xce>
100400ce:	0a03      	lsrs	r3, r0, #8
100400d0:	428b      	cmp	r3, r1
100400d2:	d344      	bcc.n	1004015e <__udivsi3+0x9e>
100400d4:	0b03      	lsrs	r3, r0, #12
100400d6:	428b      	cmp	r3, r1
100400d8:	d328      	bcc.n	1004012c <__udivsi3+0x6c>
100400da:	0c03      	lsrs	r3, r0, #16
100400dc:	428b      	cmp	r3, r1
100400de:	d30d      	bcc.n	100400fc <__udivsi3+0x3c>
100400e0:	22ff      	movs	r2, #255	@ 0xff
100400e2:	0209      	lsls	r1, r1, #8
100400e4:	ba12      	rev	r2, r2
100400e6:	0c03      	lsrs	r3, r0, #16
100400e8:	428b      	cmp	r3, r1
100400ea:	d302      	bcc.n	100400f2 <__udivsi3+0x32>
100400ec:	1212      	asrs	r2, r2, #8
100400ee:	0209      	lsls	r1, r1, #8
100400f0:	d065      	beq.n	100401be <__udivsi3+0xfe>
100400f2:	0b03      	lsrs	r3, r0, #12
100400f4:	428b      	cmp	r3, r1
100400f6:	d319      	bcc.n	1004012c <__udivsi3+0x6c>
100400f8:	e000      	b.n	100400fc <__udivsi3+0x3c>
100400fa:	0a09      	lsrs	r1, r1, #8
100400fc:	0bc3      	lsrs	r3, r0, #15
100400fe:	428b      	cmp	r3, r1
10040100:	d301      	bcc.n	10040106 <__udivsi3+0x46>
10040102:	03cb      	lsls	r3, r1, #15
10040104:	1ac0      	subs	r0, r0, r3
10040106:	4152      	adcs	r2, r2
10040108:	0b83      	lsrs	r3, r0, #14
1004010a:	428b      	cmp	r3, r1
1004010c:	d301      	bcc.n	10040112 <__udivsi3+0x52>
1004010e:	038b      	lsls	r3, r1, #14
10040110:	1ac0      	subs	r0, r0, r3
10040112:	4152      	adcs	r2, r2
10040114:	0b43      	lsrs	r3, r0, #13
10040116:	428b      	cmp	r3, r1
10040118:	d301      	bcc.n	1004011e <__udivsi3+0x5e>
1004011a:	034b      	lsls	r3, r1, #13
1004011c:	1ac0      	subs	r0, r0, r3
1004011e:	4152      	adcs	r2, r2
10040120:	0b03      	lsrs	r3, r0, #12
10040122:	428b      	cmp	r3, r1
10040124:	d301      	bcc.n	1004012a <__udivsi3+0x6a>
10040126:	030b      	lsls	r3, r1, #12
10040128:	1ac0      	subs	r0, r0, r3
1004012a:	4152      	adcs	r2, r2
1004012c:	0ac3      	lsrs	r3, r0, #11
1004012e:	428b      	cmp	r3, r1
10040130:	d301      	bcc.n	10040136 <__udivsi3+0x76>
10040132:	02cb      	lsls	r3, r1, #11
10040134:	1ac0      	subs	r0, r0, r3
10040136:	4152      	adcs	r2, r2
10040138:	0a83      	lsrs	r3, r0, #10
1004013a:	428b      	cmp	r3, r1
1004013c:	d301      	bcc.n	10040142 <__udivsi3+0x82>
1004013e:	028b      	lsls	r3, r1, #10
10040140:	1ac0      	subs	r0, r0, r3
10040142:	4152      	adcs	r2, r2
10040144:	0a43      	lsrs	r3, r0, #9
10040146:	428b      	cmp	r3, r1
10040148:	d301      	bcc.n	1004014e <__udivsi3+0x8e>
1004014a:	024b      	lsls	r3, r1, #9
1004014c:	1ac0      	subs	r0, r0, r3
1004014e:	4152      	adcs	r2, r2
10040150:	0a03      	lsrs	r3, r0, #8
10040152:	428b      	cmp	r3, r1
10040154:	d301      	bcc.n	1004015a <__udivsi3+0x9a>
10040156:	020b      	lsls	r3, r1, #8
10040158:	1ac0      	subs	r0, r0, r3
1004015a:	4152      	adcs	r2, r2
1004015c:	d2cd      	bcs.n	100400fa <__udivsi3+0x3a>
1004015e:	09c3      	lsrs	r3, r0, #7
10040160:	428b      	cmp	r3, r1
10040162:	d301      	bcc.n	10040168 <__udivsi3+0xa8>
10040164:	01cb      	lsls	r3, r1, #7
10040166:	1ac0      	subs	r0, r0, r3
10040168:	4152      	adcs	r2, r2
1004016a:	0983      	lsrs	r3, r0, #6
1004016c:	428b      	cmp	r3, r1
1004016e:	d301      	bcc.n	10040174 <__udivsi3+0xb4>
10040170:	018b      	lsls	r3, r1, #6
10040172:	1ac0      	subs	r0, r0, r3
10040174:	4152      	adcs	r2, r2
10040176:	0943      	lsrs	r3, r0, #5
10040178:	428b      	cmp	r3, r1
1004017a:	d301      	bcc.n	10040180 <__udivsi3+0xc0>
1004017c:	014b      	lsls	r3, r1, #5
1004017e:	1ac0      	subs	r0, r0, r3
10040180:	4152      	adcs	r2, r2
10040182:	0903      	lsrs	r3, r0, #4
10040184:	428b      	cmp	r3, r1
10040186:	d301      	bcc.n	1004018c <__udivsi3+0xcc>
10040188:	010b      	lsls	r3, r1, #4
1004018a:	1ac0      	subs	r0, r0, r3
1004018c:	4152      	adcs	r2, r2
1004018e:	08c3      	lsrs	r3, r0, #3
10040190:	428b      	cmp	r3, r1
10040192:	d301      	bcc.n	10040198 <__udivsi3+0xd8>
10040194:	00cb      	lsls	r3, r1, #3
10040196:	1ac0      	subs	r0, r0, r3
10040198:	4152      	adcs	r2, r2
1004019a:	0883      	lsrs	r3, r0, #2
1004019c:	428b      	cmp	r3, r1
1004019e:	d301      	bcc.n	100401a4 <__udivsi3+0xe4>
100401a0:	008b      	lsls	r3, r1, #2
100401a2:	1ac0      	subs	r0, r0, r3
100401a4:	4152      	adcs	r2, r2
100401a6:	0843      	lsrs	r3, r0, #1
100401a8:	428b      	cmp	r3, r1
100401aa:	d301      	bcc.n	100401b0 <__udivsi3+0xf0>
100401ac:	004b      	lsls	r3, r1, #1
100401ae:	1ac0      	subs	r0, r0, r3
100401b0:	4152      	adcs	r2, r2
100401b2:	1a41      	subs	r1, r0, r1
100401b4:	d200      	bcs.n	100401b8 <__udivsi3+0xf8>
100401b6:	4601      	mov	r1, r0
100401b8:	4152      	adcs	r2, r2
100401ba:	4610      	mov	r0, r2
100401bc:	4770      	bx	lr
100401be:	e7ff      	b.n	100401c0 <__udivsi3+0x100>
100401c0:	b501      	push	{r0, lr}
100401c2:	2000      	movs	r0, #0
100401c4:	f000 f8f0 	bl	100403a8 <__aeabi_idiv0>
100401c8:	bd02      	pop	{r1, pc}
100401ca:	46c0      	nop			@ (mov r8, r8)

100401cc <__aeabi_uidivmod>:
100401cc:	2900      	cmp	r1, #0
100401ce:	d0f7      	beq.n	100401c0 <__udivsi3+0x100>
100401d0:	e776      	b.n	100400c0 <__udivsi3>
100401d2:	4770      	bx	lr

100401d4 <__divsi3>:
100401d4:	4603      	mov	r3, r0
100401d6:	430b      	orrs	r3, r1
100401d8:	d47f      	bmi.n	100402da <__divsi3+0x106>
100401da:	2200      	movs	r2, #0
100401dc:	0843      	lsrs	r3, r0, #1
100401de:	428b      	cmp	r3, r1
100401e0:	d374      	bcc.n	100402cc <__divsi3+0xf8>
100401e2:	0903      	lsrs	r3, r0, #4
100401e4:	428b      	cmp	r3, r1
100401e6:	d35f      	bcc.n	100402a8 <__divsi3+0xd4>
100401e8:	0a03      	lsrs	r3, r0, #8
100401ea:	428b      	cmp	r3, r1
100401ec:	d344      	bcc.n	10040278 <__divsi3+0xa4>
100401ee:	0b03      	lsrs	r3, r0, #12
100401f0:	428b      	cmp	r3, r1
100401f2:	d328      	bcc.n	10040246 <__divsi3+0x72>
100401f4:	0c03      	lsrs	r3, r0, #16
100401f6:	428b      	cmp	r3, r1
100401f8:	d30d      	bcc.n	10040216 <__divsi3+0x42>
100401fa:	22ff      	movs	r2, #255	@ 0xff
100401fc:	0209      	lsls	r1, r1, #8
100401fe:	ba12      	rev	r2, r2
10040200:	0c03      	lsrs	r3, r0, #16
10040202:	428b      	cmp	r3, r1
10040204:	d302      	bcc.n	1004020c <__divsi3+0x38>
10040206:	1212      	asrs	r2, r2, #8
10040208:	0209      	lsls	r1, r1, #8
1004020a:	d065      	beq.n	100402d8 <__divsi3+0x104>
1004020c:	0b03      	lsrs	r3, r0, #12
1004020e:	428b      	cmp	r3, r1
10040210:	d319      	bcc.n	10040246 <__divsi3+0x72>
10040212:	e000      	b.n	10040216 <__divsi3+0x42>
10040214:	0a09      	lsrs	r1, r1, #8
10040216:	0bc3      	lsrs	r3, r0, #15
10040218:	428b      	cmp	r3, r1
1004021a:	d301      	bcc.n	10040220 <__divsi3+0x4c>
1004021c:	03cb      	lsls	r3, r1, #15
1004021e:	1ac0      	subs	r0, r0, r3
10040220:	4152      	adcs	r2, r2
10040222:	0b83      	lsrs	r3, r0, #14
10040224:	428b      	cmp	r3, r1
10040226:	d301      	bcc.n	1004022c <__divsi3+0x58>
10040228:	038b      	lsls	r3, r1, #14
1004022a:	1ac0      	subs	r0, r0, r3
1004022c:	4152      	adcs	r2, r2
1004022e:	0b43      	lsrs	r3, r0, #13
10040230:	428b      	cmp	r3, r1
10040232:	d301      	bcc.n	10040238 <__divsi3+0x64>
10040234:	034b      	lsls	r3, r1, #13
10040236:	1ac0      	subs	r0, r0, r3
10040238:	4152      	adcs	r2, r2
1004023a:	0b03      	lsrs	r3, r0, #12
1004023c:	428b      	cmp	r3, r1
1004023e:	d301      	bcc.n	10040244 <__divsi3+0x70>
10040240:	030b      	lsls	r3, r1, #12
10040242:	1ac0      	subs	r0, r0, r3
10040244:	4152      	adcs	r2, r2
10040246:	0ac3      	lsrs	r3, r0, #11
10040248:	428b      	cmp	r3, r1
1004024a:	d301      	bcc.n	10040250 <__divsi3+0x7c>
1004024c:	02cb      	lsls	r3, r1, #11
1004024e:	1ac0      	subs	r0, r0, r3
10040250:	4152      	adcs	r2, r2
10040252:	0a83      	lsrs	r3, r0, #10
10040254:	428b      	cmp	r3, r1
10040256:	d301      	bcc.n	1004025c <__divsi3+0x88>
10040258:	028b      	lsls	r3, r1, #10
1004025a:	1ac0      	subs	r0, r0, r3
1004025c:	4152      	adcs	r2, r2
1004025e:	0a43      	lsrs	r3, r0, #9
10040260:	428b      	cmp	r3, r1
10040262:	d301      	bcc.n	10040268 <__divsi3+0x94>
10040264:	024b      	lsls	r3, r1, #9
10040266:	1ac0      	subs	r0, r0, r3
10040268:	4152      	adcs	r2, r2
1004026a:	0a03      	lsrs	r3, r0, #8
1004026c:	428b      	cmp	r3, r1
1004026e:	d301      	bcc.n	10040274 <__divsi3+0xa0>
10040270:	020b      	lsls	r3, r1, #8
10040272:	1ac0      	subs	r0, r0, r3
10040274:	4152      	adcs	r2, r2
10040276:	d2cd      	bcs.n	10040214 <__divsi3+0x40>
10040278:	09c3      	lsrs	r3, r0, #7
1004027a:	428b      	cmp	r3, r1
1004027c:	d301      	bcc.n	10040282 <__divsi3+0xae>
1004027e:	01cb      	lsls	r3, r1, #7
10040280:	1ac0      	subs	r0, r0, r3
10040282:	4152      	adcs	r2, r2
10040284:	0983      	lsrs	r3, r0, #6
10040286:	428b      	cmp	r3, r1
10040288:	d301      	bcc.n	1004028e <__divsi3+0xba>
1004028a:	018b      	lsls	r3, r1, #6
1004028c:	1ac0      	subs	r0, r0, r3
1004028e:	4152      	adcs	r2, r2
10040290:	0943      	lsrs	r3, r0, #5
10040292:	428b      	cmp	r3, r1
10040294:	d301      	bcc.n	1004029a <__divsi3+0xc6>
10040296:	014b      	lsls	r3, r1, #5
10040298:	1ac0      	subs	r0, r0, r3
1004029a:	4152      	adcs	r2, r2
1004029c:	0903      	lsrs	r3, r0, #4
1004029e:	428b      	cmp	r3, r1
100402a0:	d301      	bcc.n	100402a6 <__divsi3+0xd2>
100402a2:	010b      	lsls	r3, r1, #4
100402a4:	1ac0      	subs	r0, r0, r3
100402a6:	4152      	adcs	r2, r2
100402a8:	08c3      	lsrs	r3, r0, #3
100402aa:	428b      	cmp	r3, r1
100402ac:	d301      	bcc.n	100402b2 <__divsi3+0xde>
100402ae:	00cb      	lsls	r3, r1, #3
100402b0:	1ac0      	subs	r0, r0, r3
100402b2:	4152      	adcs	r2, r2
100402b4:	0883      	lsrs	r3, r0, #2
100402b6:	428b      	cmp	r3, r1
100402b8:	d301      	bcc.n	100402be <__divsi3+0xea>
100402ba:	008b      	lsls	r3, r1, #2
100402bc:	1ac0      	subs	r0, r0, r3
100402be:	4152      	adcs	r2, r2
100402c0:	0843      	lsrs	r3, r0, #1
100402c2:	428b      	cmp	r3, r1
100402c4:	d301      	bcc.n	100402ca <__divsi3+0xf6>
100402c6:	004b      	lsls	r3, r1, #1
100402c8:	1ac0      	subs	r0, r0, r3
100402ca:	4152      	adcs	r2, r2
100402cc:	1a41      	subs	r1, r0, r1
100402ce:	d200      	bcs.n	100402d2 <__divsi3+0xfe>
100402d0:	4601      	mov	r1, r0
100402d2:	4152      	adcs	r2, r2
100402d4:	4610      	mov	r0, r2
100402d6:	4770      	bx	lr
100402d8:	e05d      	b.n	10040396 <__divsi3+0x1c2>
100402da:	0fca      	lsrs	r2, r1, #31
100402dc:	d000      	beq.n	100402e0 <__divsi3+0x10c>
100402de:	4249      	negs	r1, r1
100402e0:	1003      	asrs	r3, r0, #32
100402e2:	d300      	bcc.n	100402e6 <__divsi3+0x112>
100402e4:	4240      	negs	r0, r0
100402e6:	4053      	eors	r3, r2
100402e8:	2200      	movs	r2, #0
100402ea:	469c      	mov	ip, r3
100402ec:	0903      	lsrs	r3, r0, #4
100402ee:	428b      	cmp	r3, r1
100402f0:	d32d      	bcc.n	1004034e <__divsi3+0x17a>
100402f2:	0a03      	lsrs	r3, r0, #8
100402f4:	428b      	cmp	r3, r1
100402f6:	d312      	bcc.n	1004031e <__divsi3+0x14a>
100402f8:	22fc      	movs	r2, #252	@ 0xfc
100402fa:	0189      	lsls	r1, r1, #6
100402fc:	ba12      	rev	r2, r2
100402fe:	0a03      	lsrs	r3, r0, #8
10040300:	428b      	cmp	r3, r1
10040302:	d30c      	bcc.n	1004031e <__divsi3+0x14a>
10040304:	0189      	lsls	r1, r1, #6
10040306:	1192      	asrs	r2, r2, #6
10040308:	428b      	cmp	r3, r1
1004030a:	d308      	bcc.n	1004031e <__divsi3+0x14a>
1004030c:	0189      	lsls	r1, r1, #6
1004030e:	1192      	asrs	r2, r2, #6
10040310:	428b      	cmp	r3, r1
10040312:	d304      	bcc.n	1004031e <__divsi3+0x14a>
10040314:	0189      	lsls	r1, r1, #6
10040316:	d03a      	beq.n	1004038e <__divsi3+0x1ba>
10040318:	1192      	asrs	r2, r2, #6
1004031a:	e000      	b.n	1004031e <__divsi3+0x14a>
1004031c:	0989      	lsrs	r1, r1, #6
1004031e:	09c3      	lsrs	r3, r0, #7
10040320:	428b      	cmp	r3, r1
10040322:	d301      	bcc.n	10040328 <__divsi3+0x154>
10040324:	01cb      	lsls	r3, r1, #7
10040326:	1ac0      	subs	r0, r0, r3
10040328:	4152      	adcs	r2, r2
1004032a:	0983      	lsrs	r3, r0, #6
1004032c:	428b      	cmp	r3, r1
1004032e:	d301      	bcc.n	10040334 <__divsi3+0x160>
10040330:	018b      	lsls	r3, r1, #6
10040332:	1ac0      	subs	r0, r0, r3
10040334:	4152      	adcs	r2, r2
10040336:	0943      	lsrs	r3, r0, #5
10040338:	428b      	cmp	r3, r1
1004033a:	d301      	bcc.n	10040340 <__divsi3+0x16c>
1004033c:	014b      	lsls	r3, r1, #5
1004033e:	1ac0      	subs	r0, r0, r3
10040340:	4152      	adcs	r2, r2
10040342:	0903      	lsrs	r3, r0, #4
10040344:	428b      	cmp	r3, r1
10040346:	d301      	bcc.n	1004034c <__divsi3+0x178>
10040348:	010b      	lsls	r3, r1, #4
1004034a:	1ac0      	subs	r0, r0, r3
1004034c:	4152      	adcs	r2, r2
1004034e:	08c3      	lsrs	r3, r0, #3
10040350:	428b      	cmp	r3, r1
10040352:	d301      	bcc.n	10040358 <__divsi3+0x184>
10040354:	00cb      	lsls	r3, r1, #3
10040356:	1ac0      	subs	r0, r0, r3
10040358:	4152      	adcs	r2, r2
1004035a:	0883      	lsrs	r3, r0, #2
1004035c:	428b      	cmp	r3, r1
1004035e:	d301      	bcc.n	10040364 <__divsi3+0x190>
10040360:	008b      	lsls	r3, r1, #2
10040362:	1ac0      	subs	r0, r0, r3
10040364:	4152      	adcs	r2, r2
10040366:	d2d9      	bcs.n	1004031c <__divsi3+0x148>
10040368:	0843      	lsrs	r3, r0, #1
1004036a:	428b      	cmp	r3, r1
1004036c:	d301      	bcc.n	10040372 <__divsi3+0x19e>
1004036e:	004b      	lsls	r3, r1, #1
10040370:	1ac0      	subs	r0, r0, r3
10040372:	4152      	adcs	r2, r2
10040374:	1a41      	subs	r1, r0, r1
10040376:	d200      	bcs.n	1004037a <__divsi3+0x1a6>
10040378:	4601      	mov	r1, r0
1004037a:	4663      	mov	r3, ip
1004037c:	4152      	adcs	r2, r2
1004037e:	105b      	asrs	r3, r3, #1
10040380:	4610      	mov	r0, r2
10040382:	d301      	bcc.n	10040388 <__divsi3+0x1b4>
10040384:	4240      	negs	r0, r0
10040386:	2b00      	cmp	r3, #0
10040388:	d500      	bpl.n	1004038c <__divsi3+0x1b8>
1004038a:	4249      	negs	r1, r1
1004038c:	4770      	bx	lr
1004038e:	4663      	mov	r3, ip
10040390:	105b      	asrs	r3, r3, #1
10040392:	d300      	bcc.n	10040396 <__divsi3+0x1c2>
10040394:	4240      	negs	r0, r0
10040396:	b501      	push	{r0, lr}
10040398:	2000      	movs	r0, #0
1004039a:	f000 f805 	bl	100403a8 <__aeabi_idiv0>
1004039e:	bd02      	pop	{r1, pc}

100403a0 <__aeabi_idivmod>:
100403a0:	2900      	cmp	r1, #0
100403a2:	d0f8      	beq.n	10040396 <__divsi3+0x1c2>
100403a4:	e716      	b.n	100401d4 <__divsi3>
100403a6:	4770      	bx	lr

100403a8 <__aeabi_idiv0>:
100403a8:	4770      	bx	lr
100403aa:	46c0      	nop			@ (mov r8, r8)

100403ac <__aeabi_uldivmod>:
100403ac:	2b00      	cmp	r3, #0
100403ae:	d111      	bne.n	100403d4 <__aeabi_uldivmod+0x28>
100403b0:	2a00      	cmp	r2, #0
100403b2:	d10f      	bne.n	100403d4 <__aeabi_uldivmod+0x28>
100403b4:	2900      	cmp	r1, #0
100403b6:	d100      	bne.n	100403ba <__aeabi_uldivmod+0xe>
100403b8:	2800      	cmp	r0, #0
100403ba:	d002      	beq.n	100403c2 <__aeabi_uldivmod+0x16>
100403bc:	2100      	movs	r1, #0
100403be:	43c9      	mvns	r1, r1
100403c0:	0008      	movs	r0, r1
100403c2:	b407      	push	{r0, r1, r2}
100403c4:	4802      	ldr	r0, [pc, #8]	@ (100403d0 <__aeabi_uldivmod+0x24>)
100403c6:	a102      	add	r1, pc, #8	@ (adr r1, 100403d0 <__aeabi_uldivmod+0x24>)
100403c8:	1840      	adds	r0, r0, r1
100403ca:	9002      	str	r0, [sp, #8]
100403cc:	bd03      	pop	{r0, r1, pc}
100403ce:	46c0      	nop			@ (mov r8, r8)
100403d0:	ffffffd9 	.word	0xffffffd9
100403d4:	b403      	push	{r0, r1}
100403d6:	4668      	mov	r0, sp
100403d8:	b501      	push	{r0, lr}
100403da:	9802      	ldr	r0, [sp, #8]
100403dc:	f000 f852 	bl	10040484 <__udivmoddi4>
100403e0:	9b01      	ldr	r3, [sp, #4]
100403e2:	469e      	mov	lr, r3
100403e4:	b002      	add	sp, #8
100403e6:	bc0c      	pop	{r2, r3}
100403e8:	4770      	bx	lr
100403ea:	46c0      	nop			@ (mov r8, r8)

100403ec <__aeabi_lmul>:
100403ec:	b5f0      	push	{r4, r5, r6, r7, lr}
100403ee:	46ce      	mov	lr, r9
100403f0:	4699      	mov	r9, r3
100403f2:	0c03      	lsrs	r3, r0, #16
100403f4:	469c      	mov	ip, r3
100403f6:	0413      	lsls	r3, r2, #16
100403f8:	4647      	mov	r7, r8
100403fa:	0c1b      	lsrs	r3, r3, #16
100403fc:	001d      	movs	r5, r3
100403fe:	000e      	movs	r6, r1
10040400:	4661      	mov	r1, ip
10040402:	0404      	lsls	r4, r0, #16
10040404:	0c24      	lsrs	r4, r4, #16
10040406:	b580      	push	{r7, lr}
10040408:	0007      	movs	r7, r0
1004040a:	0c10      	lsrs	r0, r2, #16
1004040c:	434b      	muls	r3, r1
1004040e:	4365      	muls	r5, r4
10040410:	4341      	muls	r1, r0
10040412:	4360      	muls	r0, r4
10040414:	0c2c      	lsrs	r4, r5, #16
10040416:	18c0      	adds	r0, r0, r3
10040418:	1824      	adds	r4, r4, r0
1004041a:	468c      	mov	ip, r1
1004041c:	42a3      	cmp	r3, r4
1004041e:	d903      	bls.n	10040428 <__aeabi_lmul+0x3c>
10040420:	2380      	movs	r3, #128	@ 0x80
10040422:	025b      	lsls	r3, r3, #9
10040424:	4698      	mov	r8, r3
10040426:	44c4      	add	ip, r8
10040428:	4649      	mov	r1, r9
1004042a:	4379      	muls	r1, r7
1004042c:	4356      	muls	r6, r2
1004042e:	0c23      	lsrs	r3, r4, #16
10040430:	042d      	lsls	r5, r5, #16
10040432:	0c2d      	lsrs	r5, r5, #16
10040434:	1989      	adds	r1, r1, r6
10040436:	4463      	add	r3, ip
10040438:	0424      	lsls	r4, r4, #16
1004043a:	1960      	adds	r0, r4, r5
1004043c:	18c9      	adds	r1, r1, r3
1004043e:	bcc0      	pop	{r6, r7}
10040440:	46b9      	mov	r9, r7
10040442:	46b0      	mov	r8, r6
10040444:	bdf0      	pop	{r4, r5, r6, r7, pc}
10040446:	46c0      	nop			@ (mov r8, r8)

10040448 <__aeabi_d2uiz>:
10040448:	b570      	push	{r4, r5, r6, lr}
1004044a:	2200      	movs	r2, #0
1004044c:	4b0c      	ldr	r3, [pc, #48]	@ (10040480 <__aeabi_d2uiz+0x38>)
1004044e:	0004      	movs	r4, r0
10040450:	000d      	movs	r5, r1
10040452:	f002 f9ad 	bl	100427b0 <__aeabi_dcmpge>
10040456:	2800      	cmp	r0, #0
10040458:	d104      	bne.n	10040464 <__aeabi_d2uiz+0x1c>
1004045a:	0020      	movs	r0, r4
1004045c:	0029      	movs	r1, r5
1004045e:	f002 f815 	bl	1004248c <__aeabi_d2iz>
10040462:	bd70      	pop	{r4, r5, r6, pc}
10040464:	4b06      	ldr	r3, [pc, #24]	@ (10040480 <__aeabi_d2uiz+0x38>)
10040466:	2200      	movs	r2, #0
10040468:	0020      	movs	r0, r4
1004046a:	0029      	movs	r1, r5
1004046c:	f001 fbd6 	bl	10041c1c <__aeabi_dsub>
10040470:	f002 f80c 	bl	1004248c <__aeabi_d2iz>
10040474:	2380      	movs	r3, #128	@ 0x80
10040476:	061b      	lsls	r3, r3, #24
10040478:	469c      	mov	ip, r3
1004047a:	4460      	add	r0, ip
1004047c:	e7f1      	b.n	10040462 <__aeabi_d2uiz+0x1a>
1004047e:	46c0      	nop			@ (mov r8, r8)
10040480:	41e00000 	.word	0x41e00000

10040484 <__udivmoddi4>:
10040484:	b5f0      	push	{r4, r5, r6, r7, lr}
10040486:	4657      	mov	r7, sl
10040488:	464e      	mov	r6, r9
1004048a:	4645      	mov	r5, r8
1004048c:	46de      	mov	lr, fp
1004048e:	b5e0      	push	{r5, r6, r7, lr}
10040490:	0004      	movs	r4, r0
10040492:	000d      	movs	r5, r1
10040494:	4692      	mov	sl, r2
10040496:	4699      	mov	r9, r3
10040498:	b083      	sub	sp, #12
1004049a:	428b      	cmp	r3, r1
1004049c:	d830      	bhi.n	10040500 <__udivmoddi4+0x7c>
1004049e:	d02d      	beq.n	100404fc <__udivmoddi4+0x78>
100404a0:	4649      	mov	r1, r9
100404a2:	4650      	mov	r0, sl
100404a4:	f002 f9ac 	bl	10042800 <__clzdi2>
100404a8:	0029      	movs	r1, r5
100404aa:	0006      	movs	r6, r0
100404ac:	0020      	movs	r0, r4
100404ae:	f002 f9a7 	bl	10042800 <__clzdi2>
100404b2:	1a33      	subs	r3, r6, r0
100404b4:	4698      	mov	r8, r3
100404b6:	3b20      	subs	r3, #32
100404b8:	d434      	bmi.n	10040524 <__udivmoddi4+0xa0>
100404ba:	469b      	mov	fp, r3
100404bc:	4653      	mov	r3, sl
100404be:	465a      	mov	r2, fp
100404c0:	4093      	lsls	r3, r2
100404c2:	4642      	mov	r2, r8
100404c4:	001f      	movs	r7, r3
100404c6:	4653      	mov	r3, sl
100404c8:	4093      	lsls	r3, r2
100404ca:	001e      	movs	r6, r3
100404cc:	42af      	cmp	r7, r5
100404ce:	d83b      	bhi.n	10040548 <__udivmoddi4+0xc4>
100404d0:	42af      	cmp	r7, r5
100404d2:	d100      	bne.n	100404d6 <__udivmoddi4+0x52>
100404d4:	e079      	b.n	100405ca <__udivmoddi4+0x146>
100404d6:	465b      	mov	r3, fp
100404d8:	1ba4      	subs	r4, r4, r6
100404da:	41bd      	sbcs	r5, r7
100404dc:	2b00      	cmp	r3, #0
100404de:	da00      	bge.n	100404e2 <__udivmoddi4+0x5e>
100404e0:	e076      	b.n	100405d0 <__udivmoddi4+0x14c>
100404e2:	2200      	movs	r2, #0
100404e4:	2300      	movs	r3, #0
100404e6:	9200      	str	r2, [sp, #0]
100404e8:	9301      	str	r3, [sp, #4]
100404ea:	2301      	movs	r3, #1
100404ec:	465a      	mov	r2, fp
100404ee:	4093      	lsls	r3, r2
100404f0:	9301      	str	r3, [sp, #4]
100404f2:	2301      	movs	r3, #1
100404f4:	4642      	mov	r2, r8
100404f6:	4093      	lsls	r3, r2
100404f8:	9300      	str	r3, [sp, #0]
100404fa:	e029      	b.n	10040550 <__udivmoddi4+0xcc>
100404fc:	4282      	cmp	r2, r0
100404fe:	d9cf      	bls.n	100404a0 <__udivmoddi4+0x1c>
10040500:	2200      	movs	r2, #0
10040502:	2300      	movs	r3, #0
10040504:	9200      	str	r2, [sp, #0]
10040506:	9301      	str	r3, [sp, #4]
10040508:	9b0c      	ldr	r3, [sp, #48]	@ 0x30
1004050a:	2b00      	cmp	r3, #0
1004050c:	d001      	beq.n	10040512 <__udivmoddi4+0x8e>
1004050e:	601c      	str	r4, [r3, #0]
10040510:	605d      	str	r5, [r3, #4]
10040512:	9800      	ldr	r0, [sp, #0]
10040514:	9901      	ldr	r1, [sp, #4]
10040516:	b003      	add	sp, #12
10040518:	bcf0      	pop	{r4, r5, r6, r7}
1004051a:	46bb      	mov	fp, r7
1004051c:	46b2      	mov	sl, r6
1004051e:	46a9      	mov	r9, r5
10040520:	46a0      	mov	r8, r4
10040522:	bdf0      	pop	{r4, r5, r6, r7, pc}
10040524:	4642      	mov	r2, r8
10040526:	469b      	mov	fp, r3
10040528:	2320      	movs	r3, #32
1004052a:	1a9b      	subs	r3, r3, r2
1004052c:	4652      	mov	r2, sl
1004052e:	40da      	lsrs	r2, r3
10040530:	4641      	mov	r1, r8
10040532:	0013      	movs	r3, r2
10040534:	464a      	mov	r2, r9
10040536:	408a      	lsls	r2, r1
10040538:	0017      	movs	r7, r2
1004053a:	4642      	mov	r2, r8
1004053c:	431f      	orrs	r7, r3
1004053e:	4653      	mov	r3, sl
10040540:	4093      	lsls	r3, r2
10040542:	001e      	movs	r6, r3
10040544:	42af      	cmp	r7, r5
10040546:	d9c3      	bls.n	100404d0 <__udivmoddi4+0x4c>
10040548:	2200      	movs	r2, #0
1004054a:	2300      	movs	r3, #0
1004054c:	9200      	str	r2, [sp, #0]
1004054e:	9301      	str	r3, [sp, #4]
10040550:	4643      	mov	r3, r8
10040552:	2b00      	cmp	r3, #0
10040554:	d0d8      	beq.n	10040508 <__udivmoddi4+0x84>
10040556:	07fb      	lsls	r3, r7, #31
10040558:	0872      	lsrs	r2, r6, #1
1004055a:	431a      	orrs	r2, r3
1004055c:	4646      	mov	r6, r8
1004055e:	087b      	lsrs	r3, r7, #1
10040560:	e00e      	b.n	10040580 <__udivmoddi4+0xfc>
10040562:	42ab      	cmp	r3, r5
10040564:	d101      	bne.n	1004056a <__udivmoddi4+0xe6>
10040566:	42a2      	cmp	r2, r4
10040568:	d80c      	bhi.n	10040584 <__udivmoddi4+0x100>
1004056a:	1aa4      	subs	r4, r4, r2
1004056c:	419d      	sbcs	r5, r3
1004056e:	2001      	movs	r0, #1
10040570:	1924      	adds	r4, r4, r4
10040572:	416d      	adcs	r5, r5
10040574:	2100      	movs	r1, #0
10040576:	3e01      	subs	r6, #1
10040578:	1824      	adds	r4, r4, r0
1004057a:	414d      	adcs	r5, r1
1004057c:	2e00      	cmp	r6, #0
1004057e:	d006      	beq.n	1004058e <__udivmoddi4+0x10a>
10040580:	42ab      	cmp	r3, r5
10040582:	d9ee      	bls.n	10040562 <__udivmoddi4+0xde>
10040584:	3e01      	subs	r6, #1
10040586:	1924      	adds	r4, r4, r4
10040588:	416d      	adcs	r5, r5
1004058a:	2e00      	cmp	r6, #0
1004058c:	d1f8      	bne.n	10040580 <__udivmoddi4+0xfc>
1004058e:	9800      	ldr	r0, [sp, #0]
10040590:	9901      	ldr	r1, [sp, #4]
10040592:	465b      	mov	r3, fp
10040594:	1900      	adds	r0, r0, r4
10040596:	4169      	adcs	r1, r5
10040598:	2b00      	cmp	r3, #0
1004059a:	db24      	blt.n	100405e6 <__udivmoddi4+0x162>
1004059c:	002b      	movs	r3, r5
1004059e:	465a      	mov	r2, fp
100405a0:	4646      	mov	r6, r8
100405a2:	40d3      	lsrs	r3, r2
100405a4:	002a      	movs	r2, r5
100405a6:	001c      	movs	r4, r3
100405a8:	40f2      	lsrs	r2, r6
100405aa:	465b      	mov	r3, fp
100405ac:	0015      	movs	r5, r2
100405ae:	2b00      	cmp	r3, #0
100405b0:	db2a      	blt.n	10040608 <__udivmoddi4+0x184>
100405b2:	0026      	movs	r6, r4
100405b4:	409e      	lsls	r6, r3
100405b6:	0033      	movs	r3, r6
100405b8:	0026      	movs	r6, r4
100405ba:	4647      	mov	r7, r8
100405bc:	40be      	lsls	r6, r7
100405be:	0032      	movs	r2, r6
100405c0:	1a80      	subs	r0, r0, r2
100405c2:	4199      	sbcs	r1, r3
100405c4:	9000      	str	r0, [sp, #0]
100405c6:	9101      	str	r1, [sp, #4]
100405c8:	e79e      	b.n	10040508 <__udivmoddi4+0x84>
100405ca:	42a3      	cmp	r3, r4
100405cc:	d8bc      	bhi.n	10040548 <__udivmoddi4+0xc4>
100405ce:	e782      	b.n	100404d6 <__udivmoddi4+0x52>
100405d0:	4642      	mov	r2, r8
100405d2:	2320      	movs	r3, #32
100405d4:	2100      	movs	r1, #0
100405d6:	1a9b      	subs	r3, r3, r2
100405d8:	2200      	movs	r2, #0
100405da:	9100      	str	r1, [sp, #0]
100405dc:	9201      	str	r2, [sp, #4]
100405de:	2201      	movs	r2, #1
100405e0:	40da      	lsrs	r2, r3
100405e2:	9201      	str	r2, [sp, #4]
100405e4:	e785      	b.n	100404f2 <__udivmoddi4+0x6e>
100405e6:	4642      	mov	r2, r8
100405e8:	2320      	movs	r3, #32
100405ea:	1a9b      	subs	r3, r3, r2
100405ec:	002a      	movs	r2, r5
100405ee:	4646      	mov	r6, r8
100405f0:	409a      	lsls	r2, r3
100405f2:	0023      	movs	r3, r4
100405f4:	40f3      	lsrs	r3, r6
100405f6:	4646      	mov	r6, r8
100405f8:	4313      	orrs	r3, r2
100405fa:	002a      	movs	r2, r5
100405fc:	001c      	movs	r4, r3
100405fe:	40f2      	lsrs	r2, r6
10040600:	465b      	mov	r3, fp
10040602:	0015      	movs	r5, r2
10040604:	2b00      	cmp	r3, #0
10040606:	dad4      	bge.n	100405b2 <__udivmoddi4+0x12e>
10040608:	2320      	movs	r3, #32
1004060a:	4642      	mov	r2, r8
1004060c:	002f      	movs	r7, r5
1004060e:	1b9b      	subs	r3, r3, r6
10040610:	4097      	lsls	r7, r2
10040612:	0026      	movs	r6, r4
10040614:	40de      	lsrs	r6, r3
10040616:	003b      	movs	r3, r7
10040618:	4333      	orrs	r3, r6
1004061a:	e7cd      	b.n	100405b8 <__udivmoddi4+0x134>

1004061c <__aeabi_fdiv>:
1004061c:	b5f0      	push	{r4, r5, r6, r7, lr}
1004061e:	4646      	mov	r6, r8
10040620:	464f      	mov	r7, r9
10040622:	46d6      	mov	lr, sl
10040624:	0245      	lsls	r5, r0, #9
10040626:	b5c0      	push	{r6, r7, lr}
10040628:	0fc3      	lsrs	r3, r0, #31
1004062a:	0047      	lsls	r7, r0, #1
1004062c:	4698      	mov	r8, r3
1004062e:	1c0e      	adds	r6, r1, #0
10040630:	0a6d      	lsrs	r5, r5, #9
10040632:	0e3f      	lsrs	r7, r7, #24
10040634:	d05b      	beq.n	100406ee <__aeabi_fdiv+0xd2>
10040636:	2fff      	cmp	r7, #255	@ 0xff
10040638:	d021      	beq.n	1004067e <__aeabi_fdiv+0x62>
1004063a:	2380      	movs	r3, #128	@ 0x80
1004063c:	00ed      	lsls	r5, r5, #3
1004063e:	04db      	lsls	r3, r3, #19
10040640:	431d      	orrs	r5, r3
10040642:	2300      	movs	r3, #0
10040644:	4699      	mov	r9, r3
10040646:	469a      	mov	sl, r3
10040648:	3f7f      	subs	r7, #127	@ 0x7f
1004064a:	0274      	lsls	r4, r6, #9
1004064c:	0073      	lsls	r3, r6, #1
1004064e:	0a64      	lsrs	r4, r4, #9
10040650:	0e1b      	lsrs	r3, r3, #24
10040652:	0ff6      	lsrs	r6, r6, #31
10040654:	2b00      	cmp	r3, #0
10040656:	d020      	beq.n	1004069a <__aeabi_fdiv+0x7e>
10040658:	2bff      	cmp	r3, #255	@ 0xff
1004065a:	d043      	beq.n	100406e4 <__aeabi_fdiv+0xc8>
1004065c:	2280      	movs	r2, #128	@ 0x80
1004065e:	2000      	movs	r0, #0
10040660:	00e4      	lsls	r4, r4, #3
10040662:	04d2      	lsls	r2, r2, #19
10040664:	4314      	orrs	r4, r2
10040666:	3b7f      	subs	r3, #127	@ 0x7f
10040668:	4642      	mov	r2, r8
1004066a:	1aff      	subs	r7, r7, r3
1004066c:	464b      	mov	r3, r9
1004066e:	4072      	eors	r2, r6
10040670:	2b0f      	cmp	r3, #15
10040672:	d900      	bls.n	10040676 <__aeabi_fdiv+0x5a>
10040674:	e09d      	b.n	100407b2 <__aeabi_fdiv+0x196>
10040676:	4971      	ldr	r1, [pc, #452]	@ (1004083c <__aeabi_fdiv+0x220>)
10040678:	009b      	lsls	r3, r3, #2
1004067a:	58cb      	ldr	r3, [r1, r3]
1004067c:	469f      	mov	pc, r3
1004067e:	2d00      	cmp	r5, #0
10040680:	d15a      	bne.n	10040738 <__aeabi_fdiv+0x11c>
10040682:	2308      	movs	r3, #8
10040684:	4699      	mov	r9, r3
10040686:	3b06      	subs	r3, #6
10040688:	0274      	lsls	r4, r6, #9
1004068a:	469a      	mov	sl, r3
1004068c:	0073      	lsls	r3, r6, #1
1004068e:	27ff      	movs	r7, #255	@ 0xff
10040690:	0a64      	lsrs	r4, r4, #9
10040692:	0e1b      	lsrs	r3, r3, #24
10040694:	0ff6      	lsrs	r6, r6, #31
10040696:	2b00      	cmp	r3, #0
10040698:	d1de      	bne.n	10040658 <__aeabi_fdiv+0x3c>
1004069a:	2c00      	cmp	r4, #0
1004069c:	d13b      	bne.n	10040716 <__aeabi_fdiv+0xfa>
1004069e:	2301      	movs	r3, #1
100406a0:	4642      	mov	r2, r8
100406a2:	4649      	mov	r1, r9
100406a4:	4072      	eors	r2, r6
100406a6:	4319      	orrs	r1, r3
100406a8:	290e      	cmp	r1, #14
100406aa:	d818      	bhi.n	100406de <__aeabi_fdiv+0xc2>
100406ac:	4864      	ldr	r0, [pc, #400]	@ (10040840 <__aeabi_fdiv+0x224>)
100406ae:	0089      	lsls	r1, r1, #2
100406b0:	5841      	ldr	r1, [r0, r1]
100406b2:	468f      	mov	pc, r1
100406b4:	4653      	mov	r3, sl
100406b6:	2b02      	cmp	r3, #2
100406b8:	d100      	bne.n	100406bc <__aeabi_fdiv+0xa0>
100406ba:	e0b8      	b.n	1004082e <__aeabi_fdiv+0x212>
100406bc:	2b03      	cmp	r3, #3
100406be:	d06e      	beq.n	1004079e <__aeabi_fdiv+0x182>
100406c0:	4642      	mov	r2, r8
100406c2:	002c      	movs	r4, r5
100406c4:	2b01      	cmp	r3, #1
100406c6:	d140      	bne.n	1004074a <__aeabi_fdiv+0x12e>
100406c8:	2000      	movs	r0, #0
100406ca:	2400      	movs	r4, #0
100406cc:	05c0      	lsls	r0, r0, #23
100406ce:	4320      	orrs	r0, r4
100406d0:	07d2      	lsls	r2, r2, #31
100406d2:	4310      	orrs	r0, r2
100406d4:	bce0      	pop	{r5, r6, r7}
100406d6:	46ba      	mov	sl, r7
100406d8:	46b1      	mov	r9, r6
100406da:	46a8      	mov	r8, r5
100406dc:	bdf0      	pop	{r4, r5, r6, r7, pc}
100406de:	20ff      	movs	r0, #255	@ 0xff
100406e0:	2400      	movs	r4, #0
100406e2:	e7f3      	b.n	100406cc <__aeabi_fdiv+0xb0>
100406e4:	2c00      	cmp	r4, #0
100406e6:	d120      	bne.n	1004072a <__aeabi_fdiv+0x10e>
100406e8:	2302      	movs	r3, #2
100406ea:	3fff      	subs	r7, #255	@ 0xff
100406ec:	e7d8      	b.n	100406a0 <__aeabi_fdiv+0x84>
100406ee:	2d00      	cmp	r5, #0
100406f0:	d105      	bne.n	100406fe <__aeabi_fdiv+0xe2>
100406f2:	2304      	movs	r3, #4
100406f4:	4699      	mov	r9, r3
100406f6:	3b03      	subs	r3, #3
100406f8:	2700      	movs	r7, #0
100406fa:	469a      	mov	sl, r3
100406fc:	e7a5      	b.n	1004064a <__aeabi_fdiv+0x2e>
100406fe:	0028      	movs	r0, r5
10040700:	f002 f860 	bl	100427c4 <__clzsi2>
10040704:	2776      	movs	r7, #118	@ 0x76
10040706:	1f43      	subs	r3, r0, #5
10040708:	409d      	lsls	r5, r3
1004070a:	2300      	movs	r3, #0
1004070c:	427f      	negs	r7, r7
1004070e:	4699      	mov	r9, r3
10040710:	469a      	mov	sl, r3
10040712:	1a3f      	subs	r7, r7, r0
10040714:	e799      	b.n	1004064a <__aeabi_fdiv+0x2e>
10040716:	0020      	movs	r0, r4
10040718:	f002 f854 	bl	100427c4 <__clzsi2>
1004071c:	1f43      	subs	r3, r0, #5
1004071e:	409c      	lsls	r4, r3
10040720:	2376      	movs	r3, #118	@ 0x76
10040722:	425b      	negs	r3, r3
10040724:	1a1b      	subs	r3, r3, r0
10040726:	2000      	movs	r0, #0
10040728:	e79e      	b.n	10040668 <__aeabi_fdiv+0x4c>
1004072a:	2303      	movs	r3, #3
1004072c:	464a      	mov	r2, r9
1004072e:	431a      	orrs	r2, r3
10040730:	4691      	mov	r9, r2
10040732:	2003      	movs	r0, #3
10040734:	33fc      	adds	r3, #252	@ 0xfc
10040736:	e797      	b.n	10040668 <__aeabi_fdiv+0x4c>
10040738:	230c      	movs	r3, #12
1004073a:	4699      	mov	r9, r3
1004073c:	3b09      	subs	r3, #9
1004073e:	27ff      	movs	r7, #255	@ 0xff
10040740:	469a      	mov	sl, r3
10040742:	e782      	b.n	1004064a <__aeabi_fdiv+0x2e>
10040744:	2803      	cmp	r0, #3
10040746:	d02c      	beq.n	100407a2 <__aeabi_fdiv+0x186>
10040748:	0032      	movs	r2, r6
1004074a:	0038      	movs	r0, r7
1004074c:	307f      	adds	r0, #127	@ 0x7f
1004074e:	2800      	cmp	r0, #0
10040750:	dd47      	ble.n	100407e2 <__aeabi_fdiv+0x1c6>
10040752:	0763      	lsls	r3, r4, #29
10040754:	d004      	beq.n	10040760 <__aeabi_fdiv+0x144>
10040756:	230f      	movs	r3, #15
10040758:	4023      	ands	r3, r4
1004075a:	2b04      	cmp	r3, #4
1004075c:	d000      	beq.n	10040760 <__aeabi_fdiv+0x144>
1004075e:	3404      	adds	r4, #4
10040760:	0123      	lsls	r3, r4, #4
10040762:	d503      	bpl.n	1004076c <__aeabi_fdiv+0x150>
10040764:	0038      	movs	r0, r7
10040766:	4b37      	ldr	r3, [pc, #220]	@ (10040844 <__aeabi_fdiv+0x228>)
10040768:	3080      	adds	r0, #128	@ 0x80
1004076a:	401c      	ands	r4, r3
1004076c:	28fe      	cmp	r0, #254	@ 0xfe
1004076e:	dcb6      	bgt.n	100406de <__aeabi_fdiv+0xc2>
10040770:	01a4      	lsls	r4, r4, #6
10040772:	0a64      	lsrs	r4, r4, #9
10040774:	b2c0      	uxtb	r0, r0
10040776:	e7a9      	b.n	100406cc <__aeabi_fdiv+0xb0>
10040778:	2480      	movs	r4, #128	@ 0x80
1004077a:	2200      	movs	r2, #0
1004077c:	20ff      	movs	r0, #255	@ 0xff
1004077e:	03e4      	lsls	r4, r4, #15
10040780:	e7a4      	b.n	100406cc <__aeabi_fdiv+0xb0>
10040782:	2380      	movs	r3, #128	@ 0x80
10040784:	03db      	lsls	r3, r3, #15
10040786:	421d      	tst	r5, r3
10040788:	d001      	beq.n	1004078e <__aeabi_fdiv+0x172>
1004078a:	421c      	tst	r4, r3
1004078c:	d00b      	beq.n	100407a6 <__aeabi_fdiv+0x18a>
1004078e:	2480      	movs	r4, #128	@ 0x80
10040790:	03e4      	lsls	r4, r4, #15
10040792:	432c      	orrs	r4, r5
10040794:	0264      	lsls	r4, r4, #9
10040796:	4642      	mov	r2, r8
10040798:	20ff      	movs	r0, #255	@ 0xff
1004079a:	0a64      	lsrs	r4, r4, #9
1004079c:	e796      	b.n	100406cc <__aeabi_fdiv+0xb0>
1004079e:	4646      	mov	r6, r8
100407a0:	002c      	movs	r4, r5
100407a2:	2380      	movs	r3, #128	@ 0x80
100407a4:	03db      	lsls	r3, r3, #15
100407a6:	431c      	orrs	r4, r3
100407a8:	0264      	lsls	r4, r4, #9
100407aa:	0032      	movs	r2, r6
100407ac:	20ff      	movs	r0, #255	@ 0xff
100407ae:	0a64      	lsrs	r4, r4, #9
100407b0:	e78c      	b.n	100406cc <__aeabi_fdiv+0xb0>
100407b2:	016d      	lsls	r5, r5, #5
100407b4:	0160      	lsls	r0, r4, #5
100407b6:	4285      	cmp	r5, r0
100407b8:	d22d      	bcs.n	10040816 <__aeabi_fdiv+0x1fa>
100407ba:	231b      	movs	r3, #27
100407bc:	2400      	movs	r4, #0
100407be:	3f01      	subs	r7, #1
100407c0:	2601      	movs	r6, #1
100407c2:	0029      	movs	r1, r5
100407c4:	0064      	lsls	r4, r4, #1
100407c6:	006d      	lsls	r5, r5, #1
100407c8:	2900      	cmp	r1, #0
100407ca:	db01      	blt.n	100407d0 <__aeabi_fdiv+0x1b4>
100407cc:	4285      	cmp	r5, r0
100407ce:	d301      	bcc.n	100407d4 <__aeabi_fdiv+0x1b8>
100407d0:	1a2d      	subs	r5, r5, r0
100407d2:	4334      	orrs	r4, r6
100407d4:	3b01      	subs	r3, #1
100407d6:	2b00      	cmp	r3, #0
100407d8:	d1f3      	bne.n	100407c2 <__aeabi_fdiv+0x1a6>
100407da:	1e6b      	subs	r3, r5, #1
100407dc:	419d      	sbcs	r5, r3
100407de:	432c      	orrs	r4, r5
100407e0:	e7b3      	b.n	1004074a <__aeabi_fdiv+0x12e>
100407e2:	2301      	movs	r3, #1
100407e4:	1a1b      	subs	r3, r3, r0
100407e6:	2b1b      	cmp	r3, #27
100407e8:	dd00      	ble.n	100407ec <__aeabi_fdiv+0x1d0>
100407ea:	e76d      	b.n	100406c8 <__aeabi_fdiv+0xac>
100407ec:	0021      	movs	r1, r4
100407ee:	379e      	adds	r7, #158	@ 0x9e
100407f0:	40d9      	lsrs	r1, r3
100407f2:	40bc      	lsls	r4, r7
100407f4:	000b      	movs	r3, r1
100407f6:	1e61      	subs	r1, r4, #1
100407f8:	418c      	sbcs	r4, r1
100407fa:	4323      	orrs	r3, r4
100407fc:	0759      	lsls	r1, r3, #29
100407fe:	d004      	beq.n	1004080a <__aeabi_fdiv+0x1ee>
10040800:	210f      	movs	r1, #15
10040802:	4019      	ands	r1, r3
10040804:	2904      	cmp	r1, #4
10040806:	d000      	beq.n	1004080a <__aeabi_fdiv+0x1ee>
10040808:	3304      	adds	r3, #4
1004080a:	0159      	lsls	r1, r3, #5
1004080c:	d413      	bmi.n	10040836 <__aeabi_fdiv+0x21a>
1004080e:	019b      	lsls	r3, r3, #6
10040810:	2000      	movs	r0, #0
10040812:	0a5c      	lsrs	r4, r3, #9
10040814:	e75a      	b.n	100406cc <__aeabi_fdiv+0xb0>
10040816:	231a      	movs	r3, #26
10040818:	2401      	movs	r4, #1
1004081a:	1a2d      	subs	r5, r5, r0
1004081c:	e7d0      	b.n	100407c0 <__aeabi_fdiv+0x1a4>
1004081e:	1e98      	subs	r0, r3, #2
10040820:	4243      	negs	r3, r0
10040822:	4158      	adcs	r0, r3
10040824:	4240      	negs	r0, r0
10040826:	0032      	movs	r2, r6
10040828:	2400      	movs	r4, #0
1004082a:	b2c0      	uxtb	r0, r0
1004082c:	e74e      	b.n	100406cc <__aeabi_fdiv+0xb0>
1004082e:	4642      	mov	r2, r8
10040830:	20ff      	movs	r0, #255	@ 0xff
10040832:	2400      	movs	r4, #0
10040834:	e74a      	b.n	100406cc <__aeabi_fdiv+0xb0>
10040836:	2001      	movs	r0, #1
10040838:	2400      	movs	r4, #0
1004083a:	e747      	b.n	100406cc <__aeabi_fdiv+0xb0>
1004083c:	10049558 	.word	0x10049558
10040840:	10049598 	.word	0x10049598
10040844:	f7ffffff 	.word	0xf7ffffff

10040848 <__aeabi_fmul>:
10040848:	b5f0      	push	{r4, r5, r6, r7, lr}
1004084a:	464f      	mov	r7, r9
1004084c:	4646      	mov	r6, r8
1004084e:	46d6      	mov	lr, sl
10040850:	0245      	lsls	r5, r0, #9
10040852:	b5c0      	push	{r6, r7, lr}
10040854:	0046      	lsls	r6, r0, #1
10040856:	1c0f      	adds	r7, r1, #0
10040858:	0a6d      	lsrs	r5, r5, #9
1004085a:	0e36      	lsrs	r6, r6, #24
1004085c:	0fc4      	lsrs	r4, r0, #31
1004085e:	2e00      	cmp	r6, #0
10040860:	d100      	bne.n	10040864 <__aeabi_fmul+0x1c>
10040862:	e0cd      	b.n	10040a00 <__aeabi_fmul+0x1b8>
10040864:	2eff      	cmp	r6, #255	@ 0xff
10040866:	d072      	beq.n	1004094e <__aeabi_fmul+0x106>
10040868:	2380      	movs	r3, #128	@ 0x80
1004086a:	00ed      	lsls	r5, r5, #3
1004086c:	04db      	lsls	r3, r3, #19
1004086e:	431d      	orrs	r5, r3
10040870:	2300      	movs	r3, #0
10040872:	4699      	mov	r9, r3
10040874:	469a      	mov	sl, r3
10040876:	3e7f      	subs	r6, #127	@ 0x7f
10040878:	027b      	lsls	r3, r7, #9
1004087a:	0a5b      	lsrs	r3, r3, #9
1004087c:	4698      	mov	r8, r3
1004087e:	007b      	lsls	r3, r7, #1
10040880:	0e1b      	lsrs	r3, r3, #24
10040882:	0fff      	lsrs	r7, r7, #31
10040884:	2b00      	cmp	r3, #0
10040886:	d072      	beq.n	1004096e <__aeabi_fmul+0x126>
10040888:	2bff      	cmp	r3, #255	@ 0xff
1004088a:	d100      	bne.n	1004088e <__aeabi_fmul+0x46>
1004088c:	e0a9      	b.n	100409e2 <__aeabi_fmul+0x19a>
1004088e:	3b7f      	subs	r3, #127	@ 0x7f
10040890:	18f6      	adds	r6, r6, r3
10040892:	464b      	mov	r3, r9
10040894:	2b0a      	cmp	r3, #10
10040896:	dd00      	ble.n	1004089a <__aeabi_fmul+0x52>
10040898:	e085      	b.n	100409a6 <__aeabi_fmul+0x15e>
1004089a:	4643      	mov	r3, r8
1004089c:	2280      	movs	r2, #128	@ 0x80
1004089e:	00db      	lsls	r3, r3, #3
100408a0:	04d2      	lsls	r2, r2, #19
100408a2:	431a      	orrs	r2, r3
100408a4:	464b      	mov	r3, r9
100408a6:	4690      	mov	r8, r2
100408a8:	407c      	eors	r4, r7
100408aa:	2200      	movs	r2, #0
100408ac:	2b02      	cmp	r3, #2
100408ae:	dd0f      	ble.n	100408d0 <__aeabi_fmul+0x88>
100408b0:	4649      	mov	r1, r9
100408b2:	2301      	movs	r3, #1
100408b4:	408b      	lsls	r3, r1
100408b6:	21a6      	movs	r1, #166	@ 0xa6
100408b8:	00c9      	lsls	r1, r1, #3
100408ba:	420b      	tst	r3, r1
100408bc:	d000      	beq.n	100408c0 <__aeabi_fmul+0x78>
100408be:	e072      	b.n	100409a6 <__aeabi_fmul+0x15e>
100408c0:	2190      	movs	r1, #144	@ 0x90
100408c2:	0089      	lsls	r1, r1, #2
100408c4:	420b      	tst	r3, r1
100408c6:	d000      	beq.n	100408ca <__aeabi_fmul+0x82>
100408c8:	e0da      	b.n	10040a80 <__aeabi_fmul+0x238>
100408ca:	2188      	movs	r1, #136	@ 0x88
100408cc:	4219      	tst	r1, r3
100408ce:	d167      	bne.n	100409a0 <__aeabi_fmul+0x158>
100408d0:	0c28      	lsrs	r0, r5, #16
100408d2:	4642      	mov	r2, r8
100408d4:	042d      	lsls	r5, r5, #16
100408d6:	0c2d      	lsrs	r5, r5, #16
100408d8:	4643      	mov	r3, r8
100408da:	0029      	movs	r1, r5
100408dc:	0412      	lsls	r2, r2, #16
100408de:	0c1b      	lsrs	r3, r3, #16
100408e0:	0c12      	lsrs	r2, r2, #16
100408e2:	4351      	muls	r1, r2
100408e4:	435d      	muls	r5, r3
100408e6:	4342      	muls	r2, r0
100408e8:	4358      	muls	r0, r3
100408ea:	18ad      	adds	r5, r5, r2
100408ec:	0c0b      	lsrs	r3, r1, #16
100408ee:	195b      	adds	r3, r3, r5
100408f0:	429a      	cmp	r2, r3
100408f2:	d903      	bls.n	100408fc <__aeabi_fmul+0xb4>
100408f4:	2280      	movs	r2, #128	@ 0x80
100408f6:	0252      	lsls	r2, r2, #9
100408f8:	4694      	mov	ip, r2
100408fa:	4460      	add	r0, ip
100408fc:	0409      	lsls	r1, r1, #16
100408fe:	041a      	lsls	r2, r3, #16
10040900:	0c09      	lsrs	r1, r1, #16
10040902:	1852      	adds	r2, r2, r1
10040904:	0195      	lsls	r5, r2, #6
10040906:	1e69      	subs	r1, r5, #1
10040908:	418d      	sbcs	r5, r1
1004090a:	0c1b      	lsrs	r3, r3, #16
1004090c:	0e92      	lsrs	r2, r2, #26
1004090e:	181b      	adds	r3, r3, r0
10040910:	4315      	orrs	r5, r2
10040912:	019b      	lsls	r3, r3, #6
10040914:	431d      	orrs	r5, r3
10040916:	011b      	lsls	r3, r3, #4
10040918:	d500      	bpl.n	1004091c <__aeabi_fmul+0xd4>
1004091a:	e0cf      	b.n	10040abc <__aeabi_fmul+0x274>
1004091c:	0030      	movs	r0, r6
1004091e:	307f      	adds	r0, #127	@ 0x7f
10040920:	2800      	cmp	r0, #0
10040922:	dc00      	bgt.n	10040926 <__aeabi_fmul+0xde>
10040924:	e0b1      	b.n	10040a8a <__aeabi_fmul+0x242>
10040926:	076b      	lsls	r3, r5, #29
10040928:	d00b      	beq.n	10040942 <__aeabi_fmul+0xfa>
1004092a:	230f      	movs	r3, #15
1004092c:	0032      	movs	r2, r6
1004092e:	402b      	ands	r3, r5
10040930:	2b04      	cmp	r3, #4
10040932:	d006      	beq.n	10040942 <__aeabi_fmul+0xfa>
10040934:	3504      	adds	r5, #4
10040936:	012b      	lsls	r3, r5, #4
10040938:	d503      	bpl.n	10040942 <__aeabi_fmul+0xfa>
1004093a:	3280      	adds	r2, #128	@ 0x80
1004093c:	0010      	movs	r0, r2
1004093e:	4b6a      	ldr	r3, [pc, #424]	@ (10040ae8 <__aeabi_fmul+0x2a0>)
10040940:	401d      	ands	r5, r3
10040942:	28fe      	cmp	r0, #254	@ 0xfe
10040944:	dc64      	bgt.n	10040a10 <__aeabi_fmul+0x1c8>
10040946:	01ab      	lsls	r3, r5, #6
10040948:	0a5b      	lsrs	r3, r3, #9
1004094a:	b2c0      	uxtb	r0, r0
1004094c:	e01f      	b.n	1004098e <__aeabi_fmul+0x146>
1004094e:	2d00      	cmp	r5, #0
10040950:	d000      	beq.n	10040954 <__aeabi_fmul+0x10c>
10040952:	e08f      	b.n	10040a74 <__aeabi_fmul+0x22c>
10040954:	2308      	movs	r3, #8
10040956:	4699      	mov	r9, r3
10040958:	3b06      	subs	r3, #6
1004095a:	469a      	mov	sl, r3
1004095c:	027b      	lsls	r3, r7, #9
1004095e:	0a5b      	lsrs	r3, r3, #9
10040960:	4698      	mov	r8, r3
10040962:	007b      	lsls	r3, r7, #1
10040964:	26ff      	movs	r6, #255	@ 0xff
10040966:	0e1b      	lsrs	r3, r3, #24
10040968:	0fff      	lsrs	r7, r7, #31
1004096a:	2b00      	cmp	r3, #0
1004096c:	d18c      	bne.n	10040888 <__aeabi_fmul+0x40>
1004096e:	4643      	mov	r3, r8
10040970:	2b00      	cmp	r3, #0
10040972:	d15c      	bne.n	10040a2e <__aeabi_fmul+0x1e6>
10040974:	464a      	mov	r2, r9
10040976:	3301      	adds	r3, #1
10040978:	431a      	orrs	r2, r3
1004097a:	4691      	mov	r9, r2
1004097c:	0013      	movs	r3, r2
1004097e:	2a0a      	cmp	r2, #10
10040980:	dc11      	bgt.n	100409a6 <__aeabi_fmul+0x15e>
10040982:	2201      	movs	r2, #1
10040984:	407c      	eors	r4, r7
10040986:	2b02      	cmp	r3, #2
10040988:	dc92      	bgt.n	100408b0 <__aeabi_fmul+0x68>
1004098a:	2000      	movs	r0, #0
1004098c:	2300      	movs	r3, #0
1004098e:	05c0      	lsls	r0, r0, #23
10040990:	4318      	orrs	r0, r3
10040992:	07e4      	lsls	r4, r4, #31
10040994:	4320      	orrs	r0, r4
10040996:	bce0      	pop	{r5, r6, r7}
10040998:	46ba      	mov	sl, r7
1004099a:	46b1      	mov	r9, r6
1004099c:	46a8      	mov	r8, r5
1004099e:	bdf0      	pop	{r4, r5, r6, r7, pc}
100409a0:	003c      	movs	r4, r7
100409a2:	4645      	mov	r5, r8
100409a4:	4692      	mov	sl, r2
100409a6:	4653      	mov	r3, sl
100409a8:	2b02      	cmp	r3, #2
100409aa:	d031      	beq.n	10040a10 <__aeabi_fmul+0x1c8>
100409ac:	2b03      	cmp	r3, #3
100409ae:	d011      	beq.n	100409d4 <__aeabi_fmul+0x18c>
100409b0:	2b01      	cmp	r3, #1
100409b2:	d0ea      	beq.n	1004098a <__aeabi_fmul+0x142>
100409b4:	0030      	movs	r0, r6
100409b6:	3080      	adds	r0, #128	@ 0x80
100409b8:	1c72      	adds	r2, r6, #1
100409ba:	2800      	cmp	r0, #0
100409bc:	dd66      	ble.n	10040a8c <__aeabi_fmul+0x244>
100409be:	076b      	lsls	r3, r5, #29
100409c0:	d0b9      	beq.n	10040936 <__aeabi_fmul+0xee>
100409c2:	230f      	movs	r3, #15
100409c4:	402b      	ands	r3, r5
100409c6:	2b04      	cmp	r3, #4
100409c8:	d1b4      	bne.n	10040934 <__aeabi_fmul+0xec>
100409ca:	e7b4      	b.n	10040936 <__aeabi_fmul+0xee>
100409cc:	2a0f      	cmp	r2, #15
100409ce:	d07a      	beq.n	10040ac6 <__aeabi_fmul+0x27e>
100409d0:	003c      	movs	r4, r7
100409d2:	4645      	mov	r5, r8
100409d4:	2380      	movs	r3, #128	@ 0x80
100409d6:	03db      	lsls	r3, r3, #15
100409d8:	432b      	orrs	r3, r5
100409da:	025b      	lsls	r3, r3, #9
100409dc:	20ff      	movs	r0, #255	@ 0xff
100409de:	0a5b      	lsrs	r3, r3, #9
100409e0:	e7d5      	b.n	1004098e <__aeabi_fmul+0x146>
100409e2:	4643      	mov	r3, r8
100409e4:	36ff      	adds	r6, #255	@ 0xff
100409e6:	2b00      	cmp	r3, #0
100409e8:	d134      	bne.n	10040a54 <__aeabi_fmul+0x20c>
100409ea:	464a      	mov	r2, r9
100409ec:	3302      	adds	r3, #2
100409ee:	4313      	orrs	r3, r2
100409f0:	2b0a      	cmp	r3, #10
100409f2:	dcd8      	bgt.n	100409a6 <__aeabi_fmul+0x15e>
100409f4:	407c      	eors	r4, r7
100409f6:	2a00      	cmp	r2, #0
100409f8:	d00a      	beq.n	10040a10 <__aeabi_fmul+0x1c8>
100409fa:	4699      	mov	r9, r3
100409fc:	2202      	movs	r2, #2
100409fe:	e757      	b.n	100408b0 <__aeabi_fmul+0x68>
10040a00:	2d00      	cmp	r5, #0
10040a02:	d108      	bne.n	10040a16 <__aeabi_fmul+0x1ce>
10040a04:	2304      	movs	r3, #4
10040a06:	4699      	mov	r9, r3
10040a08:	3b03      	subs	r3, #3
10040a0a:	2600      	movs	r6, #0
10040a0c:	469a      	mov	sl, r3
10040a0e:	e733      	b.n	10040878 <__aeabi_fmul+0x30>
10040a10:	20ff      	movs	r0, #255	@ 0xff
10040a12:	2300      	movs	r3, #0
10040a14:	e7bb      	b.n	1004098e <__aeabi_fmul+0x146>
10040a16:	0028      	movs	r0, r5
10040a18:	f001 fed4 	bl	100427c4 <__clzsi2>
10040a1c:	2676      	movs	r6, #118	@ 0x76
10040a1e:	1f43      	subs	r3, r0, #5
10040a20:	409d      	lsls	r5, r3
10040a22:	2300      	movs	r3, #0
10040a24:	4276      	negs	r6, r6
10040a26:	4699      	mov	r9, r3
10040a28:	469a      	mov	sl, r3
10040a2a:	1a36      	subs	r6, r6, r0
10040a2c:	e724      	b.n	10040878 <__aeabi_fmul+0x30>
10040a2e:	4640      	mov	r0, r8
10040a30:	f001 fec8 	bl	100427c4 <__clzsi2>
10040a34:	464b      	mov	r3, r9
10040a36:	1a36      	subs	r6, r6, r0
10040a38:	3e76      	subs	r6, #118	@ 0x76
10040a3a:	2b0a      	cmp	r3, #10
10040a3c:	dcb3      	bgt.n	100409a6 <__aeabi_fmul+0x15e>
10040a3e:	4643      	mov	r3, r8
10040a40:	3805      	subs	r0, #5
10040a42:	4083      	lsls	r3, r0
10040a44:	4698      	mov	r8, r3
10040a46:	464b      	mov	r3, r9
10040a48:	2200      	movs	r2, #0
10040a4a:	407c      	eors	r4, r7
10040a4c:	2b02      	cmp	r3, #2
10040a4e:	dd00      	ble.n	10040a52 <__aeabi_fmul+0x20a>
10040a50:	e72e      	b.n	100408b0 <__aeabi_fmul+0x68>
10040a52:	e73d      	b.n	100408d0 <__aeabi_fmul+0x88>
10040a54:	2303      	movs	r3, #3
10040a56:	464a      	mov	r2, r9
10040a58:	431a      	orrs	r2, r3
10040a5a:	0013      	movs	r3, r2
10040a5c:	2a0a      	cmp	r2, #10
10040a5e:	dcb5      	bgt.n	100409cc <__aeabi_fmul+0x184>
10040a60:	2201      	movs	r2, #1
10040a62:	409a      	lsls	r2, r3
10040a64:	2188      	movs	r1, #136	@ 0x88
10040a66:	0013      	movs	r3, r2
10040a68:	407c      	eors	r4, r7
10040a6a:	2203      	movs	r2, #3
10040a6c:	4219      	tst	r1, r3
10040a6e:	d100      	bne.n	10040a72 <__aeabi_fmul+0x22a>
10040a70:	e72e      	b.n	100408d0 <__aeabi_fmul+0x88>
10040a72:	e795      	b.n	100409a0 <__aeabi_fmul+0x158>
10040a74:	230c      	movs	r3, #12
10040a76:	4699      	mov	r9, r3
10040a78:	3b09      	subs	r3, #9
10040a7a:	26ff      	movs	r6, #255	@ 0xff
10040a7c:	469a      	mov	sl, r3
10040a7e:	e6fb      	b.n	10040878 <__aeabi_fmul+0x30>
10040a80:	2380      	movs	r3, #128	@ 0x80
10040a82:	2400      	movs	r4, #0
10040a84:	20ff      	movs	r0, #255	@ 0xff
10040a86:	03db      	lsls	r3, r3, #15
10040a88:	e781      	b.n	1004098e <__aeabi_fmul+0x146>
10040a8a:	0032      	movs	r2, r6
10040a8c:	2301      	movs	r3, #1
10040a8e:	1a1b      	subs	r3, r3, r0
10040a90:	2b1b      	cmp	r3, #27
10040a92:	dd00      	ble.n	10040a96 <__aeabi_fmul+0x24e>
10040a94:	e779      	b.n	1004098a <__aeabi_fmul+0x142>
10040a96:	329e      	adds	r2, #158	@ 0x9e
10040a98:	0029      	movs	r1, r5
10040a9a:	4095      	lsls	r5, r2
10040a9c:	40d9      	lsrs	r1, r3
10040a9e:	1e6a      	subs	r2, r5, #1
10040aa0:	4195      	sbcs	r5, r2
10040aa2:	430d      	orrs	r5, r1
10040aa4:	076b      	lsls	r3, r5, #29
10040aa6:	d004      	beq.n	10040ab2 <__aeabi_fmul+0x26a>
10040aa8:	230f      	movs	r3, #15
10040aaa:	402b      	ands	r3, r5
10040aac:	2b04      	cmp	r3, #4
10040aae:	d000      	beq.n	10040ab2 <__aeabi_fmul+0x26a>
10040ab0:	3504      	adds	r5, #4
10040ab2:	016b      	lsls	r3, r5, #5
10040ab4:	d513      	bpl.n	10040ade <__aeabi_fmul+0x296>
10040ab6:	2001      	movs	r0, #1
10040ab8:	2300      	movs	r3, #0
10040aba:	e768      	b.n	1004098e <__aeabi_fmul+0x146>
10040abc:	2301      	movs	r3, #1
10040abe:	086a      	lsrs	r2, r5, #1
10040ac0:	401d      	ands	r5, r3
10040ac2:	4315      	orrs	r5, r2
10040ac4:	e776      	b.n	100409b4 <__aeabi_fmul+0x16c>
10040ac6:	2380      	movs	r3, #128	@ 0x80
10040ac8:	03db      	lsls	r3, r3, #15
10040aca:	421d      	tst	r5, r3
10040acc:	d082      	beq.n	100409d4 <__aeabi_fmul+0x18c>
10040ace:	4642      	mov	r2, r8
10040ad0:	421a      	tst	r2, r3
10040ad2:	d000      	beq.n	10040ad6 <__aeabi_fmul+0x28e>
10040ad4:	e77e      	b.n	100409d4 <__aeabi_fmul+0x18c>
10040ad6:	003c      	movs	r4, r7
10040ad8:	20ff      	movs	r0, #255	@ 0xff
10040ada:	4313      	orrs	r3, r2
10040adc:	e757      	b.n	1004098e <__aeabi_fmul+0x146>
10040ade:	01ab      	lsls	r3, r5, #6
10040ae0:	2000      	movs	r0, #0
10040ae2:	0a5b      	lsrs	r3, r3, #9
10040ae4:	e753      	b.n	1004098e <__aeabi_fmul+0x146>
10040ae6:	46c0      	nop			@ (mov r8, r8)
10040ae8:	f7ffffff 	.word	0xf7ffffff

10040aec <__aeabi_fsub>:
10040aec:	b5f8      	push	{r3, r4, r5, r6, r7, lr}
10040aee:	4647      	mov	r7, r8
10040af0:	46ce      	mov	lr, r9
10040af2:	024b      	lsls	r3, r1, #9
10040af4:	0046      	lsls	r6, r0, #1
10040af6:	b580      	push	{r7, lr}
10040af8:	0fc4      	lsrs	r4, r0, #31
10040afa:	0247      	lsls	r7, r0, #9
10040afc:	0a58      	lsrs	r0, r3, #9
10040afe:	4684      	mov	ip, r0
10040b00:	0048      	lsls	r0, r1, #1
10040b02:	0a7a      	lsrs	r2, r7, #9
10040b04:	0e36      	lsrs	r6, r6, #24
10040b06:	09bf      	lsrs	r7, r7, #6
10040b08:	0e00      	lsrs	r0, r0, #24
10040b0a:	0fcd      	lsrs	r5, r1, #31
10040b0c:	099b      	lsrs	r3, r3, #6
10040b0e:	28ff      	cmp	r0, #255	@ 0xff
10040b10:	d06d      	beq.n	10040bee <__aeabi_fsub+0x102>
10040b12:	2101      	movs	r1, #1
10040b14:	404d      	eors	r5, r1
10040b16:	1a31      	subs	r1, r6, r0
10040b18:	42ac      	cmp	r4, r5
10040b1a:	d03a      	beq.n	10040b92 <__aeabi_fsub+0xa6>
10040b1c:	2900      	cmp	r1, #0
10040b1e:	dc00      	bgt.n	10040b22 <__aeabi_fsub+0x36>
10040b20:	e19c      	b.n	10040e5c <__aeabi_fsub+0x370>
10040b22:	2800      	cmp	r0, #0
10040b24:	d100      	bne.n	10040b28 <__aeabi_fsub+0x3c>
10040b26:	e09e      	b.n	10040c66 <__aeabi_fsub+0x17a>
10040b28:	2eff      	cmp	r6, #255	@ 0xff
10040b2a:	d100      	bne.n	10040b2e <__aeabi_fsub+0x42>
10040b2c:	e088      	b.n	10040c40 <__aeabi_fsub+0x154>
10040b2e:	2280      	movs	r2, #128	@ 0x80
10040b30:	04d2      	lsls	r2, r2, #19
10040b32:	4313      	orrs	r3, r2
10040b34:	291b      	cmp	r1, #27
10040b36:	dc00      	bgt.n	10040b3a <__aeabi_fsub+0x4e>
10040b38:	e0f6      	b.n	10040d28 <__aeabi_fsub+0x23c>
10040b3a:	3f01      	subs	r7, #1
10040b3c:	017a      	lsls	r2, r7, #5
10040b3e:	d400      	bmi.n	10040b42 <__aeabi_fsub+0x56>
10040b40:	e079      	b.n	10040c36 <__aeabi_fsub+0x14a>
10040b42:	2701      	movs	r7, #1
10040b44:	427f      	negs	r7, r7
10040b46:	01bf      	lsls	r7, r7, #6
10040b48:	09bb      	lsrs	r3, r7, #6
10040b4a:	4698      	mov	r8, r3
10040b4c:	4640      	mov	r0, r8
10040b4e:	f001 fe39 	bl	100427c4 <__clzsi2>
10040b52:	4643      	mov	r3, r8
10040b54:	3805      	subs	r0, #5
10040b56:	4083      	lsls	r3, r0
10040b58:	4286      	cmp	r6, r0
10040b5a:	dc00      	bgt.n	10040b5e <__aeabi_fsub+0x72>
10040b5c:	e0cc      	b.n	10040cf8 <__aeabi_fsub+0x20c>
10040b5e:	4fb4      	ldr	r7, [pc, #720]	@ (10040e30 <__aeabi_fsub+0x344>)
10040b60:	1a31      	subs	r1, r6, r0
10040b62:	401f      	ands	r7, r3
10040b64:	075a      	lsls	r2, r3, #29
10040b66:	d068      	beq.n	10040c3a <__aeabi_fsub+0x14e>
10040b68:	220f      	movs	r2, #15
10040b6a:	4013      	ands	r3, r2
10040b6c:	2b04      	cmp	r3, #4
10040b6e:	d064      	beq.n	10040c3a <__aeabi_fsub+0x14e>
10040b70:	3704      	adds	r7, #4
10040b72:	017b      	lsls	r3, r7, #5
10040b74:	d561      	bpl.n	10040c3a <__aeabi_fsub+0x14e>
10040b76:	1c48      	adds	r0, r1, #1
10040b78:	29fe      	cmp	r1, #254	@ 0xfe
10040b7a:	d000      	beq.n	10040b7e <__aeabi_fsub+0x92>
10040b7c:	e081      	b.n	10040c82 <__aeabi_fsub+0x196>
10040b7e:	20ff      	movs	r0, #255	@ 0xff
10040b80:	2300      	movs	r3, #0
10040b82:	05c0      	lsls	r0, r0, #23
10040b84:	4318      	orrs	r0, r3
10040b86:	07e4      	lsls	r4, r4, #31
10040b88:	4320      	orrs	r0, r4
10040b8a:	bcc0      	pop	{r6, r7}
10040b8c:	46b9      	mov	r9, r7
10040b8e:	46b0      	mov	r8, r6
10040b90:	bdf8      	pop	{r3, r4, r5, r6, r7, pc}
10040b92:	2900      	cmp	r1, #0
10040b94:	dc00      	bgt.n	10040b98 <__aeabi_fsub+0xac>
10040b96:	e179      	b.n	10040e8c <__aeabi_fsub+0x3a0>
10040b98:	2800      	cmp	r0, #0
10040b9a:	d176      	bne.n	10040c8a <__aeabi_fsub+0x19e>
10040b9c:	2b00      	cmp	r3, #0
10040b9e:	d04c      	beq.n	10040c3a <__aeabi_fsub+0x14e>
10040ba0:	1e48      	subs	r0, r1, #1
10040ba2:	2901      	cmp	r1, #1
10040ba4:	d100      	bne.n	10040ba8 <__aeabi_fsub+0xbc>
10040ba6:	e147      	b.n	10040e38 <__aeabi_fsub+0x34c>
10040ba8:	29ff      	cmp	r1, #255	@ 0xff
10040baa:	d049      	beq.n	10040c40 <__aeabi_fsub+0x154>
10040bac:	281b      	cmp	r0, #27
10040bae:	dc71      	bgt.n	10040c94 <__aeabi_fsub+0x1a8>
10040bb0:	0001      	movs	r1, r0
10040bb2:	001a      	movs	r2, r3
10040bb4:	2020      	movs	r0, #32
10040bb6:	40ca      	lsrs	r2, r1
10040bb8:	1a41      	subs	r1, r0, r1
10040bba:	408b      	lsls	r3, r1
10040bbc:	1e59      	subs	r1, r3, #1
10040bbe:	418b      	sbcs	r3, r1
10040bc0:	4313      	orrs	r3, r2
10040bc2:	18ff      	adds	r7, r7, r3
10040bc4:	2380      	movs	r3, #128	@ 0x80
10040bc6:	04db      	lsls	r3, r3, #19
10040bc8:	421f      	tst	r7, r3
10040bca:	d100      	bne.n	10040bce <__aeabi_fsub+0xe2>
10040bcc:	e0b8      	b.n	10040d40 <__aeabi_fsub+0x254>
10040bce:	1c71      	adds	r1, r6, #1
10040bd0:	2efe      	cmp	r6, #254	@ 0xfe
10040bd2:	d0d4      	beq.n	10040b7e <__aeabi_fsub+0x92>
10040bd4:	2201      	movs	r2, #1
10040bd6:	4897      	ldr	r0, [pc, #604]	@ (10040e34 <__aeabi_fsub+0x348>)
10040bd8:	403a      	ands	r2, r7
10040bda:	087f      	lsrs	r7, r7, #1
10040bdc:	4007      	ands	r7, r0
10040bde:	4317      	orrs	r7, r2
10040be0:	077a      	lsls	r2, r7, #29
10040be2:	d000      	beq.n	10040be6 <__aeabi_fsub+0xfa>
10040be4:	e096      	b.n	10040d14 <__aeabi_fsub+0x228>
10040be6:	421f      	tst	r7, r3
10040be8:	d1c5      	bne.n	10040b76 <__aeabi_fsub+0x8a>
10040bea:	08fa      	lsrs	r2, r7, #3
10040bec:	e055      	b.n	10040c9a <__aeabi_fsub+0x1ae>
10040bee:	0031      	movs	r1, r6
10040bf0:	39ff      	subs	r1, #255	@ 0xff
10040bf2:	4689      	mov	r9, r1
10040bf4:	2b00      	cmp	r3, #0
10040bf6:	d12c      	bne.n	10040c52 <__aeabi_fsub+0x166>
10040bf8:	2101      	movs	r1, #1
10040bfa:	404d      	eors	r5, r1
10040bfc:	42ac      	cmp	r4, r5
10040bfe:	d100      	bne.n	10040c02 <__aeabi_fsub+0x116>
10040c00:	e0b4      	b.n	10040d6c <__aeabi_fsub+0x280>
10040c02:	4649      	mov	r1, r9
10040c04:	2900      	cmp	r1, #0
10040c06:	d04c      	beq.n	10040ca2 <__aeabi_fsub+0x1b6>
10040c08:	2e00      	cmp	r6, #0
10040c0a:	d000      	beq.n	10040c0e <__aeabi_fsub+0x122>
10040c0c:	e0f9      	b.n	10040e02 <__aeabi_fsub+0x316>
10040c0e:	21ff      	movs	r1, #255	@ 0xff
10040c10:	2f00      	cmp	r7, #0
10040c12:	d100      	bne.n	10040c16 <__aeabi_fsub+0x12a>
10040c14:	e108      	b.n	10040e28 <__aeabi_fsub+0x33c>
10040c16:	1e4a      	subs	r2, r1, #1
10040c18:	2901      	cmp	r1, #1
10040c1a:	d100      	bne.n	10040c1e <__aeabi_fsub+0x132>
10040c1c:	e156      	b.n	10040ecc <__aeabi_fsub+0x3e0>
10040c1e:	29ff      	cmp	r1, #255	@ 0xff
10040c20:	d100      	bne.n	10040c24 <__aeabi_fsub+0x138>
10040c22:	e142      	b.n	10040eaa <__aeabi_fsub+0x3be>
10040c24:	2a1b      	cmp	r2, #27
10040c26:	dc00      	bgt.n	10040c2a <__aeabi_fsub+0x13e>
10040c28:	e124      	b.n	10040e74 <__aeabi_fsub+0x388>
10040c2a:	1e5f      	subs	r7, r3, #1
10040c2c:	002c      	movs	r4, r5
10040c2e:	0006      	movs	r6, r0
10040c30:	017a      	lsls	r2, r7, #5
10040c32:	d500      	bpl.n	10040c36 <__aeabi_fsub+0x14a>
10040c34:	e785      	b.n	10040b42 <__aeabi_fsub+0x56>
10040c36:	0031      	movs	r1, r6
10040c38:	3704      	adds	r7, #4
10040c3a:	08fa      	lsrs	r2, r7, #3
10040c3c:	29ff      	cmp	r1, #255	@ 0xff
10040c3e:	d12c      	bne.n	10040c9a <__aeabi_fsub+0x1ae>
10040c40:	2a00      	cmp	r2, #0
10040c42:	d09c      	beq.n	10040b7e <__aeabi_fsub+0x92>
10040c44:	2380      	movs	r3, #128	@ 0x80
10040c46:	03db      	lsls	r3, r3, #15
10040c48:	4313      	orrs	r3, r2
10040c4a:	025b      	lsls	r3, r3, #9
10040c4c:	20ff      	movs	r0, #255	@ 0xff
10040c4e:	0a5b      	lsrs	r3, r3, #9
10040c50:	e797      	b.n	10040b82 <__aeabi_fsub+0x96>
10040c52:	42ac      	cmp	r4, r5
10040c54:	d100      	bne.n	10040c58 <__aeabi_fsub+0x16c>
10040c56:	e0a7      	b.n	10040da8 <__aeabi_fsub+0x2bc>
10040c58:	2900      	cmp	r1, #0
10040c5a:	d022      	beq.n	10040ca2 <__aeabi_fsub+0x1b6>
10040c5c:	2e00      	cmp	r6, #0
10040c5e:	d0d6      	beq.n	10040c0e <__aeabi_fsub+0x122>
10040c60:	4662      	mov	r2, ip
10040c62:	002c      	movs	r4, r5
10040c64:	e7ee      	b.n	10040c44 <__aeabi_fsub+0x158>
10040c66:	2b00      	cmp	r3, #0
10040c68:	d0e7      	beq.n	10040c3a <__aeabi_fsub+0x14e>
10040c6a:	1e48      	subs	r0, r1, #1
10040c6c:	2901      	cmp	r1, #1
10040c6e:	d036      	beq.n	10040cde <__aeabi_fsub+0x1f2>
10040c70:	29ff      	cmp	r1, #255	@ 0xff
10040c72:	d0e5      	beq.n	10040c40 <__aeabi_fsub+0x154>
10040c74:	0001      	movs	r1, r0
10040c76:	e75d      	b.n	10040b34 <__aeabi_fsub+0x48>
10040c78:	2001      	movs	r0, #1
10040c7a:	003b      	movs	r3, r7
10040c7c:	017a      	lsls	r2, r7, #5
10040c7e:	d400      	bmi.n	10040c82 <__aeabi_fsub+0x196>
10040c80:	e157      	b.n	10040f32 <__aeabi_fsub+0x446>
10040c82:	b2c0      	uxtb	r0, r0
10040c84:	01bb      	lsls	r3, r7, #6
10040c86:	0a5b      	lsrs	r3, r3, #9
10040c88:	e77b      	b.n	10040b82 <__aeabi_fsub+0x96>
10040c8a:	2eff      	cmp	r6, #255	@ 0xff
10040c8c:	d0d8      	beq.n	10040c40 <__aeabi_fsub+0x154>
10040c8e:	291b      	cmp	r1, #27
10040c90:	dc00      	bgt.n	10040c94 <__aeabi_fsub+0x1a8>
10040c92:	e09f      	b.n	10040dd4 <__aeabi_fsub+0x2e8>
10040c94:	0031      	movs	r1, r6
10040c96:	3705      	adds	r7, #5
10040c98:	08fa      	lsrs	r2, r7, #3
10040c9a:	0253      	lsls	r3, r2, #9
10040c9c:	0a5b      	lsrs	r3, r3, #9
10040c9e:	b2c8      	uxtb	r0, r1
10040ca0:	e76f      	b.n	10040b82 <__aeabi_fsub+0x96>
10040ca2:	20fe      	movs	r0, #254	@ 0xfe
10040ca4:	1c71      	adds	r1, r6, #1
10040ca6:	4208      	tst	r0, r1
10040ca8:	d154      	bne.n	10040d54 <__aeabi_fsub+0x268>
10040caa:	2e00      	cmp	r6, #0
10040cac:	d000      	beq.n	10040cb0 <__aeabi_fsub+0x1c4>
10040cae:	e0b1      	b.n	10040e14 <__aeabi_fsub+0x328>
10040cb0:	2f00      	cmp	r7, #0
10040cb2:	d100      	bne.n	10040cb6 <__aeabi_fsub+0x1ca>
10040cb4:	e102      	b.n	10040ebc <__aeabi_fsub+0x3d0>
10040cb6:	2b00      	cmp	r3, #0
10040cb8:	d100      	bne.n	10040cbc <__aeabi_fsub+0x1d0>
10040cba:	e0f9      	b.n	10040eb0 <__aeabi_fsub+0x3c4>
10040cbc:	2180      	movs	r1, #128	@ 0x80
10040cbe:	1afa      	subs	r2, r7, r3
10040cc0:	04c9      	lsls	r1, r1, #19
10040cc2:	420a      	tst	r2, r1
10040cc4:	d100      	bne.n	10040cc8 <__aeabi_fsub+0x1dc>
10040cc6:	e13b      	b.n	10040f40 <__aeabi_fsub+0x454>
10040cc8:	2401      	movs	r4, #1
10040cca:	1bdf      	subs	r7, r3, r7
10040ccc:	402c      	ands	r4, r5
10040cce:	2f00      	cmp	r7, #0
10040cd0:	d049      	beq.n	10040d66 <__aeabi_fsub+0x27a>
10040cd2:	2001      	movs	r0, #1
10040cd4:	420f      	tst	r7, r1
10040cd6:	d1d5      	bne.n	10040c84 <__aeabi_fsub+0x198>
10040cd8:	2100      	movs	r1, #0
10040cda:	08fa      	lsrs	r2, r7, #3
10040cdc:	e7dd      	b.n	10040c9a <__aeabi_fsub+0x1ae>
10040cde:	1aff      	subs	r7, r7, r3
10040ce0:	017b      	lsls	r3, r7, #5
10040ce2:	d400      	bmi.n	10040ce6 <__aeabi_fsub+0x1fa>
10040ce4:	e0de      	b.n	10040ea4 <__aeabi_fsub+0x3b8>
10040ce6:	01bd      	lsls	r5, r7, #6
10040ce8:	09ad      	lsrs	r5, r5, #6
10040cea:	0028      	movs	r0, r5
10040cec:	f001 fd6a 	bl	100427c4 <__clzsi2>
10040cf0:	002b      	movs	r3, r5
10040cf2:	3805      	subs	r0, #5
10040cf4:	4083      	lsls	r3, r0
10040cf6:	2601      	movs	r6, #1
10040cf8:	2220      	movs	r2, #32
10040cfa:	1b81      	subs	r1, r0, r6
10040cfc:	3101      	adds	r1, #1
10040cfe:	1a52      	subs	r2, r2, r1
10040d00:	001f      	movs	r7, r3
10040d02:	4093      	lsls	r3, r2
10040d04:	40cf      	lsrs	r7, r1
10040d06:	1e5a      	subs	r2, r3, #1
10040d08:	4193      	sbcs	r3, r2
10040d0a:	431f      	orrs	r7, r3
10040d0c:	d02b      	beq.n	10040d66 <__aeabi_fsub+0x27a>
10040d0e:	2100      	movs	r1, #0
10040d10:	077b      	lsls	r3, r7, #29
10040d12:	d0b1      	beq.n	10040c78 <__aeabi_fsub+0x18c>
10040d14:	230f      	movs	r3, #15
10040d16:	403b      	ands	r3, r7
10040d18:	2b04      	cmp	r3, #4
10040d1a:	d000      	beq.n	10040d1e <__aeabi_fsub+0x232>
10040d1c:	e728      	b.n	10040b70 <__aeabi_fsub+0x84>
10040d1e:	017b      	lsls	r3, r7, #5
10040d20:	d500      	bpl.n	10040d24 <__aeabi_fsub+0x238>
10040d22:	e728      	b.n	10040b76 <__aeabi_fsub+0x8a>
10040d24:	08fa      	lsrs	r2, r7, #3
10040d26:	e7b8      	b.n	10040c9a <__aeabi_fsub+0x1ae>
10040d28:	001a      	movs	r2, r3
10040d2a:	2020      	movs	r0, #32
10040d2c:	40ca      	lsrs	r2, r1
10040d2e:	1a41      	subs	r1, r0, r1
10040d30:	408b      	lsls	r3, r1
10040d32:	1e59      	subs	r1, r3, #1
10040d34:	418b      	sbcs	r3, r1
10040d36:	4313      	orrs	r3, r2
10040d38:	1aff      	subs	r7, r7, r3
10040d3a:	017b      	lsls	r3, r7, #5
10040d3c:	d500      	bpl.n	10040d40 <__aeabi_fsub+0x254>
10040d3e:	e702      	b.n	10040b46 <__aeabi_fsub+0x5a>
10040d40:	077b      	lsls	r3, r7, #29
10040d42:	d100      	bne.n	10040d46 <__aeabi_fsub+0x25a>
10040d44:	e10d      	b.n	10040f62 <__aeabi_fsub+0x476>
10040d46:	230f      	movs	r3, #15
10040d48:	0031      	movs	r1, r6
10040d4a:	403b      	ands	r3, r7
10040d4c:	2b04      	cmp	r3, #4
10040d4e:	d000      	beq.n	10040d52 <__aeabi_fsub+0x266>
10040d50:	e70e      	b.n	10040b70 <__aeabi_fsub+0x84>
10040d52:	e772      	b.n	10040c3a <__aeabi_fsub+0x14e>
10040d54:	1afa      	subs	r2, r7, r3
10040d56:	4690      	mov	r8, r2
10040d58:	0152      	lsls	r2, r2, #5
10040d5a:	d456      	bmi.n	10040e0a <__aeabi_fsub+0x31e>
10040d5c:	4643      	mov	r3, r8
10040d5e:	2b00      	cmp	r3, #0
10040d60:	d000      	beq.n	10040d64 <__aeabi_fsub+0x278>
10040d62:	e6f3      	b.n	10040b4c <__aeabi_fsub+0x60>
10040d64:	2400      	movs	r4, #0
10040d66:	2000      	movs	r0, #0
10040d68:	2300      	movs	r3, #0
10040d6a:	e70a      	b.n	10040b82 <__aeabi_fsub+0x96>
10040d6c:	4649      	mov	r1, r9
10040d6e:	2900      	cmp	r1, #0
10040d70:	d01c      	beq.n	10040dac <__aeabi_fsub+0x2c0>
10040d72:	2e00      	cmp	r6, #0
10040d74:	d000      	beq.n	10040d78 <__aeabi_fsub+0x28c>
10040d76:	e702      	b.n	10040b7e <__aeabi_fsub+0x92>
10040d78:	21ff      	movs	r1, #255	@ 0xff
10040d7a:	2f00      	cmp	r7, #0
10040d7c:	d055      	beq.n	10040e2a <__aeabi_fsub+0x33e>
10040d7e:	1e4a      	subs	r2, r1, #1
10040d80:	2901      	cmp	r1, #1
10040d82:	d059      	beq.n	10040e38 <__aeabi_fsub+0x34c>
10040d84:	29ff      	cmp	r1, #255	@ 0xff
10040d86:	d100      	bne.n	10040d8a <__aeabi_fsub+0x29e>
10040d88:	e090      	b.n	10040eac <__aeabi_fsub+0x3c0>
10040d8a:	2a1b      	cmp	r2, #27
10040d8c:	dd00      	ble.n	10040d90 <__aeabi_fsub+0x2a4>
10040d8e:	e091      	b.n	10040eb4 <__aeabi_fsub+0x3c8>
10040d90:	0011      	movs	r1, r2
10040d92:	003a      	movs	r2, r7
10040d94:	2520      	movs	r5, #32
10040d96:	40ca      	lsrs	r2, r1
10040d98:	1a69      	subs	r1, r5, r1
10040d9a:	408f      	lsls	r7, r1
10040d9c:	1e79      	subs	r1, r7, #1
10040d9e:	418f      	sbcs	r7, r1
10040da0:	4317      	orrs	r7, r2
10040da2:	0006      	movs	r6, r0
10040da4:	18ff      	adds	r7, r7, r3
10040da6:	e70d      	b.n	10040bc4 <__aeabi_fsub+0xd8>
10040da8:	2900      	cmp	r1, #0
10040daa:	d126      	bne.n	10040dfa <__aeabi_fsub+0x30e>
10040dac:	20fe      	movs	r0, #254	@ 0xfe
10040dae:	1c71      	adds	r1, r6, #1
10040db0:	4208      	tst	r0, r1
10040db2:	d113      	bne.n	10040ddc <__aeabi_fsub+0x2f0>
10040db4:	2e00      	cmp	r6, #0
10040db6:	d000      	beq.n	10040dba <__aeabi_fsub+0x2ce>
10040db8:	e096      	b.n	10040ee8 <__aeabi_fsub+0x3fc>
10040dba:	2f00      	cmp	r7, #0
10040dbc:	d100      	bne.n	10040dc0 <__aeabi_fsub+0x2d4>
10040dbe:	e0b4      	b.n	10040f2a <__aeabi_fsub+0x43e>
10040dc0:	2b00      	cmp	r3, #0
10040dc2:	d075      	beq.n	10040eb0 <__aeabi_fsub+0x3c4>
10040dc4:	18fb      	adds	r3, r7, r3
10040dc6:	015a      	lsls	r2, r3, #5
10040dc8:	d400      	bmi.n	10040dcc <__aeabi_fsub+0x2e0>
10040dca:	e0b2      	b.n	10040f32 <__aeabi_fsub+0x446>
10040dcc:	019b      	lsls	r3, r3, #6
10040dce:	0a5b      	lsrs	r3, r3, #9
10040dd0:	38fd      	subs	r0, #253	@ 0xfd
10040dd2:	e6d6      	b.n	10040b82 <__aeabi_fsub+0x96>
10040dd4:	2280      	movs	r2, #128	@ 0x80
10040dd6:	04d2      	lsls	r2, r2, #19
10040dd8:	4313      	orrs	r3, r2
10040dda:	e6ea      	b.n	10040bb2 <__aeabi_fsub+0xc6>
10040ddc:	29ff      	cmp	r1, #255	@ 0xff
10040dde:	d100      	bne.n	10040de2 <__aeabi_fsub+0x2f6>
10040de0:	e6cd      	b.n	10040b7e <__aeabi_fsub+0x92>
10040de2:	18fa      	adds	r2, r7, r3
10040de4:	0852      	lsrs	r2, r2, #1
10040de6:	0753      	lsls	r3, r2, #29
10040de8:	d005      	beq.n	10040df6 <__aeabi_fsub+0x30a>
10040dea:	230f      	movs	r3, #15
10040dec:	1d17      	adds	r7, r2, #4
10040dee:	4013      	ands	r3, r2
10040df0:	2b04      	cmp	r3, #4
10040df2:	d000      	beq.n	10040df6 <__aeabi_fsub+0x30a>
10040df4:	e721      	b.n	10040c3a <__aeabi_fsub+0x14e>
10040df6:	08d2      	lsrs	r2, r2, #3
10040df8:	e74f      	b.n	10040c9a <__aeabi_fsub+0x1ae>
10040dfa:	2e00      	cmp	r6, #0
10040dfc:	d0bc      	beq.n	10040d78 <__aeabi_fsub+0x28c>
10040dfe:	4662      	mov	r2, ip
10040e00:	e720      	b.n	10040c44 <__aeabi_fsub+0x158>
10040e02:	002c      	movs	r4, r5
10040e04:	20ff      	movs	r0, #255	@ 0xff
10040e06:	2300      	movs	r3, #0
10040e08:	e6bb      	b.n	10040b82 <__aeabi_fsub+0x96>
10040e0a:	2401      	movs	r4, #1
10040e0c:	1bdb      	subs	r3, r3, r7
10040e0e:	4698      	mov	r8, r3
10040e10:	402c      	ands	r4, r5
10040e12:	e69b      	b.n	10040b4c <__aeabi_fsub+0x60>
10040e14:	2f00      	cmp	r7, #0
10040e16:	d175      	bne.n	10040f04 <__aeabi_fsub+0x418>
10040e18:	2b00      	cmp	r3, #0
10040e1a:	d000      	beq.n	10040e1e <__aeabi_fsub+0x332>
10040e1c:	e096      	b.n	10040f4c <__aeabi_fsub+0x460>
10040e1e:	2380      	movs	r3, #128	@ 0x80
10040e20:	2400      	movs	r4, #0
10040e22:	20ff      	movs	r0, #255	@ 0xff
10040e24:	03db      	lsls	r3, r3, #15
10040e26:	e6ac      	b.n	10040b82 <__aeabi_fsub+0x96>
10040e28:	002c      	movs	r4, r5
10040e2a:	001f      	movs	r7, r3
10040e2c:	e705      	b.n	10040c3a <__aeabi_fsub+0x14e>
10040e2e:	46c0      	nop			@ (mov r8, r8)
10040e30:	fbffffff 	.word	0xfbffffff
10040e34:	7dffffff 	.word	0x7dffffff
10040e38:	18fb      	adds	r3, r7, r3
10040e3a:	015a      	lsls	r2, r3, #5
10040e3c:	d400      	bmi.n	10040e40 <__aeabi_fsub+0x354>
10040e3e:	e08d      	b.n	10040f5c <__aeabi_fsub+0x470>
10040e40:	4a4a      	ldr	r2, [pc, #296]	@ (10040f6c <__aeabi_fsub+0x480>)
10040e42:	085b      	lsrs	r3, r3, #1
10040e44:	401a      	ands	r2, r3
10040e46:	0759      	lsls	r1, r3, #29
10040e48:	d100      	bne.n	10040e4c <__aeabi_fsub+0x360>
10040e4a:	e08c      	b.n	10040f66 <__aeabi_fsub+0x47a>
10040e4c:	210f      	movs	r1, #15
10040e4e:	400b      	ands	r3, r1
10040e50:	390d      	subs	r1, #13
10040e52:	2b04      	cmp	r3, #4
10040e54:	d0cf      	beq.n	10040df6 <__aeabi_fsub+0x30a>
10040e56:	2102      	movs	r1, #2
10040e58:	1d17      	adds	r7, r2, #4
10040e5a:	e6ee      	b.n	10040c3a <__aeabi_fsub+0x14e>
10040e5c:	2900      	cmp	r1, #0
10040e5e:	d100      	bne.n	10040e62 <__aeabi_fsub+0x376>
10040e60:	e71f      	b.n	10040ca2 <__aeabi_fsub+0x1b6>
10040e62:	1b82      	subs	r2, r0, r6
10040e64:	0011      	movs	r1, r2
10040e66:	2e00      	cmp	r6, #0
10040e68:	d100      	bne.n	10040e6c <__aeabi_fsub+0x380>
10040e6a:	e6d1      	b.n	10040c10 <__aeabi_fsub+0x124>
10040e6c:	2180      	movs	r1, #128	@ 0x80
10040e6e:	04c9      	lsls	r1, r1, #19
10040e70:	430f      	orrs	r7, r1
10040e72:	e6d7      	b.n	10040c24 <__aeabi_fsub+0x138>
10040e74:	0039      	movs	r1, r7
10040e76:	2420      	movs	r4, #32
10040e78:	40d1      	lsrs	r1, r2
10040e7a:	1aa2      	subs	r2, r4, r2
10040e7c:	4097      	lsls	r7, r2
10040e7e:	1e7a      	subs	r2, r7, #1
10040e80:	4197      	sbcs	r7, r2
10040e82:	430f      	orrs	r7, r1
10040e84:	002c      	movs	r4, r5
10040e86:	0006      	movs	r6, r0
10040e88:	1bdf      	subs	r7, r3, r7
10040e8a:	e756      	b.n	10040d3a <__aeabi_fsub+0x24e>
10040e8c:	2900      	cmp	r1, #0
10040e8e:	d08d      	beq.n	10040dac <__aeabi_fsub+0x2c0>
10040e90:	1b81      	subs	r1, r0, r6
10040e92:	2e00      	cmp	r6, #0
10040e94:	d100      	bne.n	10040e98 <__aeabi_fsub+0x3ac>
10040e96:	e770      	b.n	10040d7a <__aeabi_fsub+0x28e>
10040e98:	291b      	cmp	r1, #27
10040e9a:	dc0b      	bgt.n	10040eb4 <__aeabi_fsub+0x3c8>
10040e9c:	2280      	movs	r2, #128	@ 0x80
10040e9e:	04d2      	lsls	r2, r2, #19
10040ea0:	4317      	orrs	r7, r2
10040ea2:	e776      	b.n	10040d92 <__aeabi_fsub+0x2a6>
10040ea4:	2101      	movs	r1, #1
10040ea6:	08fa      	lsrs	r2, r7, #3
10040ea8:	e6f7      	b.n	10040c9a <__aeabi_fsub+0x1ae>
10040eaa:	002c      	movs	r4, r5
10040eac:	4662      	mov	r2, ip
10040eae:	e6c7      	b.n	10040c40 <__aeabi_fsub+0x154>
10040eb0:	2100      	movs	r1, #0
10040eb2:	e6f2      	b.n	10040c9a <__aeabi_fsub+0x1ae>
10040eb4:	3305      	adds	r3, #5
10040eb6:	0001      	movs	r1, r0
10040eb8:	08da      	lsrs	r2, r3, #3
10040eba:	e6ee      	b.n	10040c9a <__aeabi_fsub+0x1ae>
10040ebc:	2b00      	cmp	r3, #0
10040ebe:	d100      	bne.n	10040ec2 <__aeabi_fsub+0x3d6>
10040ec0:	e750      	b.n	10040d64 <__aeabi_fsub+0x278>
10040ec2:	2401      	movs	r4, #1
10040ec4:	2100      	movs	r1, #0
10040ec6:	4662      	mov	r2, ip
10040ec8:	402c      	ands	r4, r5
10040eca:	e6e6      	b.n	10040c9a <__aeabi_fsub+0x1ae>
10040ecc:	1bda      	subs	r2, r3, r7
10040ece:	0153      	lsls	r3, r2, #5
10040ed0:	d532      	bpl.n	10040f38 <__aeabi_fsub+0x44c>
10040ed2:	0192      	lsls	r2, r2, #6
10040ed4:	0994      	lsrs	r4, r2, #6
10040ed6:	0020      	movs	r0, r4
10040ed8:	f001 fc74 	bl	100427c4 <__clzsi2>
10040edc:	0023      	movs	r3, r4
10040ede:	3805      	subs	r0, #5
10040ee0:	4083      	lsls	r3, r0
10040ee2:	002c      	movs	r4, r5
10040ee4:	2601      	movs	r6, #1
10040ee6:	e707      	b.n	10040cf8 <__aeabi_fsub+0x20c>
10040ee8:	2f00      	cmp	r7, #0
10040eea:	d0df      	beq.n	10040eac <__aeabi_fsub+0x3c0>
10040eec:	2b00      	cmp	r3, #0
10040eee:	d017      	beq.n	10040f20 <__aeabi_fsub+0x434>
10040ef0:	2380      	movs	r3, #128	@ 0x80
10040ef2:	03db      	lsls	r3, r3, #15
10040ef4:	429a      	cmp	r2, r3
10040ef6:	d200      	bcs.n	10040efa <__aeabi_fsub+0x40e>
10040ef8:	e6a4      	b.n	10040c44 <__aeabi_fsub+0x158>
10040efa:	459c      	cmp	ip, r3
10040efc:	d300      	bcc.n	10040f00 <__aeabi_fsub+0x414>
10040efe:	e6a1      	b.n	10040c44 <__aeabi_fsub+0x158>
10040f00:	4662      	mov	r2, ip
10040f02:	e69f      	b.n	10040c44 <__aeabi_fsub+0x158>
10040f04:	2b00      	cmp	r3, #0
10040f06:	d00b      	beq.n	10040f20 <__aeabi_fsub+0x434>
10040f08:	2380      	movs	r3, #128	@ 0x80
10040f0a:	03db      	lsls	r3, r3, #15
10040f0c:	429a      	cmp	r2, r3
10040f0e:	d200      	bcs.n	10040f12 <__aeabi_fsub+0x426>
10040f10:	e698      	b.n	10040c44 <__aeabi_fsub+0x158>
10040f12:	459c      	cmp	ip, r3
10040f14:	d300      	bcc.n	10040f18 <__aeabi_fsub+0x42c>
10040f16:	e695      	b.n	10040c44 <__aeabi_fsub+0x158>
10040f18:	2401      	movs	r4, #1
10040f1a:	4662      	mov	r2, ip
10040f1c:	402c      	ands	r4, r5
10040f1e:	e691      	b.n	10040c44 <__aeabi_fsub+0x158>
10040f20:	2380      	movs	r3, #128	@ 0x80
10040f22:	03db      	lsls	r3, r3, #15
10040f24:	20ff      	movs	r0, #255	@ 0xff
10040f26:	4313      	orrs	r3, r2
10040f28:	e62b      	b.n	10040b82 <__aeabi_fsub+0x96>
10040f2a:	2000      	movs	r0, #0
10040f2c:	2b00      	cmp	r3, #0
10040f2e:	d100      	bne.n	10040f32 <__aeabi_fsub+0x446>
10040f30:	e627      	b.n	10040b82 <__aeabi_fsub+0x96>
10040f32:	2100      	movs	r1, #0
10040f34:	08da      	lsrs	r2, r3, #3
10040f36:	e6b0      	b.n	10040c9a <__aeabi_fsub+0x1ae>
10040f38:	002c      	movs	r4, r5
10040f3a:	2101      	movs	r1, #1
10040f3c:	08d2      	lsrs	r2, r2, #3
10040f3e:	e6ac      	b.n	10040c9a <__aeabi_fsub+0x1ae>
10040f40:	2a00      	cmp	r2, #0
10040f42:	d100      	bne.n	10040f46 <__aeabi_fsub+0x45a>
10040f44:	e70e      	b.n	10040d64 <__aeabi_fsub+0x278>
10040f46:	2100      	movs	r1, #0
10040f48:	08d2      	lsrs	r2, r2, #3
10040f4a:	e6a6      	b.n	10040c9a <__aeabi_fsub+0x1ae>
10040f4c:	2380      	movs	r3, #128	@ 0x80
10040f4e:	4662      	mov	r2, ip
10040f50:	2401      	movs	r4, #1
10040f52:	03db      	lsls	r3, r3, #15
10040f54:	20ff      	movs	r0, #255	@ 0xff
10040f56:	4313      	orrs	r3, r2
10040f58:	402c      	ands	r4, r5
10040f5a:	e612      	b.n	10040b82 <__aeabi_fsub+0x96>
10040f5c:	2101      	movs	r1, #1
10040f5e:	08da      	lsrs	r2, r3, #3
10040f60:	e69b      	b.n	10040c9a <__aeabi_fsub+0x1ae>
10040f62:	0031      	movs	r1, r6
10040f64:	e669      	b.n	10040c3a <__aeabi_fsub+0x14e>
10040f66:	2102      	movs	r1, #2
10040f68:	08d2      	lsrs	r2, r2, #3
10040f6a:	e696      	b.n	10040c9a <__aeabi_fsub+0x1ae>
10040f6c:	7dffffff 	.word	0x7dffffff

10040f70 <__aeabi_f2iz>:
10040f70:	0241      	lsls	r1, r0, #9
10040f72:	0042      	lsls	r2, r0, #1
10040f74:	0fc3      	lsrs	r3, r0, #31
10040f76:	0a49      	lsrs	r1, r1, #9
10040f78:	2000      	movs	r0, #0
10040f7a:	0e12      	lsrs	r2, r2, #24
10040f7c:	2a7e      	cmp	r2, #126	@ 0x7e
10040f7e:	dd03      	ble.n	10040f88 <__aeabi_f2iz+0x18>
10040f80:	2a9d      	cmp	r2, #157	@ 0x9d
10040f82:	dd02      	ble.n	10040f8a <__aeabi_f2iz+0x1a>
10040f84:	4a09      	ldr	r2, [pc, #36]	@ (10040fac <__aeabi_f2iz+0x3c>)
10040f86:	1898      	adds	r0, r3, r2
10040f88:	4770      	bx	lr
10040f8a:	2080      	movs	r0, #128	@ 0x80
10040f8c:	0400      	lsls	r0, r0, #16
10040f8e:	4301      	orrs	r1, r0
10040f90:	2a95      	cmp	r2, #149	@ 0x95
10040f92:	dc07      	bgt.n	10040fa4 <__aeabi_f2iz+0x34>
10040f94:	2096      	movs	r0, #150	@ 0x96
10040f96:	1a82      	subs	r2, r0, r2
10040f98:	40d1      	lsrs	r1, r2
10040f9a:	4248      	negs	r0, r1
10040f9c:	2b00      	cmp	r3, #0
10040f9e:	d1f3      	bne.n	10040f88 <__aeabi_f2iz+0x18>
10040fa0:	0008      	movs	r0, r1
10040fa2:	e7f1      	b.n	10040f88 <__aeabi_f2iz+0x18>
10040fa4:	3a96      	subs	r2, #150	@ 0x96
10040fa6:	4091      	lsls	r1, r2
10040fa8:	e7f7      	b.n	10040f9a <__aeabi_f2iz+0x2a>
10040faa:	46c0      	nop			@ (mov r8, r8)
10040fac:	7fffffff 	.word	0x7fffffff

10040fb0 <__aeabi_i2f>:
10040fb0:	b570      	push	{r4, r5, r6, lr}
10040fb2:	2800      	cmp	r0, #0
10040fb4:	d012      	beq.n	10040fdc <__aeabi_i2f+0x2c>
10040fb6:	17c3      	asrs	r3, r0, #31
10040fb8:	18c5      	adds	r5, r0, r3
10040fba:	405d      	eors	r5, r3
10040fbc:	0fc4      	lsrs	r4, r0, #31
10040fbe:	0028      	movs	r0, r5
10040fc0:	f001 fc00 	bl	100427c4 <__clzsi2>
10040fc4:	239e      	movs	r3, #158	@ 0x9e
10040fc6:	1a1b      	subs	r3, r3, r0
10040fc8:	2b96      	cmp	r3, #150	@ 0x96
10040fca:	dc0f      	bgt.n	10040fec <__aeabi_i2f+0x3c>
10040fcc:	2808      	cmp	r0, #8
10040fce:	d038      	beq.n	10041042 <__aeabi_i2f+0x92>
10040fd0:	3808      	subs	r0, #8
10040fd2:	4085      	lsls	r5, r0
10040fd4:	026d      	lsls	r5, r5, #9
10040fd6:	0a6d      	lsrs	r5, r5, #9
10040fd8:	b2d8      	uxtb	r0, r3
10040fda:	e002      	b.n	10040fe2 <__aeabi_i2f+0x32>
10040fdc:	2400      	movs	r4, #0
10040fde:	2000      	movs	r0, #0
10040fe0:	2500      	movs	r5, #0
10040fe2:	05c0      	lsls	r0, r0, #23
10040fe4:	4328      	orrs	r0, r5
10040fe6:	07e4      	lsls	r4, r4, #31
10040fe8:	4320      	orrs	r0, r4
10040fea:	bd70      	pop	{r4, r5, r6, pc}
10040fec:	2b99      	cmp	r3, #153	@ 0x99
10040fee:	dc14      	bgt.n	1004101a <__aeabi_i2f+0x6a>
10040ff0:	1f42      	subs	r2, r0, #5
10040ff2:	4095      	lsls	r5, r2
10040ff4:	002a      	movs	r2, r5
10040ff6:	4915      	ldr	r1, [pc, #84]	@ (1004104c <__aeabi_i2f+0x9c>)
10040ff8:	4011      	ands	r1, r2
10040ffa:	0755      	lsls	r5, r2, #29
10040ffc:	d01c      	beq.n	10041038 <__aeabi_i2f+0x88>
10040ffe:	250f      	movs	r5, #15
10041000:	402a      	ands	r2, r5
10041002:	2a04      	cmp	r2, #4
10041004:	d018      	beq.n	10041038 <__aeabi_i2f+0x88>
10041006:	3104      	adds	r1, #4
10041008:	08ca      	lsrs	r2, r1, #3
1004100a:	0149      	lsls	r1, r1, #5
1004100c:	d515      	bpl.n	1004103a <__aeabi_i2f+0x8a>
1004100e:	239f      	movs	r3, #159	@ 0x9f
10041010:	0252      	lsls	r2, r2, #9
10041012:	1a18      	subs	r0, r3, r0
10041014:	0a55      	lsrs	r5, r2, #9
10041016:	b2c0      	uxtb	r0, r0
10041018:	e7e3      	b.n	10040fe2 <__aeabi_i2f+0x32>
1004101a:	0002      	movs	r2, r0
1004101c:	0029      	movs	r1, r5
1004101e:	321b      	adds	r2, #27
10041020:	4091      	lsls	r1, r2
10041022:	1e4a      	subs	r2, r1, #1
10041024:	4191      	sbcs	r1, r2
10041026:	2205      	movs	r2, #5
10041028:	1a12      	subs	r2, r2, r0
1004102a:	40d5      	lsrs	r5, r2
1004102c:	002a      	movs	r2, r5
1004102e:	430a      	orrs	r2, r1
10041030:	4906      	ldr	r1, [pc, #24]	@ (1004104c <__aeabi_i2f+0x9c>)
10041032:	4011      	ands	r1, r2
10041034:	0755      	lsls	r5, r2, #29
10041036:	d1e2      	bne.n	10040ffe <__aeabi_i2f+0x4e>
10041038:	08ca      	lsrs	r2, r1, #3
1004103a:	0252      	lsls	r2, r2, #9
1004103c:	0a55      	lsrs	r5, r2, #9
1004103e:	b2d8      	uxtb	r0, r3
10041040:	e7cf      	b.n	10040fe2 <__aeabi_i2f+0x32>
10041042:	026d      	lsls	r5, r5, #9
10041044:	0a6d      	lsrs	r5, r5, #9
10041046:	308e      	adds	r0, #142	@ 0x8e
10041048:	e7cb      	b.n	10040fe2 <__aeabi_i2f+0x32>
1004104a:	46c0      	nop			@ (mov r8, r8)
1004104c:	fbffffff 	.word	0xfbffffff

10041050 <__aeabi_ddiv>:
10041050:	b5f0      	push	{r4, r5, r6, r7, lr}
10041052:	46de      	mov	lr, fp
10041054:	4645      	mov	r5, r8
10041056:	4657      	mov	r7, sl
10041058:	464e      	mov	r6, r9
1004105a:	b5e0      	push	{r5, r6, r7, lr}
1004105c:	b087      	sub	sp, #28
1004105e:	9200      	str	r2, [sp, #0]
10041060:	9301      	str	r3, [sp, #4]
10041062:	030b      	lsls	r3, r1, #12
10041064:	0b1b      	lsrs	r3, r3, #12
10041066:	469b      	mov	fp, r3
10041068:	0fca      	lsrs	r2, r1, #31
1004106a:	004b      	lsls	r3, r1, #1
1004106c:	0004      	movs	r4, r0
1004106e:	4680      	mov	r8, r0
10041070:	0d5b      	lsrs	r3, r3, #21
10041072:	9202      	str	r2, [sp, #8]
10041074:	d100      	bne.n	10041078 <__aeabi_ddiv+0x28>
10041076:	e0bf      	b.n	100411f8 <__aeabi_ddiv+0x1a8>
10041078:	4a8f      	ldr	r2, [pc, #572]	@ (100412b8 <__aeabi_ddiv+0x268>)
1004107a:	4293      	cmp	r3, r2
1004107c:	d038      	beq.n	100410f0 <__aeabi_ddiv+0xa0>
1004107e:	4659      	mov	r1, fp
10041080:	0f42      	lsrs	r2, r0, #29
10041082:	00c9      	lsls	r1, r1, #3
10041084:	430a      	orrs	r2, r1
10041086:	2180      	movs	r1, #128	@ 0x80
10041088:	0409      	lsls	r1, r1, #16
1004108a:	4311      	orrs	r1, r2
1004108c:	00c2      	lsls	r2, r0, #3
1004108e:	4690      	mov	r8, r2
10041090:	4a8a      	ldr	r2, [pc, #552]	@ (100412bc <__aeabi_ddiv+0x26c>)
10041092:	4689      	mov	r9, r1
10041094:	4692      	mov	sl, r2
10041096:	449a      	add	sl, r3
10041098:	2300      	movs	r3, #0
1004109a:	2400      	movs	r4, #0
1004109c:	9303      	str	r3, [sp, #12]
1004109e:	9e00      	ldr	r6, [sp, #0]
100410a0:	9f01      	ldr	r7, [sp, #4]
100410a2:	033b      	lsls	r3, r7, #12
100410a4:	0b1b      	lsrs	r3, r3, #12
100410a6:	007a      	lsls	r2, r7, #1
100410a8:	0030      	movs	r0, r6
100410aa:	469b      	mov	fp, r3
100410ac:	0d52      	lsrs	r2, r2, #21
100410ae:	0ffd      	lsrs	r5, r7, #31
100410b0:	2a00      	cmp	r2, #0
100410b2:	d100      	bne.n	100410b6 <__aeabi_ddiv+0x66>
100410b4:	e07f      	b.n	100411b6 <__aeabi_ddiv+0x166>
100410b6:	4b80      	ldr	r3, [pc, #512]	@ (100412b8 <__aeabi_ddiv+0x268>)
100410b8:	429a      	cmp	r2, r3
100410ba:	d06e      	beq.n	1004119a <__aeabi_ddiv+0x14a>
100410bc:	4659      	mov	r1, fp
100410be:	0f73      	lsrs	r3, r6, #29
100410c0:	00c9      	lsls	r1, r1, #3
100410c2:	430b      	orrs	r3, r1
100410c4:	2180      	movs	r1, #128	@ 0x80
100410c6:	0409      	lsls	r1, r1, #16
100410c8:	4319      	orrs	r1, r3
100410ca:	468b      	mov	fp, r1
100410cc:	497b      	ldr	r1, [pc, #492]	@ (100412bc <__aeabi_ddiv+0x26c>)
100410ce:	00f3      	lsls	r3, r6, #3
100410d0:	468c      	mov	ip, r1
100410d2:	4651      	mov	r1, sl
100410d4:	4462      	add	r2, ip
100410d6:	1a8a      	subs	r2, r1, r2
100410d8:	4692      	mov	sl, r2
100410da:	2100      	movs	r1, #0
100410dc:	9e02      	ldr	r6, [sp, #8]
100410de:	406e      	eors	r6, r5
100410e0:	b2f6      	uxtb	r6, r6
100410e2:	2c0f      	cmp	r4, #15
100410e4:	d900      	bls.n	100410e8 <__aeabi_ddiv+0x98>
100410e6:	e0f9      	b.n	100412dc <__aeabi_ddiv+0x28c>
100410e8:	4a75      	ldr	r2, [pc, #468]	@ (100412c0 <__aeabi_ddiv+0x270>)
100410ea:	00a4      	lsls	r4, r4, #2
100410ec:	5912      	ldr	r2, [r2, r4]
100410ee:	4697      	mov	pc, r2
100410f0:	465a      	mov	r2, fp
100410f2:	4302      	orrs	r2, r0
100410f4:	4691      	mov	r9, r2
100410f6:	d000      	beq.n	100410fa <__aeabi_ddiv+0xaa>
100410f8:	e0b6      	b.n	10041268 <__aeabi_ddiv+0x218>
100410fa:	469a      	mov	sl, r3
100410fc:	2302      	movs	r3, #2
100410fe:	4690      	mov	r8, r2
10041100:	2408      	movs	r4, #8
10041102:	9303      	str	r3, [sp, #12]
10041104:	e7cb      	b.n	1004109e <__aeabi_ddiv+0x4e>
10041106:	002e      	movs	r6, r5
10041108:	2100      	movs	r1, #0
1004110a:	2300      	movs	r3, #0
1004110c:	2200      	movs	r2, #0
1004110e:	4688      	mov	r8, r1
10041110:	051b      	lsls	r3, r3, #20
10041112:	4313      	orrs	r3, r2
10041114:	07f6      	lsls	r6, r6, #31
10041116:	4333      	orrs	r3, r6
10041118:	4640      	mov	r0, r8
1004111a:	0019      	movs	r1, r3
1004111c:	b007      	add	sp, #28
1004111e:	bcf0      	pop	{r4, r5, r6, r7}
10041120:	46bb      	mov	fp, r7
10041122:	46b2      	mov	sl, r6
10041124:	46a9      	mov	r9, r5
10041126:	46a0      	mov	r8, r4
10041128:	bdf0      	pop	{r4, r5, r6, r7, pc}
1004112a:	46cb      	mov	fp, r9
1004112c:	4643      	mov	r3, r8
1004112e:	9d02      	ldr	r5, [sp, #8]
10041130:	9903      	ldr	r1, [sp, #12]
10041132:	2902      	cmp	r1, #2
10041134:	d100      	bne.n	10041138 <__aeabi_ddiv+0xe8>
10041136:	e1fa      	b.n	1004152e <__aeabi_ddiv+0x4de>
10041138:	2903      	cmp	r1, #3
1004113a:	d100      	bne.n	1004113e <__aeabi_ddiv+0xee>
1004113c:	e0a1      	b.n	10041282 <__aeabi_ddiv+0x232>
1004113e:	2901      	cmp	r1, #1
10041140:	d0e1      	beq.n	10041106 <__aeabi_ddiv+0xb6>
10041142:	4a60      	ldr	r2, [pc, #384]	@ (100412c4 <__aeabi_ddiv+0x274>)
10041144:	4452      	add	r2, sl
10041146:	4690      	mov	r8, r2
10041148:	4644      	mov	r4, r8
1004114a:	2c00      	cmp	r4, #0
1004114c:	dc00      	bgt.n	10041150 <__aeabi_ddiv+0x100>
1004114e:	e200      	b.n	10041552 <__aeabi_ddiv+0x502>
10041150:	075a      	lsls	r2, r3, #29
10041152:	d004      	beq.n	1004115e <__aeabi_ddiv+0x10e>
10041154:	220f      	movs	r2, #15
10041156:	401a      	ands	r2, r3
10041158:	2a04      	cmp	r2, #4
1004115a:	d000      	beq.n	1004115e <__aeabi_ddiv+0x10e>
1004115c:	e27f      	b.n	1004165e <__aeabi_ddiv+0x60e>
1004115e:	002e      	movs	r6, r5
10041160:	08da      	lsrs	r2, r3, #3
10041162:	465b      	mov	r3, fp
10041164:	01db      	lsls	r3, r3, #7
10041166:	d506      	bpl.n	10041176 <__aeabi_ddiv+0x126>
10041168:	4659      	mov	r1, fp
1004116a:	4b57      	ldr	r3, [pc, #348]	@ (100412c8 <__aeabi_ddiv+0x278>)
1004116c:	2480      	movs	r4, #128	@ 0x80
1004116e:	4019      	ands	r1, r3
10041170:	468b      	mov	fp, r1
10041172:	00e4      	lsls	r4, r4, #3
10041174:	4454      	add	r4, sl
10041176:	4b55      	ldr	r3, [pc, #340]	@ (100412cc <__aeabi_ddiv+0x27c>)
10041178:	429c      	cmp	r4, r3
1004117a:	dc09      	bgt.n	10041190 <__aeabi_ddiv+0x140>
1004117c:	465b      	mov	r3, fp
1004117e:	075b      	lsls	r3, r3, #29
10041180:	4313      	orrs	r3, r2
10041182:	4698      	mov	r8, r3
10041184:	465b      	mov	r3, fp
10041186:	0564      	lsls	r4, r4, #21
10041188:	025a      	lsls	r2, r3, #9
1004118a:	0b12      	lsrs	r2, r2, #12
1004118c:	0d63      	lsrs	r3, r4, #21
1004118e:	e7bf      	b.n	10041110 <__aeabi_ddiv+0xc0>
10041190:	2100      	movs	r1, #0
10041192:	2200      	movs	r2, #0
10041194:	4688      	mov	r8, r1
10041196:	4b48      	ldr	r3, [pc, #288]	@ (100412b8 <__aeabi_ddiv+0x268>)
10041198:	e7ba      	b.n	10041110 <__aeabi_ddiv+0xc0>
1004119a:	465b      	mov	r3, fp
1004119c:	9a00      	ldr	r2, [sp, #0]
1004119e:	4313      	orrs	r3, r2
100411a0:	4a4b      	ldr	r2, [pc, #300]	@ (100412d0 <__aeabi_ddiv+0x280>)
100411a2:	4694      	mov	ip, r2
100411a4:	44e2      	add	sl, ip
100411a6:	2b00      	cmp	r3, #0
100411a8:	d159      	bne.n	1004125e <__aeabi_ddiv+0x20e>
100411aa:	2202      	movs	r2, #2
100411ac:	4314      	orrs	r4, r2
100411ae:	2200      	movs	r2, #0
100411b0:	2102      	movs	r1, #2
100411b2:	4693      	mov	fp, r2
100411b4:	e792      	b.n	100410dc <__aeabi_ddiv+0x8c>
100411b6:	465b      	mov	r3, fp
100411b8:	9a00      	ldr	r2, [sp, #0]
100411ba:	4313      	orrs	r3, r2
100411bc:	d049      	beq.n	10041252 <__aeabi_ddiv+0x202>
100411be:	465b      	mov	r3, fp
100411c0:	2b00      	cmp	r3, #0
100411c2:	d100      	bne.n	100411c6 <__aeabi_ddiv+0x176>
100411c4:	e1a4      	b.n	10041510 <__aeabi_ddiv+0x4c0>
100411c6:	4658      	mov	r0, fp
100411c8:	f001 fafc 	bl	100427c4 <__clzsi2>
100411cc:	0003      	movs	r3, r0
100411ce:	0002      	movs	r2, r0
100411d0:	3b0b      	subs	r3, #11
100411d2:	271d      	movs	r7, #29
100411d4:	9e00      	ldr	r6, [sp, #0]
100411d6:	1afb      	subs	r3, r7, r3
100411d8:	0011      	movs	r1, r2
100411da:	4658      	mov	r0, fp
100411dc:	40de      	lsrs	r6, r3
100411de:	3908      	subs	r1, #8
100411e0:	4088      	lsls	r0, r1
100411e2:	0033      	movs	r3, r6
100411e4:	4303      	orrs	r3, r0
100411e6:	469b      	mov	fp, r3
100411e8:	9b00      	ldr	r3, [sp, #0]
100411ea:	408b      	lsls	r3, r1
100411ec:	4939      	ldr	r1, [pc, #228]	@ (100412d4 <__aeabi_ddiv+0x284>)
100411ee:	4452      	add	r2, sl
100411f0:	468a      	mov	sl, r1
100411f2:	2100      	movs	r1, #0
100411f4:	4492      	add	sl, r2
100411f6:	e771      	b.n	100410dc <__aeabi_ddiv+0x8c>
100411f8:	465b      	mov	r3, fp
100411fa:	4303      	orrs	r3, r0
100411fc:	4699      	mov	r9, r3
100411fe:	d021      	beq.n	10041244 <__aeabi_ddiv+0x1f4>
10041200:	465b      	mov	r3, fp
10041202:	2b00      	cmp	r3, #0
10041204:	d100      	bne.n	10041208 <__aeabi_ddiv+0x1b8>
10041206:	e171      	b.n	100414ec <__aeabi_ddiv+0x49c>
10041208:	4658      	mov	r0, fp
1004120a:	f001 fadb 	bl	100427c4 <__clzsi2>
1004120e:	230b      	movs	r3, #11
10041210:	425b      	negs	r3, r3
10041212:	469c      	mov	ip, r3
10041214:	0002      	movs	r2, r0
10041216:	4484      	add	ip, r0
10041218:	4666      	mov	r6, ip
1004121a:	231d      	movs	r3, #29
1004121c:	1b9b      	subs	r3, r3, r6
1004121e:	0026      	movs	r6, r4
10041220:	0011      	movs	r1, r2
10041222:	4658      	mov	r0, fp
10041224:	40de      	lsrs	r6, r3
10041226:	3908      	subs	r1, #8
10041228:	4088      	lsls	r0, r1
1004122a:	0033      	movs	r3, r6
1004122c:	4303      	orrs	r3, r0
1004122e:	4699      	mov	r9, r3
10041230:	0023      	movs	r3, r4
10041232:	408b      	lsls	r3, r1
10041234:	4698      	mov	r8, r3
10041236:	4b28      	ldr	r3, [pc, #160]	@ (100412d8 <__aeabi_ddiv+0x288>)
10041238:	2400      	movs	r4, #0
1004123a:	1a9b      	subs	r3, r3, r2
1004123c:	469a      	mov	sl, r3
1004123e:	2300      	movs	r3, #0
10041240:	9303      	str	r3, [sp, #12]
10041242:	e72c      	b.n	1004109e <__aeabi_ddiv+0x4e>
10041244:	2300      	movs	r3, #0
10041246:	4698      	mov	r8, r3
10041248:	469a      	mov	sl, r3
1004124a:	3301      	adds	r3, #1
1004124c:	2404      	movs	r4, #4
1004124e:	9303      	str	r3, [sp, #12]
10041250:	e725      	b.n	1004109e <__aeabi_ddiv+0x4e>
10041252:	2201      	movs	r2, #1
10041254:	4314      	orrs	r4, r2
10041256:	2200      	movs	r2, #0
10041258:	2101      	movs	r1, #1
1004125a:	4693      	mov	fp, r2
1004125c:	e73e      	b.n	100410dc <__aeabi_ddiv+0x8c>
1004125e:	2303      	movs	r3, #3
10041260:	2103      	movs	r1, #3
10041262:	431c      	orrs	r4, r3
10041264:	0033      	movs	r3, r6
10041266:	e739      	b.n	100410dc <__aeabi_ddiv+0x8c>
10041268:	469a      	mov	sl, r3
1004126a:	2303      	movs	r3, #3
1004126c:	46d9      	mov	r9, fp
1004126e:	240c      	movs	r4, #12
10041270:	9303      	str	r3, [sp, #12]
10041272:	e714      	b.n	1004109e <__aeabi_ddiv+0x4e>
10041274:	2300      	movs	r3, #0
10041276:	2280      	movs	r2, #128	@ 0x80
10041278:	4698      	mov	r8, r3
1004127a:	2600      	movs	r6, #0
1004127c:	4b0e      	ldr	r3, [pc, #56]	@ (100412b8 <__aeabi_ddiv+0x268>)
1004127e:	0312      	lsls	r2, r2, #12
10041280:	e746      	b.n	10041110 <__aeabi_ddiv+0xc0>
10041282:	2280      	movs	r2, #128	@ 0x80
10041284:	4659      	mov	r1, fp
10041286:	0312      	lsls	r2, r2, #12
10041288:	430a      	orrs	r2, r1
1004128a:	0312      	lsls	r2, r2, #12
1004128c:	4698      	mov	r8, r3
1004128e:	002e      	movs	r6, r5
10041290:	4b09      	ldr	r3, [pc, #36]	@ (100412b8 <__aeabi_ddiv+0x268>)
10041292:	0b12      	lsrs	r2, r2, #12
10041294:	e73c      	b.n	10041110 <__aeabi_ddiv+0xc0>
10041296:	2280      	movs	r2, #128	@ 0x80
10041298:	4649      	mov	r1, r9
1004129a:	0312      	lsls	r2, r2, #12
1004129c:	4211      	tst	r1, r2
1004129e:	d002      	beq.n	100412a6 <__aeabi_ddiv+0x256>
100412a0:	4659      	mov	r1, fp
100412a2:	4211      	tst	r1, r2
100412a4:	d0f0      	beq.n	10041288 <__aeabi_ddiv+0x238>
100412a6:	2280      	movs	r2, #128	@ 0x80
100412a8:	464b      	mov	r3, r9
100412aa:	0312      	lsls	r2, r2, #12
100412ac:	431a      	orrs	r2, r3
100412ae:	0312      	lsls	r2, r2, #12
100412b0:	9e02      	ldr	r6, [sp, #8]
100412b2:	4b01      	ldr	r3, [pc, #4]	@ (100412b8 <__aeabi_ddiv+0x268>)
100412b4:	0b12      	lsrs	r2, r2, #12
100412b6:	e72b      	b.n	10041110 <__aeabi_ddiv+0xc0>
100412b8:	000007ff 	.word	0x000007ff
100412bc:	fffffc01 	.word	0xfffffc01
100412c0:	100495d4 	.word	0x100495d4
100412c4:	000003ff 	.word	0x000003ff
100412c8:	feffffff 	.word	0xfeffffff
100412cc:	000007fe 	.word	0x000007fe
100412d0:	fffff801 	.word	0xfffff801
100412d4:	000003f3 	.word	0x000003f3
100412d8:	fffffc0d 	.word	0xfffffc0d
100412dc:	45cb      	cmp	fp, r9
100412de:	d200      	bcs.n	100412e2 <__aeabi_ddiv+0x292>
100412e0:	e0fa      	b.n	100414d8 <__aeabi_ddiv+0x488>
100412e2:	d100      	bne.n	100412e6 <__aeabi_ddiv+0x296>
100412e4:	e0f5      	b.n	100414d2 <__aeabi_ddiv+0x482>
100412e6:	2201      	movs	r2, #1
100412e8:	4252      	negs	r2, r2
100412ea:	4694      	mov	ip, r2
100412ec:	2200      	movs	r2, #0
100412ee:	4644      	mov	r4, r8
100412f0:	4648      	mov	r0, r9
100412f2:	4690      	mov	r8, r2
100412f4:	44e2      	add	sl, ip
100412f6:	465a      	mov	r2, fp
100412f8:	0e1f      	lsrs	r7, r3, #24
100412fa:	0212      	lsls	r2, r2, #8
100412fc:	021b      	lsls	r3, r3, #8
100412fe:	9302      	str	r3, [sp, #8]
10041300:	0c13      	lsrs	r3, r2, #16
10041302:	4699      	mov	r9, r3
10041304:	4317      	orrs	r7, r2
10041306:	043b      	lsls	r3, r7, #16
10041308:	0c1b      	lsrs	r3, r3, #16
1004130a:	4649      	mov	r1, r9
1004130c:	9300      	str	r3, [sp, #0]
1004130e:	f7fe ff5d 	bl	100401cc <__aeabi_uidivmod>
10041312:	9a00      	ldr	r2, [sp, #0]
10041314:	040b      	lsls	r3, r1, #16
10041316:	4342      	muls	r2, r0
10041318:	0c21      	lsrs	r1, r4, #16
1004131a:	0005      	movs	r5, r0
1004131c:	4319      	orrs	r1, r3
1004131e:	428a      	cmp	r2, r1
10041320:	d907      	bls.n	10041332 <__aeabi_ddiv+0x2e2>
10041322:	19c9      	adds	r1, r1, r7
10041324:	3d01      	subs	r5, #1
10041326:	428f      	cmp	r7, r1
10041328:	d803      	bhi.n	10041332 <__aeabi_ddiv+0x2e2>
1004132a:	428a      	cmp	r2, r1
1004132c:	d901      	bls.n	10041332 <__aeabi_ddiv+0x2e2>
1004132e:	1e85      	subs	r5, r0, #2
10041330:	19c9      	adds	r1, r1, r7
10041332:	1a88      	subs	r0, r1, r2
10041334:	4649      	mov	r1, r9
10041336:	f7fe ff49 	bl	100401cc <__aeabi_uidivmod>
1004133a:	9a00      	ldr	r2, [sp, #0]
1004133c:	0424      	lsls	r4, r4, #16
1004133e:	4342      	muls	r2, r0
10041340:	0409      	lsls	r1, r1, #16
10041342:	0c24      	lsrs	r4, r4, #16
10041344:	0003      	movs	r3, r0
10041346:	430c      	orrs	r4, r1
10041348:	42a2      	cmp	r2, r4
1004134a:	d904      	bls.n	10041356 <__aeabi_ddiv+0x306>
1004134c:	19e4      	adds	r4, r4, r7
1004134e:	3b01      	subs	r3, #1
10041350:	42a7      	cmp	r7, r4
10041352:	d800      	bhi.n	10041356 <__aeabi_ddiv+0x306>
10041354:	e0f7      	b.n	10041546 <__aeabi_ddiv+0x4f6>
10041356:	9902      	ldr	r1, [sp, #8]
10041358:	1aa0      	subs	r0, r4, r2
1004135a:	042d      	lsls	r5, r5, #16
1004135c:	0c0c      	lsrs	r4, r1, #16
1004135e:	0409      	lsls	r1, r1, #16
10041360:	431d      	orrs	r5, r3
10041362:	0c09      	lsrs	r1, r1, #16
10041364:	0c2a      	lsrs	r2, r5, #16
10041366:	042b      	lsls	r3, r5, #16
10041368:	46ab      	mov	fp, r5
1004136a:	000d      	movs	r5, r1
1004136c:	0c1b      	lsrs	r3, r3, #16
1004136e:	435d      	muls	r5, r3
10041370:	9105      	str	r1, [sp, #20]
10041372:	4363      	muls	r3, r4
10041374:	4351      	muls	r1, r2
10041376:	9404      	str	r4, [sp, #16]
10041378:	4362      	muls	r2, r4
1004137a:	185b      	adds	r3, r3, r1
1004137c:	0c2c      	lsrs	r4, r5, #16
1004137e:	18e3      	adds	r3, r4, r3
10041380:	4299      	cmp	r1, r3
10041382:	d903      	bls.n	1004138c <__aeabi_ddiv+0x33c>
10041384:	2180      	movs	r1, #128	@ 0x80
10041386:	0249      	lsls	r1, r1, #9
10041388:	468c      	mov	ip, r1
1004138a:	4462      	add	r2, ip
1004138c:	0c19      	lsrs	r1, r3, #16
1004138e:	042d      	lsls	r5, r5, #16
10041390:	041b      	lsls	r3, r3, #16
10041392:	0c2d      	lsrs	r5, r5, #16
10041394:	188a      	adds	r2, r1, r2
10041396:	195d      	adds	r5, r3, r5
10041398:	4290      	cmp	r0, r2
1004139a:	d200      	bcs.n	1004139e <__aeabi_ddiv+0x34e>
1004139c:	e087      	b.n	100414ae <__aeabi_ddiv+0x45e>
1004139e:	d100      	bne.n	100413a2 <__aeabi_ddiv+0x352>
100413a0:	e082      	b.n	100414a8 <__aeabi_ddiv+0x458>
100413a2:	4643      	mov	r3, r8
100413a4:	1b5d      	subs	r5, r3, r5
100413a6:	45a8      	cmp	r8, r5
100413a8:	419b      	sbcs	r3, r3
100413aa:	1a80      	subs	r0, r0, r2
100413ac:	425b      	negs	r3, r3
100413ae:	1ac0      	subs	r0, r0, r3
100413b0:	4bb1      	ldr	r3, [pc, #708]	@ (10041678 <__aeabi_ddiv+0x628>)
100413b2:	4453      	add	r3, sl
100413b4:	4698      	mov	r8, r3
100413b6:	001c      	movs	r4, r3
100413b8:	4287      	cmp	r7, r0
100413ba:	d100      	bne.n	100413be <__aeabi_ddiv+0x36e>
100413bc:	e10c      	b.n	100415d8 <__aeabi_ddiv+0x588>
100413be:	4649      	mov	r1, r9
100413c0:	f7fe ff04 	bl	100401cc <__aeabi_uidivmod>
100413c4:	0002      	movs	r2, r0
100413c6:	9b00      	ldr	r3, [sp, #0]
100413c8:	9003      	str	r0, [sp, #12]
100413ca:	435a      	muls	r2, r3
100413cc:	040b      	lsls	r3, r1, #16
100413ce:	0c29      	lsrs	r1, r5, #16
100413d0:	4319      	orrs	r1, r3
100413d2:	428a      	cmp	r2, r1
100413d4:	d90a      	bls.n	100413ec <__aeabi_ddiv+0x39c>
100413d6:	0003      	movs	r3, r0
100413d8:	19c9      	adds	r1, r1, r7
100413da:	3b01      	subs	r3, #1
100413dc:	9303      	str	r3, [sp, #12]
100413de:	428f      	cmp	r7, r1
100413e0:	d804      	bhi.n	100413ec <__aeabi_ddiv+0x39c>
100413e2:	428a      	cmp	r2, r1
100413e4:	d902      	bls.n	100413ec <__aeabi_ddiv+0x39c>
100413e6:	1e83      	subs	r3, r0, #2
100413e8:	9303      	str	r3, [sp, #12]
100413ea:	19c9      	adds	r1, r1, r7
100413ec:	1a88      	subs	r0, r1, r2
100413ee:	4649      	mov	r1, r9
100413f0:	f7fe feec 	bl	100401cc <__aeabi_uidivmod>
100413f4:	000a      	movs	r2, r1
100413f6:	0412      	lsls	r2, r2, #16
100413f8:	4694      	mov	ip, r2
100413fa:	042a      	lsls	r2, r5, #16
100413fc:	4665      	mov	r5, ip
100413fe:	9900      	ldr	r1, [sp, #0]
10041400:	0c12      	lsrs	r2, r2, #16
10041402:	4341      	muls	r1, r0
10041404:	0003      	movs	r3, r0
10041406:	432a      	orrs	r2, r5
10041408:	4291      	cmp	r1, r2
1004140a:	d907      	bls.n	1004141c <__aeabi_ddiv+0x3cc>
1004140c:	19d2      	adds	r2, r2, r7
1004140e:	3801      	subs	r0, #1
10041410:	4297      	cmp	r7, r2
10041412:	d803      	bhi.n	1004141c <__aeabi_ddiv+0x3cc>
10041414:	4291      	cmp	r1, r2
10041416:	d901      	bls.n	1004141c <__aeabi_ddiv+0x3cc>
10041418:	1e98      	subs	r0, r3, #2
1004141a:	19d2      	adds	r2, r2, r7
1004141c:	9b03      	ldr	r3, [sp, #12]
1004141e:	1a52      	subs	r2, r2, r1
10041420:	041b      	lsls	r3, r3, #16
10041422:	4303      	orrs	r3, r0
10041424:	9805      	ldr	r0, [sp, #20]
10041426:	0c19      	lsrs	r1, r3, #16
10041428:	0005      	movs	r5, r0
1004142a:	468c      	mov	ip, r1
1004142c:	0419      	lsls	r1, r3, #16
1004142e:	0c09      	lsrs	r1, r1, #16
10041430:	434d      	muls	r5, r1
10041432:	4689      	mov	r9, r1
10041434:	4661      	mov	r1, ip
10041436:	9500      	str	r5, [sp, #0]
10041438:	4665      	mov	r5, ip
1004143a:	4348      	muls	r0, r1
1004143c:	9904      	ldr	r1, [sp, #16]
1004143e:	434d      	muls	r5, r1
10041440:	46ac      	mov	ip, r5
10041442:	464d      	mov	r5, r9
10041444:	434d      	muls	r5, r1
10041446:	1829      	adds	r1, r5, r0
10041448:	9d00      	ldr	r5, [sp, #0]
1004144a:	0c2d      	lsrs	r5, r5, #16
1004144c:	46a9      	mov	r9, r5
1004144e:	4449      	add	r1, r9
10041450:	4288      	cmp	r0, r1
10041452:	d903      	bls.n	1004145c <__aeabi_ddiv+0x40c>
10041454:	2080      	movs	r0, #128	@ 0x80
10041456:	0240      	lsls	r0, r0, #9
10041458:	4681      	mov	r9, r0
1004145a:	44cc      	add	ip, r9
1004145c:	9d00      	ldr	r5, [sp, #0]
1004145e:	0c08      	lsrs	r0, r1, #16
10041460:	042d      	lsls	r5, r5, #16
10041462:	0409      	lsls	r1, r1, #16
10041464:	0c2d      	lsrs	r5, r5, #16
10041466:	4460      	add	r0, ip
10041468:	194d      	adds	r5, r1, r5
1004146a:	4282      	cmp	r2, r0
1004146c:	d30f      	bcc.n	1004148e <__aeabi_ddiv+0x43e>
1004146e:	d00b      	beq.n	10041488 <__aeabi_ddiv+0x438>
10041470:	2201      	movs	r2, #1
10041472:	4313      	orrs	r3, r2
10041474:	4a81      	ldr	r2, [pc, #516]	@ (1004167c <__aeabi_ddiv+0x62c>)
10041476:	4592      	cmp	sl, r2
10041478:	db6c      	blt.n	10041554 <__aeabi_ddiv+0x504>
1004147a:	1d1a      	adds	r2, r3, #4
1004147c:	429a      	cmp	r2, r3
1004147e:	419b      	sbcs	r3, r3
10041480:	425b      	negs	r3, r3
10041482:	08d2      	lsrs	r2, r2, #3
10041484:	449b      	add	fp, r3
10041486:	e66c      	b.n	10041162 <__aeabi_ddiv+0x112>
10041488:	2d00      	cmp	r5, #0
1004148a:	d100      	bne.n	1004148e <__aeabi_ddiv+0x43e>
1004148c:	e093      	b.n	100415b6 <__aeabi_ddiv+0x566>
1004148e:	1e59      	subs	r1, r3, #1
10041490:	18ba      	adds	r2, r7, r2
10041492:	468c      	mov	ip, r1
10041494:	42ba      	cmp	r2, r7
10041496:	d200      	bcs.n	1004149a <__aeabi_ddiv+0x44a>
10041498:	e085      	b.n	100415a6 <__aeabi_ddiv+0x556>
1004149a:	4282      	cmp	r2, r0
1004149c:	d200      	bcs.n	100414a0 <__aeabi_ddiv+0x450>
1004149e:	e0c7      	b.n	10041630 <__aeabi_ddiv+0x5e0>
100414a0:	d100      	bne.n	100414a4 <__aeabi_ddiv+0x454>
100414a2:	e0d5      	b.n	10041650 <__aeabi_ddiv+0x600>
100414a4:	000b      	movs	r3, r1
100414a6:	e7e3      	b.n	10041470 <__aeabi_ddiv+0x420>
100414a8:	45a8      	cmp	r8, r5
100414aa:	d300      	bcc.n	100414ae <__aeabi_ddiv+0x45e>
100414ac:	e779      	b.n	100413a2 <__aeabi_ddiv+0x352>
100414ae:	465b      	mov	r3, fp
100414b0:	1e59      	subs	r1, r3, #1
100414b2:	9b02      	ldr	r3, [sp, #8]
100414b4:	469c      	mov	ip, r3
100414b6:	44e0      	add	r8, ip
100414b8:	001c      	movs	r4, r3
100414ba:	4598      	cmp	r8, r3
100414bc:	419b      	sbcs	r3, r3
100414be:	425b      	negs	r3, r3
100414c0:	19db      	adds	r3, r3, r7
100414c2:	18c0      	adds	r0, r0, r3
100414c4:	4287      	cmp	r7, r0
100414c6:	d238      	bcs.n	1004153a <__aeabi_ddiv+0x4ea>
100414c8:	4282      	cmp	r2, r0
100414ca:	d878      	bhi.n	100415be <__aeabi_ddiv+0x56e>
100414cc:	d075      	beq.n	100415ba <__aeabi_ddiv+0x56a>
100414ce:	468b      	mov	fp, r1
100414d0:	e767      	b.n	100413a2 <__aeabi_ddiv+0x352>
100414d2:	4543      	cmp	r3, r8
100414d4:	d900      	bls.n	100414d8 <__aeabi_ddiv+0x488>
100414d6:	e706      	b.n	100412e6 <__aeabi_ddiv+0x296>
100414d8:	464a      	mov	r2, r9
100414da:	07d4      	lsls	r4, r2, #31
100414dc:	0850      	lsrs	r0, r2, #1
100414de:	4642      	mov	r2, r8
100414e0:	0852      	lsrs	r2, r2, #1
100414e2:	4314      	orrs	r4, r2
100414e4:	4642      	mov	r2, r8
100414e6:	07d2      	lsls	r2, r2, #31
100414e8:	4690      	mov	r8, r2
100414ea:	e704      	b.n	100412f6 <__aeabi_ddiv+0x2a6>
100414ec:	f001 f96a 	bl	100427c4 <__clzsi2>
100414f0:	2315      	movs	r3, #21
100414f2:	469c      	mov	ip, r3
100414f4:	4484      	add	ip, r0
100414f6:	0002      	movs	r2, r0
100414f8:	4663      	mov	r3, ip
100414fa:	3220      	adds	r2, #32
100414fc:	2b1c      	cmp	r3, #28
100414fe:	dc00      	bgt.n	10041502 <__aeabi_ddiv+0x4b2>
10041500:	e68a      	b.n	10041218 <__aeabi_ddiv+0x1c8>
10041502:	0023      	movs	r3, r4
10041504:	3808      	subs	r0, #8
10041506:	4083      	lsls	r3, r0
10041508:	4699      	mov	r9, r3
1004150a:	2300      	movs	r3, #0
1004150c:	4698      	mov	r8, r3
1004150e:	e692      	b.n	10041236 <__aeabi_ddiv+0x1e6>
10041510:	f001 f958 	bl	100427c4 <__clzsi2>
10041514:	0003      	movs	r3, r0
10041516:	0002      	movs	r2, r0
10041518:	3315      	adds	r3, #21
1004151a:	3220      	adds	r2, #32
1004151c:	2b1c      	cmp	r3, #28
1004151e:	dc00      	bgt.n	10041522 <__aeabi_ddiv+0x4d2>
10041520:	e657      	b.n	100411d2 <__aeabi_ddiv+0x182>
10041522:	9900      	ldr	r1, [sp, #0]
10041524:	3808      	subs	r0, #8
10041526:	4081      	lsls	r1, r0
10041528:	2300      	movs	r3, #0
1004152a:	468b      	mov	fp, r1
1004152c:	e65e      	b.n	100411ec <__aeabi_ddiv+0x19c>
1004152e:	2100      	movs	r1, #0
10041530:	002e      	movs	r6, r5
10041532:	2200      	movs	r2, #0
10041534:	4688      	mov	r8, r1
10041536:	4b52      	ldr	r3, [pc, #328]	@ (10041680 <__aeabi_ddiv+0x630>)
10041538:	e5ea      	b.n	10041110 <__aeabi_ddiv+0xc0>
1004153a:	4287      	cmp	r7, r0
1004153c:	d1c7      	bne.n	100414ce <__aeabi_ddiv+0x47e>
1004153e:	4544      	cmp	r4, r8
10041540:	d9c2      	bls.n	100414c8 <__aeabi_ddiv+0x478>
10041542:	468b      	mov	fp, r1
10041544:	e72d      	b.n	100413a2 <__aeabi_ddiv+0x352>
10041546:	42a2      	cmp	r2, r4
10041548:	d800      	bhi.n	1004154c <__aeabi_ddiv+0x4fc>
1004154a:	e704      	b.n	10041356 <__aeabi_ddiv+0x306>
1004154c:	1e83      	subs	r3, r0, #2
1004154e:	19e4      	adds	r4, r4, r7
10041550:	e701      	b.n	10041356 <__aeabi_ddiv+0x306>
10041552:	002e      	movs	r6, r5
10041554:	2201      	movs	r2, #1
10041556:	4641      	mov	r1, r8
10041558:	1a52      	subs	r2, r2, r1
1004155a:	2a38      	cmp	r2, #56	@ 0x38
1004155c:	dd00      	ble.n	10041560 <__aeabi_ddiv+0x510>
1004155e:	e5d3      	b.n	10041108 <__aeabi_ddiv+0xb8>
10041560:	2a1f      	cmp	r2, #31
10041562:	dc3f      	bgt.n	100415e4 <__aeabi_ddiv+0x594>
10041564:	4847      	ldr	r0, [pc, #284]	@ (10041684 <__aeabi_ddiv+0x634>)
10041566:	001c      	movs	r4, r3
10041568:	4450      	add	r0, sl
1004156a:	4659      	mov	r1, fp
1004156c:	4083      	lsls	r3, r0
1004156e:	4081      	lsls	r1, r0
10041570:	40d4      	lsrs	r4, r2
10041572:	1e58      	subs	r0, r3, #1
10041574:	4183      	sbcs	r3, r0
10041576:	4321      	orrs	r1, r4
10041578:	430b      	orrs	r3, r1
1004157a:	4659      	mov	r1, fp
1004157c:	40d1      	lsrs	r1, r2
1004157e:	000a      	movs	r2, r1
10041580:	0759      	lsls	r1, r3, #29
10041582:	d009      	beq.n	10041598 <__aeabi_ddiv+0x548>
10041584:	210f      	movs	r1, #15
10041586:	4019      	ands	r1, r3
10041588:	2904      	cmp	r1, #4
1004158a:	d005      	beq.n	10041598 <__aeabi_ddiv+0x548>
1004158c:	1d19      	adds	r1, r3, #4
1004158e:	4299      	cmp	r1, r3
10041590:	419b      	sbcs	r3, r3
10041592:	425b      	negs	r3, r3
10041594:	18d2      	adds	r2, r2, r3
10041596:	000b      	movs	r3, r1
10041598:	0211      	lsls	r1, r2, #8
1004159a:	d568      	bpl.n	1004166e <__aeabi_ddiv+0x61e>
1004159c:	2100      	movs	r1, #0
1004159e:	2301      	movs	r3, #1
100415a0:	2200      	movs	r2, #0
100415a2:	4688      	mov	r8, r1
100415a4:	e5b4      	b.n	10041110 <__aeabi_ddiv+0xc0>
100415a6:	000b      	movs	r3, r1
100415a8:	4282      	cmp	r2, r0
100415aa:	d000      	beq.n	100415ae <__aeabi_ddiv+0x55e>
100415ac:	e760      	b.n	10041470 <__aeabi_ddiv+0x420>
100415ae:	9a02      	ldr	r2, [sp, #8]
100415b0:	4295      	cmp	r5, r2
100415b2:	d000      	beq.n	100415b6 <__aeabi_ddiv+0x566>
100415b4:	e75c      	b.n	10041470 <__aeabi_ddiv+0x420>
100415b6:	0035      	movs	r5, r6
100415b8:	e5c6      	b.n	10041148 <__aeabi_ddiv+0xf8>
100415ba:	4545      	cmp	r5, r8
100415bc:	d987      	bls.n	100414ce <__aeabi_ddiv+0x47e>
100415be:	2302      	movs	r3, #2
100415c0:	425b      	negs	r3, r3
100415c2:	469c      	mov	ip, r3
100415c4:	9b02      	ldr	r3, [sp, #8]
100415c6:	44e3      	add	fp, ip
100415c8:	469c      	mov	ip, r3
100415ca:	44e0      	add	r8, ip
100415cc:	4598      	cmp	r8, r3
100415ce:	419b      	sbcs	r3, r3
100415d0:	425b      	negs	r3, r3
100415d2:	19db      	adds	r3, r3, r7
100415d4:	18c0      	adds	r0, r0, r3
100415d6:	e6e4      	b.n	100413a2 <__aeabi_ddiv+0x352>
100415d8:	2b00      	cmp	r3, #0
100415da:	dd36      	ble.n	1004164a <__aeabi_ddiv+0x5fa>
100415dc:	2301      	movs	r3, #1
100415de:	2200      	movs	r2, #0
100415e0:	449b      	add	fp, r3
100415e2:	e5be      	b.n	10041162 <__aeabi_ddiv+0x112>
100415e4:	211f      	movs	r1, #31
100415e6:	4640      	mov	r0, r8
100415e8:	4249      	negs	r1, r1
100415ea:	1a09      	subs	r1, r1, r0
100415ec:	4658      	mov	r0, fp
100415ee:	40c8      	lsrs	r0, r1
100415f0:	0001      	movs	r1, r0
100415f2:	2a20      	cmp	r2, #32
100415f4:	d004      	beq.n	10041600 <__aeabi_ddiv+0x5b0>
100415f6:	4658      	mov	r0, fp
100415f8:	4a23      	ldr	r2, [pc, #140]	@ (10041688 <__aeabi_ddiv+0x638>)
100415fa:	4452      	add	r2, sl
100415fc:	4090      	lsls	r0, r2
100415fe:	4303      	orrs	r3, r0
10041600:	1e5a      	subs	r2, r3, #1
10041602:	4193      	sbcs	r3, r2
10041604:	2007      	movs	r0, #7
10041606:	430b      	orrs	r3, r1
10041608:	0001      	movs	r1, r0
1004160a:	2200      	movs	r2, #0
1004160c:	4019      	ands	r1, r3
1004160e:	4218      	tst	r0, r3
10041610:	d009      	beq.n	10041626 <__aeabi_ddiv+0x5d6>
10041612:	210f      	movs	r1, #15
10041614:	4019      	ands	r1, r3
10041616:	2904      	cmp	r1, #4
10041618:	d01f      	beq.n	1004165a <__aeabi_ddiv+0x60a>
1004161a:	1d18      	adds	r0, r3, #4
1004161c:	4298      	cmp	r0, r3
1004161e:	4189      	sbcs	r1, r1
10041620:	0003      	movs	r3, r0
10041622:	4249      	negs	r1, r1
10041624:	0749      	lsls	r1, r1, #29
10041626:	08db      	lsrs	r3, r3, #3
10041628:	430b      	orrs	r3, r1
1004162a:	4698      	mov	r8, r3
1004162c:	2300      	movs	r3, #0
1004162e:	e56f      	b.n	10041110 <__aeabi_ddiv+0xc0>
10041630:	9902      	ldr	r1, [sp, #8]
10041632:	3b02      	subs	r3, #2
10041634:	0049      	lsls	r1, r1, #1
10041636:	468c      	mov	ip, r1
10041638:	9902      	ldr	r1, [sp, #8]
1004163a:	458c      	cmp	ip, r1
1004163c:	4189      	sbcs	r1, r1
1004163e:	4249      	negs	r1, r1
10041640:	19c9      	adds	r1, r1, r7
10041642:	1852      	adds	r2, r2, r1
10041644:	4661      	mov	r1, ip
10041646:	9102      	str	r1, [sp, #8]
10041648:	e7ae      	b.n	100415a8 <__aeabi_ddiv+0x558>
1004164a:	2301      	movs	r3, #1
1004164c:	425b      	negs	r3, r3
1004164e:	e781      	b.n	10041554 <__aeabi_ddiv+0x504>
10041650:	9902      	ldr	r1, [sp, #8]
10041652:	42a9      	cmp	r1, r5
10041654:	d3ec      	bcc.n	10041630 <__aeabi_ddiv+0x5e0>
10041656:	4663      	mov	r3, ip
10041658:	e7a9      	b.n	100415ae <__aeabi_ddiv+0x55e>
1004165a:	2100      	movs	r1, #0
1004165c:	e7e3      	b.n	10041626 <__aeabi_ddiv+0x5d6>
1004165e:	1d1a      	adds	r2, r3, #4
10041660:	429a      	cmp	r2, r3
10041662:	419b      	sbcs	r3, r3
10041664:	425b      	negs	r3, r3
10041666:	002e      	movs	r6, r5
10041668:	08d2      	lsrs	r2, r2, #3
1004166a:	449b      	add	fp, r3
1004166c:	e579      	b.n	10041162 <__aeabi_ddiv+0x112>
1004166e:	0751      	lsls	r1, r2, #29
10041670:	0252      	lsls	r2, r2, #9
10041672:	0b12      	lsrs	r2, r2, #12
10041674:	e7d7      	b.n	10041626 <__aeabi_ddiv+0x5d6>
10041676:	46c0      	nop			@ (mov r8, r8)
10041678:	000003ff 	.word	0x000003ff
1004167c:	fffffc02 	.word	0xfffffc02
10041680:	000007ff 	.word	0x000007ff
10041684:	0000041e 	.word	0x0000041e
10041688:	0000043e 	.word	0x0000043e

1004168c <__aeabi_dmul>:
1004168c:	b5f0      	push	{r4, r5, r6, r7, lr}
1004168e:	4657      	mov	r7, sl
10041690:	464e      	mov	r6, r9
10041692:	4645      	mov	r5, r8
10041694:	46de      	mov	lr, fp
10041696:	b5e0      	push	{r5, r6, r7, lr}
10041698:	001f      	movs	r7, r3
1004169a:	030b      	lsls	r3, r1, #12
1004169c:	0b1b      	lsrs	r3, r3, #12
1004169e:	0016      	movs	r6, r2
100416a0:	4698      	mov	r8, r3
100416a2:	0fca      	lsrs	r2, r1, #31
100416a4:	004b      	lsls	r3, r1, #1
100416a6:	0004      	movs	r4, r0
100416a8:	4692      	mov	sl, r2
100416aa:	b085      	sub	sp, #20
100416ac:	0d5b      	lsrs	r3, r3, #21
100416ae:	d100      	bne.n	100416b2 <__aeabi_dmul+0x26>
100416b0:	e1c2      	b.n	10041a38 <__aeabi_dmul+0x3ac>
100416b2:	4acc      	ldr	r2, [pc, #816]	@ (100419e4 <__aeabi_dmul+0x358>)
100416b4:	4293      	cmp	r3, r2
100416b6:	d100      	bne.n	100416ba <__aeabi_dmul+0x2e>
100416b8:	e128      	b.n	1004190c <__aeabi_dmul+0x280>
100416ba:	4641      	mov	r1, r8
100416bc:	0f42      	lsrs	r2, r0, #29
100416be:	00c9      	lsls	r1, r1, #3
100416c0:	430a      	orrs	r2, r1
100416c2:	2180      	movs	r1, #128	@ 0x80
100416c4:	0409      	lsls	r1, r1, #16
100416c6:	4311      	orrs	r1, r2
100416c8:	00c2      	lsls	r2, r0, #3
100416ca:	4691      	mov	r9, r2
100416cc:	4ac6      	ldr	r2, [pc, #792]	@ (100419e8 <__aeabi_dmul+0x35c>)
100416ce:	4688      	mov	r8, r1
100416d0:	4693      	mov	fp, r2
100416d2:	449b      	add	fp, r3
100416d4:	2300      	movs	r3, #0
100416d6:	2500      	movs	r5, #0
100416d8:	9301      	str	r3, [sp, #4]
100416da:	033c      	lsls	r4, r7, #12
100416dc:	007a      	lsls	r2, r7, #1
100416de:	0ffb      	lsrs	r3, r7, #31
100416e0:	0030      	movs	r0, r6
100416e2:	0b24      	lsrs	r4, r4, #12
100416e4:	0d52      	lsrs	r2, r2, #21
100416e6:	9300      	str	r3, [sp, #0]
100416e8:	d100      	bne.n	100416ec <__aeabi_dmul+0x60>
100416ea:	e185      	b.n	100419f8 <__aeabi_dmul+0x36c>
100416ec:	4bbd      	ldr	r3, [pc, #756]	@ (100419e4 <__aeabi_dmul+0x358>)
100416ee:	429a      	cmp	r2, r3
100416f0:	d100      	bne.n	100416f4 <__aeabi_dmul+0x68>
100416f2:	e160      	b.n	100419b6 <__aeabi_dmul+0x32a>
100416f4:	4bbc      	ldr	r3, [pc, #752]	@ (100419e8 <__aeabi_dmul+0x35c>)
100416f6:	469c      	mov	ip, r3
100416f8:	4462      	add	r2, ip
100416fa:	4493      	add	fp, r2
100416fc:	2d0a      	cmp	r5, #10
100416fe:	dd00      	ble.n	10041702 <__aeabi_dmul+0x76>
10041700:	e114      	b.n	1004192c <__aeabi_dmul+0x2a0>
10041702:	0f73      	lsrs	r3, r6, #29
10041704:	00e4      	lsls	r4, r4, #3
10041706:	431c      	orrs	r4, r3
10041708:	2380      	movs	r3, #128	@ 0x80
1004170a:	041b      	lsls	r3, r3, #16
1004170c:	4323      	orrs	r3, r4
1004170e:	00f0      	lsls	r0, r6, #3
10041710:	4652      	mov	r2, sl
10041712:	9900      	ldr	r1, [sp, #0]
10041714:	2600      	movs	r6, #0
10041716:	404a      	eors	r2, r1
10041718:	4692      	mov	sl, r2
1004171a:	2d02      	cmp	r5, #2
1004171c:	dd11      	ble.n	10041742 <__aeabi_dmul+0xb6>
1004171e:	2201      	movs	r2, #1
10041720:	40aa      	lsls	r2, r5
10041722:	21a6      	movs	r1, #166	@ 0xa6
10041724:	0014      	movs	r4, r2
10041726:	00c9      	lsls	r1, r1, #3
10041728:	400c      	ands	r4, r1
1004172a:	420a      	tst	r2, r1
1004172c:	d000      	beq.n	10041730 <__aeabi_dmul+0xa4>
1004172e:	e0fd      	b.n	1004192c <__aeabi_dmul+0x2a0>
10041730:	2190      	movs	r1, #144	@ 0x90
10041732:	0089      	lsls	r1, r1, #2
10041734:	420a      	tst	r2, r1
10041736:	d000      	beq.n	1004173a <__aeabi_dmul+0xae>
10041738:	e1d4      	b.n	10041ae4 <__aeabi_dmul+0x458>
1004173a:	2188      	movs	r1, #136	@ 0x88
1004173c:	4211      	tst	r1, r2
1004173e:	d000      	beq.n	10041742 <__aeabi_dmul+0xb6>
10041740:	e0ef      	b.n	10041922 <__aeabi_dmul+0x296>
10041742:	4649      	mov	r1, r9
10041744:	464a      	mov	r2, r9
10041746:	0409      	lsls	r1, r1, #16
10041748:	0c14      	lsrs	r4, r2, #16
1004174a:	0c09      	lsrs	r1, r1, #16
1004174c:	0c02      	lsrs	r2, r0, #16
1004174e:	000f      	movs	r7, r1
10041750:	0015      	movs	r5, r2
10041752:	0400      	lsls	r0, r0, #16
10041754:	0c00      	lsrs	r0, r0, #16
10041756:	4365      	muls	r5, r4
10041758:	4347      	muls	r7, r0
1004175a:	9501      	str	r5, [sp, #4]
1004175c:	46b9      	mov	r9, r7
1004175e:	002f      	movs	r7, r5
10041760:	000d      	movs	r5, r1
10041762:	0006      	movs	r6, r0
10041764:	4355      	muls	r5, r2
10041766:	46ac      	mov	ip, r5
10041768:	464d      	mov	r5, r9
1004176a:	4366      	muls	r6, r4
1004176c:	0c2d      	lsrs	r5, r5, #16
1004176e:	44b4      	add	ip, r6
10041770:	4465      	add	r5, ip
10041772:	42ae      	cmp	r6, r5
10041774:	d905      	bls.n	10041782 <__aeabi_dmul+0xf6>
10041776:	003e      	movs	r6, r7
10041778:	2780      	movs	r7, #128	@ 0x80
1004177a:	027f      	lsls	r7, r7, #9
1004177c:	46bc      	mov	ip, r7
1004177e:	4466      	add	r6, ip
10041780:	9601      	str	r6, [sp, #4]
10041782:	464f      	mov	r7, r9
10041784:	043f      	lsls	r7, r7, #16
10041786:	0c3f      	lsrs	r7, r7, #16
10041788:	0c2e      	lsrs	r6, r5, #16
1004178a:	042d      	lsls	r5, r5, #16
1004178c:	19ed      	adds	r5, r5, r7
1004178e:	9502      	str	r5, [sp, #8]
10041790:	0c1d      	lsrs	r5, r3, #16
10041792:	041b      	lsls	r3, r3, #16
10041794:	0c1b      	lsrs	r3, r3, #16
10041796:	9500      	str	r5, [sp, #0]
10041798:	001d      	movs	r5, r3
1004179a:	001f      	movs	r7, r3
1004179c:	4365      	muls	r5, r4
1004179e:	434f      	muls	r7, r1
100417a0:	46ac      	mov	ip, r5
100417a2:	9d00      	ldr	r5, [sp, #0]
100417a4:	4369      	muls	r1, r5
100417a6:	436c      	muls	r4, r5
100417a8:	0c3d      	lsrs	r5, r7, #16
100417aa:	46a9      	mov	r9, r5
100417ac:	4461      	add	r1, ip
100417ae:	4449      	add	r1, r9
100417b0:	458c      	cmp	ip, r1
100417b2:	d903      	bls.n	100417bc <__aeabi_dmul+0x130>
100417b4:	2580      	movs	r5, #128	@ 0x80
100417b6:	026d      	lsls	r5, r5, #9
100417b8:	46ac      	mov	ip, r5
100417ba:	4464      	add	r4, ip
100417bc:	043f      	lsls	r7, r7, #16
100417be:	0c0d      	lsrs	r5, r1, #16
100417c0:	0c3f      	lsrs	r7, r7, #16
100417c2:	0409      	lsls	r1, r1, #16
100417c4:	19c9      	adds	r1, r1, r7
100417c6:	46ac      	mov	ip, r5
100417c8:	1875      	adds	r5, r6, r1
100417ca:	9503      	str	r5, [sp, #12]
100417cc:	4645      	mov	r5, r8
100417ce:	042e      	lsls	r6, r5, #16
100417d0:	0c36      	lsrs	r6, r6, #16
100417d2:	0c2f      	lsrs	r7, r5, #16
100417d4:	0035      	movs	r5, r6
100417d6:	4345      	muls	r5, r0
100417d8:	4378      	muls	r0, r7
100417da:	4680      	mov	r8, r0
100417dc:	0038      	movs	r0, r7
100417de:	4464      	add	r4, ip
100417e0:	46ac      	mov	ip, r5
100417e2:	0c2d      	lsrs	r5, r5, #16
100417e4:	46a9      	mov	r9, r5
100417e6:	4350      	muls	r0, r2
100417e8:	4372      	muls	r2, r6
100417ea:	4442      	add	r2, r8
100417ec:	444a      	add	r2, r9
100417ee:	4590      	cmp	r8, r2
100417f0:	d903      	bls.n	100417fa <__aeabi_dmul+0x16e>
100417f2:	2580      	movs	r5, #128	@ 0x80
100417f4:	026d      	lsls	r5, r5, #9
100417f6:	46a8      	mov	r8, r5
100417f8:	4440      	add	r0, r8
100417fa:	0c15      	lsrs	r5, r2, #16
100417fc:	46a8      	mov	r8, r5
100417fe:	4665      	mov	r5, ip
10041800:	042d      	lsls	r5, r5, #16
10041802:	0c2d      	lsrs	r5, r5, #16
10041804:	46ac      	mov	ip, r5
10041806:	0035      	movs	r5, r6
10041808:	435d      	muls	r5, r3
1004180a:	0412      	lsls	r2, r2, #16
1004180c:	4462      	add	r2, ip
1004180e:	46ac      	mov	ip, r5
10041810:	437b      	muls	r3, r7
10041812:	9d00      	ldr	r5, [sp, #0]
10041814:	4440      	add	r0, r8
10041816:	4698      	mov	r8, r3
10041818:	002b      	movs	r3, r5
1004181a:	436e      	muls	r6, r5
1004181c:	4665      	mov	r5, ip
1004181e:	437b      	muls	r3, r7
10041820:	4446      	add	r6, r8
10041822:	0c2d      	lsrs	r5, r5, #16
10041824:	19ad      	adds	r5, r5, r6
10041826:	001f      	movs	r7, r3
10041828:	9300      	str	r3, [sp, #0]
1004182a:	45a8      	cmp	r8, r5
1004182c:	d904      	bls.n	10041838 <__aeabi_dmul+0x1ac>
1004182e:	2380      	movs	r3, #128	@ 0x80
10041830:	025b      	lsls	r3, r3, #9
10041832:	4698      	mov	r8, r3
10041834:	4447      	add	r7, r8
10041836:	9700      	str	r7, [sp, #0]
10041838:	9b03      	ldr	r3, [sp, #12]
1004183a:	9e01      	ldr	r6, [sp, #4]
1004183c:	4698      	mov	r8, r3
1004183e:	042b      	lsls	r3, r5, #16
10041840:	4446      	add	r6, r8
10041842:	4698      	mov	r8, r3
10041844:	4663      	mov	r3, ip
10041846:	428e      	cmp	r6, r1
10041848:	4189      	sbcs	r1, r1
1004184a:	041b      	lsls	r3, r3, #16
1004184c:	0c1b      	lsrs	r3, r3, #16
1004184e:	4443      	add	r3, r8
10041850:	18b6      	adds	r6, r6, r2
10041852:	4249      	negs	r1, r1
10041854:	191b      	adds	r3, r3, r4
10041856:	185f      	adds	r7, r3, r1
10041858:	4296      	cmp	r6, r2
1004185a:	4192      	sbcs	r2, r2
1004185c:	46bc      	mov	ip, r7
1004185e:	4252      	negs	r2, r2
10041860:	4680      	mov	r8, r0
10041862:	4691      	mov	r9, r2
10041864:	458c      	cmp	ip, r1
10041866:	4189      	sbcs	r1, r1
10041868:	42a3      	cmp	r3, r4
1004186a:	419b      	sbcs	r3, r3
1004186c:	44e0      	add	r8, ip
1004186e:	44c1      	add	r9, r8
10041870:	4249      	negs	r1, r1
10041872:	425b      	negs	r3, r3
10041874:	4591      	cmp	r9, r2
10041876:	4192      	sbcs	r2, r2
10041878:	430b      	orrs	r3, r1
1004187a:	4580      	cmp	r8, r0
1004187c:	4189      	sbcs	r1, r1
1004187e:	0c2d      	lsrs	r5, r5, #16
10041880:	4249      	negs	r1, r1
10041882:	4252      	negs	r2, r2
10041884:	430a      	orrs	r2, r1
10041886:	195b      	adds	r3, r3, r5
10041888:	189b      	adds	r3, r3, r2
1004188a:	9a00      	ldr	r2, [sp, #0]
1004188c:	9902      	ldr	r1, [sp, #8]
1004188e:	4694      	mov	ip, r2
10041890:	464a      	mov	r2, r9
10041892:	4463      	add	r3, ip
10041894:	025b      	lsls	r3, r3, #9
10041896:	0dd2      	lsrs	r2, r2, #23
10041898:	431a      	orrs	r2, r3
1004189a:	4690      	mov	r8, r2
1004189c:	0272      	lsls	r2, r6, #9
1004189e:	430a      	orrs	r2, r1
100418a0:	1e51      	subs	r1, r2, #1
100418a2:	418a      	sbcs	r2, r1
100418a4:	0df6      	lsrs	r6, r6, #23
100418a6:	4316      	orrs	r6, r2
100418a8:	464a      	mov	r2, r9
100418aa:	0252      	lsls	r2, r2, #9
100418ac:	4316      	orrs	r6, r2
100418ae:	46b1      	mov	r9, r6
100418b0:	01db      	lsls	r3, r3, #7
100418b2:	d454      	bmi.n	1004195e <__aeabi_dmul+0x2d2>
100418b4:	4a4d      	ldr	r2, [pc, #308]	@ (100419ec <__aeabi_dmul+0x360>)
100418b6:	445a      	add	r2, fp
100418b8:	2a00      	cmp	r2, #0
100418ba:	dc00      	bgt.n	100418be <__aeabi_dmul+0x232>
100418bc:	e118      	b.n	10041af0 <__aeabi_dmul+0x464>
100418be:	0033      	movs	r3, r6
100418c0:	075b      	lsls	r3, r3, #29
100418c2:	d015      	beq.n	100418f0 <__aeabi_dmul+0x264>
100418c4:	210f      	movs	r1, #15
100418c6:	465b      	mov	r3, fp
100418c8:	4031      	ands	r1, r6
100418ca:	2904      	cmp	r1, #4
100418cc:	d010      	beq.n	100418f0 <__aeabi_dmul+0x264>
100418ce:	4649      	mov	r1, r9
100418d0:	1d08      	adds	r0, r1, #4
100418d2:	4548      	cmp	r0, r9
100418d4:	4189      	sbcs	r1, r1
100418d6:	4681      	mov	r9, r0
100418d8:	4249      	negs	r1, r1
100418da:	4488      	add	r8, r1
100418dc:	4641      	mov	r1, r8
100418de:	01c9      	lsls	r1, r1, #7
100418e0:	d506      	bpl.n	100418f0 <__aeabi_dmul+0x264>
100418e2:	4641      	mov	r1, r8
100418e4:	4a42      	ldr	r2, [pc, #264]	@ (100419f0 <__aeabi_dmul+0x364>)
100418e6:	4011      	ands	r1, r2
100418e8:	2280      	movs	r2, #128	@ 0x80
100418ea:	4688      	mov	r8, r1
100418ec:	00d2      	lsls	r2, r2, #3
100418ee:	189a      	adds	r2, r3, r2
100418f0:	4b40      	ldr	r3, [pc, #256]	@ (100419f4 <__aeabi_dmul+0x368>)
100418f2:	429a      	cmp	r2, r3
100418f4:	dd00      	ble.n	100418f8 <__aeabi_dmul+0x26c>
100418f6:	e12b      	b.n	10041b50 <__aeabi_dmul+0x4c4>
100418f8:	4641      	mov	r1, r8
100418fa:	464b      	mov	r3, r9
100418fc:	074c      	lsls	r4, r1, #29
100418fe:	08db      	lsrs	r3, r3, #3
10041900:	431c      	orrs	r4, r3
10041902:	0552      	lsls	r2, r2, #21
10041904:	024b      	lsls	r3, r1, #9
10041906:	0b1b      	lsrs	r3, r3, #12
10041908:	0d52      	lsrs	r2, r2, #21
1004190a:	e01a      	b.n	10041942 <__aeabi_dmul+0x2b6>
1004190c:	4642      	mov	r2, r8
1004190e:	4302      	orrs	r2, r0
10041910:	4691      	mov	r9, r2
10041912:	d000      	beq.n	10041916 <__aeabi_dmul+0x28a>
10041914:	e0e0      	b.n	10041ad8 <__aeabi_dmul+0x44c>
10041916:	469b      	mov	fp, r3
10041918:	2302      	movs	r3, #2
1004191a:	4690      	mov	r8, r2
1004191c:	2508      	movs	r5, #8
1004191e:	9301      	str	r3, [sp, #4]
10041920:	e6db      	b.n	100416da <__aeabi_dmul+0x4e>
10041922:	9a00      	ldr	r2, [sp, #0]
10041924:	4698      	mov	r8, r3
10041926:	4692      	mov	sl, r2
10041928:	4681      	mov	r9, r0
1004192a:	9601      	str	r6, [sp, #4]
1004192c:	9b01      	ldr	r3, [sp, #4]
1004192e:	2b02      	cmp	r3, #2
10041930:	d100      	bne.n	10041934 <__aeabi_dmul+0x2a8>
10041932:	e10d      	b.n	10041b50 <__aeabi_dmul+0x4c4>
10041934:	2b03      	cmp	r3, #3
10041936:	d035      	beq.n	100419a4 <__aeabi_dmul+0x318>
10041938:	2b01      	cmp	r3, #1
1004193a:	d11b      	bne.n	10041974 <__aeabi_dmul+0x2e8>
1004193c:	2200      	movs	r2, #0
1004193e:	2300      	movs	r3, #0
10041940:	2400      	movs	r4, #0
10041942:	0512      	lsls	r2, r2, #20
10041944:	431a      	orrs	r2, r3
10041946:	4653      	mov	r3, sl
10041948:	07db      	lsls	r3, r3, #31
1004194a:	431a      	orrs	r2, r3
1004194c:	0020      	movs	r0, r4
1004194e:	0011      	movs	r1, r2
10041950:	b005      	add	sp, #20
10041952:	bcf0      	pop	{r4, r5, r6, r7}
10041954:	46bb      	mov	fp, r7
10041956:	46b2      	mov	sl, r6
10041958:	46a9      	mov	r9, r5
1004195a:	46a0      	mov	r8, r4
1004195c:	bdf0      	pop	{r4, r5, r6, r7, pc}
1004195e:	2201      	movs	r2, #1
10041960:	0873      	lsrs	r3, r6, #1
10041962:	4032      	ands	r2, r6
10041964:	4313      	orrs	r3, r2
10041966:	4642      	mov	r2, r8
10041968:	07d2      	lsls	r2, r2, #31
1004196a:	4313      	orrs	r3, r2
1004196c:	4699      	mov	r9, r3
1004196e:	4643      	mov	r3, r8
10041970:	085b      	lsrs	r3, r3, #1
10041972:	4698      	mov	r8, r3
10041974:	2280      	movs	r2, #128	@ 0x80
10041976:	465b      	mov	r3, fp
10041978:	00d2      	lsls	r2, r2, #3
1004197a:	445a      	add	r2, fp
1004197c:	3301      	adds	r3, #1
1004197e:	2a00      	cmp	r2, #0
10041980:	dc00      	bgt.n	10041984 <__aeabi_dmul+0x2f8>
10041982:	e0b6      	b.n	10041af2 <__aeabi_dmul+0x466>
10041984:	4649      	mov	r1, r9
10041986:	0749      	lsls	r1, r1, #29
10041988:	d0a8      	beq.n	100418dc <__aeabi_dmul+0x250>
1004198a:	210f      	movs	r1, #15
1004198c:	4648      	mov	r0, r9
1004198e:	4001      	ands	r1, r0
10041990:	2904      	cmp	r1, #4
10041992:	d19c      	bne.n	100418ce <__aeabi_dmul+0x242>
10041994:	e7a2      	b.n	100418dc <__aeabi_dmul+0x250>
10041996:	2d0f      	cmp	r5, #15
10041998:	d100      	bne.n	1004199c <__aeabi_dmul+0x310>
1004199a:	e0fd      	b.n	10041b98 <__aeabi_dmul+0x50c>
1004199c:	9b00      	ldr	r3, [sp, #0]
1004199e:	46a0      	mov	r8, r4
100419a0:	469a      	mov	sl, r3
100419a2:	46b1      	mov	r9, r6
100419a4:	2380      	movs	r3, #128	@ 0x80
100419a6:	4642      	mov	r2, r8
100419a8:	031b      	lsls	r3, r3, #12
100419aa:	4313      	orrs	r3, r2
100419ac:	031b      	lsls	r3, r3, #12
100419ae:	464c      	mov	r4, r9
100419b0:	4a0c      	ldr	r2, [pc, #48]	@ (100419e4 <__aeabi_dmul+0x358>)
100419b2:	0b1b      	lsrs	r3, r3, #12
100419b4:	e7c5      	b.n	10041942 <__aeabi_dmul+0x2b6>
100419b6:	490b      	ldr	r1, [pc, #44]	@ (100419e4 <__aeabi_dmul+0x358>)
100419b8:	0033      	movs	r3, r6
100419ba:	468c      	mov	ip, r1
100419bc:	4323      	orrs	r3, r4
100419be:	44e3      	add	fp, ip
100419c0:	2b00      	cmp	r3, #0
100419c2:	d177      	bne.n	10041ab4 <__aeabi_dmul+0x428>
100419c4:	2102      	movs	r1, #2
100419c6:	4329      	orrs	r1, r5
100419c8:	290a      	cmp	r1, #10
100419ca:	dcaf      	bgt.n	1004192c <__aeabi_dmul+0x2a0>
100419cc:	4650      	mov	r0, sl
100419ce:	9c00      	ldr	r4, [sp, #0]
100419d0:	4060      	eors	r0, r4
100419d2:	4682      	mov	sl, r0
100419d4:	2d00      	cmp	r5, #0
100419d6:	d100      	bne.n	100419da <__aeabi_dmul+0x34e>
100419d8:	e10e      	b.n	10041bf8 <__aeabi_dmul+0x56c>
100419da:	000d      	movs	r5, r1
100419dc:	2000      	movs	r0, #0
100419de:	2602      	movs	r6, #2
100419e0:	e69d      	b.n	1004171e <__aeabi_dmul+0x92>
100419e2:	46c0      	nop			@ (mov r8, r8)
100419e4:	000007ff 	.word	0x000007ff
100419e8:	fffffc01 	.word	0xfffffc01
100419ec:	000003ff 	.word	0x000003ff
100419f0:	feffffff 	.word	0xfeffffff
100419f4:	000007fe 	.word	0x000007fe
100419f8:	0023      	movs	r3, r4
100419fa:	4333      	orrs	r3, r6
100419fc:	d04b      	beq.n	10041a96 <__aeabi_dmul+0x40a>
100419fe:	2c00      	cmp	r4, #0
10041a00:	d100      	bne.n	10041a04 <__aeabi_dmul+0x378>
10041a02:	e0bb      	b.n	10041b7c <__aeabi_dmul+0x4f0>
10041a04:	0020      	movs	r0, r4
10041a06:	f000 fedd 	bl	100427c4 <__clzsi2>
10041a0a:	0003      	movs	r3, r0
10041a0c:	0002      	movs	r2, r0
10041a0e:	3b0b      	subs	r3, #11
10041a10:	201d      	movs	r0, #29
10041a12:	1ac3      	subs	r3, r0, r3
10041a14:	0030      	movs	r0, r6
10041a16:	40d8      	lsrs	r0, r3
10041a18:	0011      	movs	r1, r2
10041a1a:	0003      	movs	r3, r0
10041a1c:	0030      	movs	r0, r6
10041a1e:	3908      	subs	r1, #8
10041a20:	408c      	lsls	r4, r1
10041a22:	4088      	lsls	r0, r1
10041a24:	4323      	orrs	r3, r4
10041a26:	4659      	mov	r1, fp
10041a28:	1a8a      	subs	r2, r1, r2
10041a2a:	4978      	ldr	r1, [pc, #480]	@ (10041c0c <__aeabi_dmul+0x580>)
10041a2c:	468b      	mov	fp, r1
10041a2e:	4493      	add	fp, r2
10041a30:	2d0a      	cmp	r5, #10
10041a32:	dc00      	bgt.n	10041a36 <__aeabi_dmul+0x3aa>
10041a34:	e66c      	b.n	10041710 <__aeabi_dmul+0x84>
10041a36:	e779      	b.n	1004192c <__aeabi_dmul+0x2a0>
10041a38:	4643      	mov	r3, r8
10041a3a:	4303      	orrs	r3, r0
10041a3c:	4699      	mov	r9, r3
10041a3e:	d023      	beq.n	10041a88 <__aeabi_dmul+0x3fc>
10041a40:	4643      	mov	r3, r8
10041a42:	2b00      	cmp	r3, #0
10041a44:	d100      	bne.n	10041a48 <__aeabi_dmul+0x3bc>
10041a46:	e087      	b.n	10041b58 <__aeabi_dmul+0x4cc>
10041a48:	4640      	mov	r0, r8
10041a4a:	f000 febb 	bl	100427c4 <__clzsi2>
10041a4e:	230b      	movs	r3, #11
10041a50:	425b      	negs	r3, r3
10041a52:	469c      	mov	ip, r3
10041a54:	0002      	movs	r2, r0
10041a56:	4484      	add	ip, r0
10041a58:	0011      	movs	r1, r2
10041a5a:	4640      	mov	r0, r8
10041a5c:	3908      	subs	r1, #8
10041a5e:	4088      	lsls	r0, r1
10041a60:	231d      	movs	r3, #29
10041a62:	4680      	mov	r8, r0
10041a64:	4660      	mov	r0, ip
10041a66:	1a1b      	subs	r3, r3, r0
10041a68:	0020      	movs	r0, r4
10041a6a:	40d8      	lsrs	r0, r3
10041a6c:	0003      	movs	r3, r0
10041a6e:	4640      	mov	r0, r8
10041a70:	4303      	orrs	r3, r0
10041a72:	4698      	mov	r8, r3
10041a74:	0023      	movs	r3, r4
10041a76:	408b      	lsls	r3, r1
10041a78:	4699      	mov	r9, r3
10041a7a:	4b64      	ldr	r3, [pc, #400]	@ (10041c0c <__aeabi_dmul+0x580>)
10041a7c:	2500      	movs	r5, #0
10041a7e:	1a9b      	subs	r3, r3, r2
10041a80:	469b      	mov	fp, r3
10041a82:	2300      	movs	r3, #0
10041a84:	9301      	str	r3, [sp, #4]
10041a86:	e628      	b.n	100416da <__aeabi_dmul+0x4e>
10041a88:	2300      	movs	r3, #0
10041a8a:	4698      	mov	r8, r3
10041a8c:	469b      	mov	fp, r3
10041a8e:	3301      	adds	r3, #1
10041a90:	2504      	movs	r5, #4
10041a92:	9301      	str	r3, [sp, #4]
10041a94:	e621      	b.n	100416da <__aeabi_dmul+0x4e>
10041a96:	2201      	movs	r2, #1
10041a98:	4315      	orrs	r5, r2
10041a9a:	2d0a      	cmp	r5, #10
10041a9c:	dd00      	ble.n	10041aa0 <__aeabi_dmul+0x414>
10041a9e:	e745      	b.n	1004192c <__aeabi_dmul+0x2a0>
10041aa0:	4652      	mov	r2, sl
10041aa2:	9900      	ldr	r1, [sp, #0]
10041aa4:	404a      	eors	r2, r1
10041aa6:	4692      	mov	sl, r2
10041aa8:	2d02      	cmp	r5, #2
10041aaa:	dc00      	bgt.n	10041aae <__aeabi_dmul+0x422>
10041aac:	e746      	b.n	1004193c <__aeabi_dmul+0x2b0>
10041aae:	2000      	movs	r0, #0
10041ab0:	2601      	movs	r6, #1
10041ab2:	e634      	b.n	1004171e <__aeabi_dmul+0x92>
10041ab4:	2303      	movs	r3, #3
10041ab6:	431d      	orrs	r5, r3
10041ab8:	2d0a      	cmp	r5, #10
10041aba:	dd00      	ble.n	10041abe <__aeabi_dmul+0x432>
10041abc:	e76b      	b.n	10041996 <__aeabi_dmul+0x30a>
10041abe:	4653      	mov	r3, sl
10041ac0:	9a00      	ldr	r2, [sp, #0]
10041ac2:	2188      	movs	r1, #136	@ 0x88
10041ac4:	4053      	eors	r3, r2
10041ac6:	2201      	movs	r2, #1
10041ac8:	40aa      	lsls	r2, r5
10041aca:	469a      	mov	sl, r3
10041acc:	2603      	movs	r6, #3
10041ace:	0023      	movs	r3, r4
10041ad0:	4211      	tst	r1, r2
10041ad2:	d100      	bne.n	10041ad6 <__aeabi_dmul+0x44a>
10041ad4:	e635      	b.n	10041742 <__aeabi_dmul+0xb6>
10041ad6:	e724      	b.n	10041922 <__aeabi_dmul+0x296>
10041ad8:	469b      	mov	fp, r3
10041ada:	2303      	movs	r3, #3
10041adc:	4681      	mov	r9, r0
10041ade:	250c      	movs	r5, #12
10041ae0:	9301      	str	r3, [sp, #4]
10041ae2:	e5fa      	b.n	100416da <__aeabi_dmul+0x4e>
10041ae4:	2300      	movs	r3, #0
10041ae6:	469a      	mov	sl, r3
10041ae8:	2380      	movs	r3, #128	@ 0x80
10041aea:	4a49      	ldr	r2, [pc, #292]	@ (10041c10 <__aeabi_dmul+0x584>)
10041aec:	031b      	lsls	r3, r3, #12
10041aee:	e728      	b.n	10041942 <__aeabi_dmul+0x2b6>
10041af0:	465b      	mov	r3, fp
10041af2:	2101      	movs	r1, #1
10041af4:	1a89      	subs	r1, r1, r2
10041af6:	2938      	cmp	r1, #56	@ 0x38
10041af8:	dd00      	ble.n	10041afc <__aeabi_dmul+0x470>
10041afa:	e71f      	b.n	1004193c <__aeabi_dmul+0x2b0>
10041afc:	291f      	cmp	r1, #31
10041afe:	dd5a      	ble.n	10041bb6 <__aeabi_dmul+0x52a>
10041b00:	201f      	movs	r0, #31
10041b02:	4240      	negs	r0, r0
10041b04:	1a82      	subs	r2, r0, r2
10041b06:	4640      	mov	r0, r8
10041b08:	40d0      	lsrs	r0, r2
10041b0a:	2920      	cmp	r1, #32
10041b0c:	d008      	beq.n	10041b20 <__aeabi_dmul+0x494>
10041b0e:	4a41      	ldr	r2, [pc, #260]	@ (10041c14 <__aeabi_dmul+0x588>)
10041b10:	4694      	mov	ip, r2
10041b12:	4642      	mov	r2, r8
10041b14:	4463      	add	r3, ip
10041b16:	409a      	lsls	r2, r3
10041b18:	0013      	movs	r3, r2
10041b1a:	464a      	mov	r2, r9
10041b1c:	431a      	orrs	r2, r3
10041b1e:	4691      	mov	r9, r2
10041b20:	464a      	mov	r2, r9
10041b22:	2107      	movs	r1, #7
10041b24:	1e53      	subs	r3, r2, #1
10041b26:	419a      	sbcs	r2, r3
10041b28:	000c      	movs	r4, r1
10041b2a:	4302      	orrs	r2, r0
10041b2c:	2300      	movs	r3, #0
10041b2e:	4014      	ands	r4, r2
10041b30:	4211      	tst	r1, r2
10041b32:	d009      	beq.n	10041b48 <__aeabi_dmul+0x4bc>
10041b34:	3108      	adds	r1, #8
10041b36:	4011      	ands	r1, r2
10041b38:	2904      	cmp	r1, #4
10041b3a:	d060      	beq.n	10041bfe <__aeabi_dmul+0x572>
10041b3c:	1d11      	adds	r1, r2, #4
10041b3e:	4291      	cmp	r1, r2
10041b40:	41a4      	sbcs	r4, r4
10041b42:	000a      	movs	r2, r1
10041b44:	4264      	negs	r4, r4
10041b46:	0764      	lsls	r4, r4, #29
10041b48:	08d2      	lsrs	r2, r2, #3
10041b4a:	4314      	orrs	r4, r2
10041b4c:	2200      	movs	r2, #0
10041b4e:	e6f8      	b.n	10041942 <__aeabi_dmul+0x2b6>
10041b50:	2300      	movs	r3, #0
10041b52:	2400      	movs	r4, #0
10041b54:	4a2e      	ldr	r2, [pc, #184]	@ (10041c10 <__aeabi_dmul+0x584>)
10041b56:	e6f4      	b.n	10041942 <__aeabi_dmul+0x2b6>
10041b58:	f000 fe34 	bl	100427c4 <__clzsi2>
10041b5c:	2315      	movs	r3, #21
10041b5e:	469c      	mov	ip, r3
10041b60:	4484      	add	ip, r0
10041b62:	0002      	movs	r2, r0
10041b64:	4663      	mov	r3, ip
10041b66:	3220      	adds	r2, #32
10041b68:	2b1c      	cmp	r3, #28
10041b6a:	dc00      	bgt.n	10041b6e <__aeabi_dmul+0x4e2>
10041b6c:	e774      	b.n	10041a58 <__aeabi_dmul+0x3cc>
10041b6e:	2300      	movs	r3, #0
10041b70:	4699      	mov	r9, r3
10041b72:	0023      	movs	r3, r4
10041b74:	3808      	subs	r0, #8
10041b76:	4083      	lsls	r3, r0
10041b78:	4698      	mov	r8, r3
10041b7a:	e77e      	b.n	10041a7a <__aeabi_dmul+0x3ee>
10041b7c:	f000 fe22 	bl	100427c4 <__clzsi2>
10041b80:	0003      	movs	r3, r0
10041b82:	0002      	movs	r2, r0
10041b84:	3315      	adds	r3, #21
10041b86:	3220      	adds	r2, #32
10041b88:	2b1c      	cmp	r3, #28
10041b8a:	dc00      	bgt.n	10041b8e <__aeabi_dmul+0x502>
10041b8c:	e740      	b.n	10041a10 <__aeabi_dmul+0x384>
10041b8e:	0033      	movs	r3, r6
10041b90:	3808      	subs	r0, #8
10041b92:	4083      	lsls	r3, r0
10041b94:	2000      	movs	r0, #0
10041b96:	e746      	b.n	10041a26 <__aeabi_dmul+0x39a>
10041b98:	2380      	movs	r3, #128	@ 0x80
10041b9a:	4642      	mov	r2, r8
10041b9c:	031b      	lsls	r3, r3, #12
10041b9e:	421a      	tst	r2, r3
10041ba0:	d100      	bne.n	10041ba4 <__aeabi_dmul+0x518>
10041ba2:	e6ff      	b.n	100419a4 <__aeabi_dmul+0x318>
10041ba4:	421c      	tst	r4, r3
10041ba6:	d000      	beq.n	10041baa <__aeabi_dmul+0x51e>
10041ba8:	e6fc      	b.n	100419a4 <__aeabi_dmul+0x318>
10041baa:	9a00      	ldr	r2, [sp, #0]
10041bac:	4323      	orrs	r3, r4
10041bae:	4692      	mov	sl, r2
10041bb0:	0034      	movs	r4, r6
10041bb2:	4a17      	ldr	r2, [pc, #92]	@ (10041c10 <__aeabi_dmul+0x584>)
10041bb4:	e6c5      	b.n	10041942 <__aeabi_dmul+0x2b6>
10041bb6:	4a18      	ldr	r2, [pc, #96]	@ (10041c18 <__aeabi_dmul+0x58c>)
10041bb8:	4640      	mov	r0, r8
10041bba:	4694      	mov	ip, r2
10041bbc:	464a      	mov	r2, r9
10041bbe:	4463      	add	r3, ip
10041bc0:	4098      	lsls	r0, r3
10041bc2:	40ca      	lsrs	r2, r1
10041bc4:	4310      	orrs	r0, r2
10041bc6:	464a      	mov	r2, r9
10041bc8:	409a      	lsls	r2, r3
10041bca:	1e53      	subs	r3, r2, #1
10041bcc:	419a      	sbcs	r2, r3
10041bce:	4643      	mov	r3, r8
10041bd0:	4302      	orrs	r2, r0
10041bd2:	40cb      	lsrs	r3, r1
10041bd4:	0751      	lsls	r1, r2, #29
10041bd6:	d009      	beq.n	10041bec <__aeabi_dmul+0x560>
10041bd8:	210f      	movs	r1, #15
10041bda:	4011      	ands	r1, r2
10041bdc:	2904      	cmp	r1, #4
10041bde:	d005      	beq.n	10041bec <__aeabi_dmul+0x560>
10041be0:	1d11      	adds	r1, r2, #4
10041be2:	4291      	cmp	r1, r2
10041be4:	4192      	sbcs	r2, r2
10041be6:	4252      	negs	r2, r2
10041be8:	189b      	adds	r3, r3, r2
10041bea:	000a      	movs	r2, r1
10041bec:	0219      	lsls	r1, r3, #8
10041bee:	d508      	bpl.n	10041c02 <__aeabi_dmul+0x576>
10041bf0:	2201      	movs	r2, #1
10041bf2:	2300      	movs	r3, #0
10041bf4:	2400      	movs	r4, #0
10041bf6:	e6a4      	b.n	10041942 <__aeabi_dmul+0x2b6>
10041bf8:	2300      	movs	r3, #0
10041bfa:	2400      	movs	r4, #0
10041bfc:	e6a1      	b.n	10041942 <__aeabi_dmul+0x2b6>
10041bfe:	2400      	movs	r4, #0
10041c00:	e7a2      	b.n	10041b48 <__aeabi_dmul+0x4bc>
10041c02:	075c      	lsls	r4, r3, #29
10041c04:	025b      	lsls	r3, r3, #9
10041c06:	0b1b      	lsrs	r3, r3, #12
10041c08:	e79e      	b.n	10041b48 <__aeabi_dmul+0x4bc>
10041c0a:	46c0      	nop			@ (mov r8, r8)
10041c0c:	fffffc0d 	.word	0xfffffc0d
10041c10:	000007ff 	.word	0x000007ff
10041c14:	0000043e 	.word	0x0000043e
10041c18:	0000041e 	.word	0x0000041e

10041c1c <__aeabi_dsub>:
10041c1c:	b5f0      	push	{r4, r5, r6, r7, lr}
10041c1e:	464e      	mov	r6, r9
10041c20:	4645      	mov	r5, r8
10041c22:	46de      	mov	lr, fp
10041c24:	4657      	mov	r7, sl
10041c26:	b5e0      	push	{r5, r6, r7, lr}
10041c28:	b083      	sub	sp, #12
10041c2a:	9000      	str	r0, [sp, #0]
10041c2c:	9101      	str	r1, [sp, #4]
10041c2e:	030d      	lsls	r5, r1, #12
10041c30:	004e      	lsls	r6, r1, #1
10041c32:	9901      	ldr	r1, [sp, #4]
10041c34:	0d76      	lsrs	r6, r6, #21
10041c36:	0fcc      	lsrs	r4, r1, #31
10041c38:	0a69      	lsrs	r1, r5, #9
10041c3a:	9d00      	ldr	r5, [sp, #0]
10041c3c:	0f6d      	lsrs	r5, r5, #29
10041c3e:	430d      	orrs	r5, r1
10041c40:	9900      	ldr	r1, [sp, #0]
10041c42:	9200      	str	r2, [sp, #0]
10041c44:	9301      	str	r3, [sp, #4]
10041c46:	00c8      	lsls	r0, r1, #3
10041c48:	0319      	lsls	r1, r3, #12
10041c4a:	9b01      	ldr	r3, [sp, #4]
10041c4c:	4acb      	ldr	r2, [pc, #812]	@ (10041f7c <__aeabi_dsub+0x360>)
10041c4e:	005b      	lsls	r3, r3, #1
10041c50:	0d5b      	lsrs	r3, r3, #21
10041c52:	4699      	mov	r9, r3
10041c54:	9b01      	ldr	r3, [sp, #4]
10041c56:	4683      	mov	fp, r0
10041c58:	0fdb      	lsrs	r3, r3, #31
10041c5a:	4698      	mov	r8, r3
10041c5c:	0a4b      	lsrs	r3, r1, #9
10041c5e:	9900      	ldr	r1, [sp, #0]
10041c60:	0f49      	lsrs	r1, r1, #29
10041c62:	4319      	orrs	r1, r3
10041c64:	9b00      	ldr	r3, [sp, #0]
10041c66:	00db      	lsls	r3, r3, #3
10041c68:	469c      	mov	ip, r3
10041c6a:	469a      	mov	sl, r3
10041c6c:	4591      	cmp	r9, r2
10041c6e:	d100      	bne.n	10041c72 <__aeabi_dsub+0x56>
10041c70:	e073      	b.n	10041d5a <__aeabi_dsub+0x13e>
10041c72:	2301      	movs	r3, #1
10041c74:	4647      	mov	r7, r8
10041c76:	405f      	eors	r7, r3
10041c78:	464b      	mov	r3, r9
10041c7a:	46b8      	mov	r8, r7
10041c7c:	1af3      	subs	r3, r6, r3
10041c7e:	42bc      	cmp	r4, r7
10041c80:	d016      	beq.n	10041cb0 <__aeabi_dsub+0x94>
10041c82:	2b00      	cmp	r3, #0
10041c84:	dc00      	bgt.n	10041c88 <__aeabi_dsub+0x6c>
10041c86:	e29a      	b.n	100421be <__aeabi_dsub+0x5a2>
10041c88:	464f      	mov	r7, r9
10041c8a:	2f00      	cmp	r7, #0
10041c8c:	d000      	beq.n	10041c90 <__aeabi_dsub+0x74>
10041c8e:	e082      	b.n	10041d96 <__aeabi_dsub+0x17a>
10041c90:	4667      	mov	r7, ip
10041c92:	430f      	orrs	r7, r1
10041c94:	d100      	bne.n	10041c98 <__aeabi_dsub+0x7c>
10041c96:	e13a      	b.n	10041f0e <__aeabi_dsub+0x2f2>
10041c98:	1e5f      	subs	r7, r3, #1
10041c9a:	2b01      	cmp	r3, #1
10041c9c:	d100      	bne.n	10041ca0 <__aeabi_dsub+0x84>
10041c9e:	e2a4      	b.n	100421ea <__aeabi_dsub+0x5ce>
10041ca0:	4293      	cmp	r3, r2
10041ca2:	d100      	bne.n	10041ca6 <__aeabi_dsub+0x8a>
10041ca4:	e12e      	b.n	10041f04 <__aeabi_dsub+0x2e8>
10041ca6:	2f38      	cmp	r7, #56	@ 0x38
10041ca8:	dd00      	ble.n	10041cac <__aeabi_dsub+0x90>
10041caa:	e243      	b.n	10042134 <__aeabi_dsub+0x518>
10041cac:	003b      	movs	r3, r7
10041cae:	e13e      	b.n	10041f2e <__aeabi_dsub+0x312>
10041cb0:	2b00      	cmp	r3, #0
10041cb2:	dc00      	bgt.n	10041cb6 <__aeabi_dsub+0x9a>
10041cb4:	e2d7      	b.n	10042266 <__aeabi_dsub+0x64a>
10041cb6:	464f      	mov	r7, r9
10041cb8:	2f00      	cmp	r7, #0
10041cba:	d000      	beq.n	10041cbe <__aeabi_dsub+0xa2>
10041cbc:	e0f8      	b.n	10041eb0 <__aeabi_dsub+0x294>
10041cbe:	4667      	mov	r7, ip
10041cc0:	430f      	orrs	r7, r1
10041cc2:	d100      	bne.n	10041cc6 <__aeabi_dsub+0xaa>
10041cc4:	e123      	b.n	10041f0e <__aeabi_dsub+0x2f2>
10041cc6:	1e5f      	subs	r7, r3, #1
10041cc8:	2b01      	cmp	r3, #1
10041cca:	d100      	bne.n	10041cce <__aeabi_dsub+0xb2>
10041ccc:	e257      	b.n	1004217e <__aeabi_dsub+0x562>
10041cce:	4293      	cmp	r3, r2
10041cd0:	d100      	bne.n	10041cd4 <__aeabi_dsub+0xb8>
10041cd2:	e117      	b.n	10041f04 <__aeabi_dsub+0x2e8>
10041cd4:	2f38      	cmp	r7, #56	@ 0x38
10041cd6:	dc00      	bgt.n	10041cda <__aeabi_dsub+0xbe>
10041cd8:	e304      	b.n	100422e4 <__aeabi_dsub+0x6c8>
10041cda:	2280      	movs	r2, #128	@ 0x80
10041cdc:	0412      	lsls	r2, r2, #16
10041cde:	4215      	tst	r5, r2
10041ce0:	d100      	bne.n	10041ce4 <__aeabi_dsub+0xc8>
10041ce2:	e3aa      	b.n	1004243a <__aeabi_dsub+0x81e>
10041ce4:	001e      	movs	r6, r3
10041ce6:	0015      	movs	r5, r2
10041ce8:	2700      	movs	r7, #0
10041cea:	4ba4      	ldr	r3, [pc, #656]	@ (10041f7c <__aeabi_dsub+0x360>)
10041cec:	3601      	adds	r6, #1
10041cee:	429e      	cmp	r6, r3
10041cf0:	d100      	bne.n	10041cf4 <__aeabi_dsub+0xd8>
10041cf2:	e103      	b.n	10041efc <__aeabi_dsub+0x2e0>
10041cf4:	2201      	movs	r2, #1
10041cf6:	4ba2      	ldr	r3, [pc, #648]	@ (10041f80 <__aeabi_dsub+0x364>)
10041cf8:	403a      	ands	r2, r7
10041cfa:	401d      	ands	r5, r3
10041cfc:	0879      	lsrs	r1, r7, #1
10041cfe:	4311      	orrs	r1, r2
10041d00:	07ea      	lsls	r2, r5, #31
10041d02:	430a      	orrs	r2, r1
10041d04:	086d      	lsrs	r5, r5, #1
10041d06:	0753      	lsls	r3, r2, #29
10041d08:	d009      	beq.n	10041d1e <__aeabi_dsub+0x102>
10041d0a:	230f      	movs	r3, #15
10041d0c:	4013      	ands	r3, r2
10041d0e:	2b04      	cmp	r3, #4
10041d10:	d005      	beq.n	10041d1e <__aeabi_dsub+0x102>
10041d12:	0017      	movs	r7, r2
10041d14:	1d3a      	adds	r2, r7, #4
10041d16:	42ba      	cmp	r2, r7
10041d18:	41bf      	sbcs	r7, r7
10041d1a:	427f      	negs	r7, r7
10041d1c:	19ed      	adds	r5, r5, r7
10041d1e:	022b      	lsls	r3, r5, #8
10041d20:	d400      	bmi.n	10041d24 <__aeabi_dsub+0x108>
10041d22:	e377      	b.n	10042414 <__aeabi_dsub+0x7f8>
10041d24:	4995      	ldr	r1, [pc, #596]	@ (10041f7c <__aeabi_dsub+0x360>)
10041d26:	3601      	adds	r6, #1
10041d28:	428e      	cmp	r6, r1
10041d2a:	d100      	bne.n	10041d2e <__aeabi_dsub+0x112>
10041d2c:	e0e6      	b.n	10041efc <__aeabi_dsub+0x2e0>
10041d2e:	4994      	ldr	r1, [pc, #592]	@ (10041f80 <__aeabi_dsub+0x364>)
10041d30:	0573      	lsls	r3, r6, #21
10041d32:	400d      	ands	r5, r1
10041d34:	0d5b      	lsrs	r3, r3, #21
10041d36:	0769      	lsls	r1, r5, #29
10041d38:	08d2      	lsrs	r2, r2, #3
10041d3a:	026d      	lsls	r5, r5, #9
10041d3c:	430a      	orrs	r2, r1
10041d3e:	0b2d      	lsrs	r5, r5, #12
10041d40:	051b      	lsls	r3, r3, #20
10041d42:	432b      	orrs	r3, r5
10041d44:	07e4      	lsls	r4, r4, #31
10041d46:	4323      	orrs	r3, r4
10041d48:	0010      	movs	r0, r2
10041d4a:	0019      	movs	r1, r3
10041d4c:	b003      	add	sp, #12
10041d4e:	bcf0      	pop	{r4, r5, r6, r7}
10041d50:	46bb      	mov	fp, r7
10041d52:	46b2      	mov	sl, r6
10041d54:	46a9      	mov	r9, r5
10041d56:	46a0      	mov	r8, r4
10041d58:	bdf0      	pop	{r4, r5, r6, r7, pc}
10041d5a:	4b8a      	ldr	r3, [pc, #552]	@ (10041f84 <__aeabi_dsub+0x368>)
10041d5c:	18f2      	adds	r2, r6, r3
10041d5e:	4663      	mov	r3, ip
10041d60:	430b      	orrs	r3, r1
10041d62:	d04c      	beq.n	10041dfe <__aeabi_dsub+0x1e2>
10041d64:	4544      	cmp	r4, r8
10041d66:	d050      	beq.n	10041e0a <__aeabi_dsub+0x1ee>
10041d68:	2a00      	cmp	r2, #0
10041d6a:	d06c      	beq.n	10041e46 <__aeabi_dsub+0x22a>
10041d6c:	2e00      	cmp	r6, #0
10041d6e:	d100      	bne.n	10041d72 <__aeabi_dsub+0x156>
10041d70:	e17d      	b.n	1004206e <__aeabi_dsub+0x452>
10041d72:	4663      	mov	r3, ip
10041d74:	4644      	mov	r4, r8
10041d76:	074f      	lsls	r7, r1, #29
10041d78:	08da      	lsrs	r2, r3, #3
10041d7a:	4317      	orrs	r7, r2
10041d7c:	08c8      	lsrs	r0, r1, #3
10041d7e:	003a      	movs	r2, r7
10041d80:	4302      	orrs	r2, r0
10041d82:	d100      	bne.n	10041d86 <__aeabi_dsub+0x16a>
10041d84:	e0cd      	b.n	10041f22 <__aeabi_dsub+0x306>
10041d86:	2580      	movs	r5, #128	@ 0x80
10041d88:	032d      	lsls	r5, r5, #12
10041d8a:	4305      	orrs	r5, r0
10041d8c:	032d      	lsls	r5, r5, #12
10041d8e:	003a      	movs	r2, r7
10041d90:	4b7a      	ldr	r3, [pc, #488]	@ (10041f7c <__aeabi_dsub+0x360>)
10041d92:	0b2d      	lsrs	r5, r5, #12
10041d94:	e7d4      	b.n	10041d40 <__aeabi_dsub+0x124>
10041d96:	4296      	cmp	r6, r2
10041d98:	d100      	bne.n	10041d9c <__aeabi_dsub+0x180>
10041d9a:	e0b3      	b.n	10041f04 <__aeabi_dsub+0x2e8>
10041d9c:	2b38      	cmp	r3, #56	@ 0x38
10041d9e:	dc00      	bgt.n	10041da2 <__aeabi_dsub+0x186>
10041da0:	e0c2      	b.n	10041f28 <__aeabi_dsub+0x30c>
10041da2:	1e47      	subs	r7, r0, #1
10041da4:	42b8      	cmp	r0, r7
10041da6:	4180      	sbcs	r0, r0
10041da8:	4240      	negs	r0, r0
10041daa:	1a2d      	subs	r5, r5, r0
10041dac:	022b      	lsls	r3, r5, #8
10041dae:	d5b1      	bpl.n	10041d14 <__aeabi_dsub+0xf8>
10041db0:	2701      	movs	r7, #1
10041db2:	4d75      	ldr	r5, [pc, #468]	@ (10041f88 <__aeabi_dsub+0x36c>)
10041db4:	427f      	negs	r7, r7
10041db6:	0028      	movs	r0, r5
10041db8:	f000 fd04 	bl	100427c4 <__clzsi2>
10041dbc:	3808      	subs	r0, #8
10041dbe:	2320      	movs	r3, #32
10041dc0:	0039      	movs	r1, r7
10041dc2:	1a1a      	subs	r2, r3, r0
10041dc4:	4085      	lsls	r5, r0
10041dc6:	40d1      	lsrs	r1, r2
10041dc8:	4087      	lsls	r7, r0
10041dca:	4329      	orrs	r1, r5
10041dcc:	42b0      	cmp	r0, r6
10041dce:	da00      	bge.n	10041dd2 <__aeabi_dsub+0x1b6>
10041dd0:	e145      	b.n	1004205e <__aeabi_dsub+0x442>
10041dd2:	1b80      	subs	r0, r0, r6
10041dd4:	3001      	adds	r0, #1
10041dd6:	1a1b      	subs	r3, r3, r0
10041dd8:	003d      	movs	r5, r7
10041dda:	409f      	lsls	r7, r3
10041ddc:	40c5      	lsrs	r5, r0
10041dde:	1e7a      	subs	r2, r7, #1
10041de0:	4197      	sbcs	r7, r2
10041de2:	000a      	movs	r2, r1
10041de4:	409a      	lsls	r2, r3
10041de6:	432f      	orrs	r7, r5
10041de8:	433a      	orrs	r2, r7
10041dea:	40c1      	lsrs	r1, r0
10041dec:	0013      	movs	r3, r2
10041dee:	000d      	movs	r5, r1
10041df0:	2600      	movs	r6, #0
10041df2:	430b      	orrs	r3, r1
10041df4:	d000      	beq.n	10041df8 <__aeabi_dsub+0x1dc>
10041df6:	e786      	b.n	10041d06 <__aeabi_dsub+0xea>
10041df8:	2200      	movs	r2, #0
10041dfa:	2500      	movs	r5, #0
10041dfc:	e7a0      	b.n	10041d40 <__aeabi_dsub+0x124>
10041dfe:	4647      	mov	r7, r8
10041e00:	2301      	movs	r3, #1
10041e02:	405f      	eors	r7, r3
10041e04:	46b8      	mov	r8, r7
10041e06:	4544      	cmp	r4, r8
10041e08:	d1ae      	bne.n	10041d68 <__aeabi_dsub+0x14c>
10041e0a:	2a00      	cmp	r2, #0
10041e0c:	d100      	bne.n	10041e10 <__aeabi_dsub+0x1f4>
10041e0e:	e0ef      	b.n	10041ff0 <__aeabi_dsub+0x3d4>
10041e10:	2e00      	cmp	r6, #0
10041e12:	d000      	beq.n	10041e16 <__aeabi_dsub+0x1fa>
10041e14:	e188      	b.n	10042128 <__aeabi_dsub+0x50c>
10041e16:	464b      	mov	r3, r9
10041e18:	002a      	movs	r2, r5
10041e1a:	4302      	orrs	r2, r0
10041e1c:	d100      	bne.n	10041e20 <__aeabi_dsub+0x204>
10041e1e:	e2a0      	b.n	10042362 <__aeabi_dsub+0x746>
10041e20:	1e5a      	subs	r2, r3, #1
10041e22:	2b01      	cmp	r3, #1
10041e24:	d100      	bne.n	10041e28 <__aeabi_dsub+0x20c>
10041e26:	e2b7      	b.n	10042398 <__aeabi_dsub+0x77c>
10041e28:	4e54      	ldr	r6, [pc, #336]	@ (10041f7c <__aeabi_dsub+0x360>)
10041e2a:	42b3      	cmp	r3, r6
10041e2c:	d100      	bne.n	10041e30 <__aeabi_dsub+0x214>
10041e2e:	e17b      	b.n	10042128 <__aeabi_dsub+0x50c>
10041e30:	2a38      	cmp	r2, #56	@ 0x38
10041e32:	dc00      	bgt.n	10041e36 <__aeabi_dsub+0x21a>
10041e34:	e312      	b.n	1004245c <__aeabi_dsub+0x840>
10041e36:	2580      	movs	r5, #128	@ 0x80
10041e38:	042d      	lsls	r5, r5, #16
10041e3a:	4229      	tst	r1, r5
10041e3c:	d100      	bne.n	10041e40 <__aeabi_dsub+0x224>
10041e3e:	e312      	b.n	10042466 <__aeabi_dsub+0x84a>
10041e40:	001e      	movs	r6, r3
10041e42:	2700      	movs	r7, #0
10041e44:	e751      	b.n	10041cea <__aeabi_dsub+0xce>
10041e46:	4a51      	ldr	r2, [pc, #324]	@ (10041f8c <__aeabi_dsub+0x370>)
10041e48:	1c73      	adds	r3, r6, #1
10041e4a:	4213      	tst	r3, r2
10041e4c:	d000      	beq.n	10041e50 <__aeabi_dsub+0x234>
10041e4e:	e0f4      	b.n	1004203a <__aeabi_dsub+0x41e>
10041e50:	4662      	mov	r2, ip
10041e52:	002b      	movs	r3, r5
10041e54:	430a      	orrs	r2, r1
10041e56:	4303      	orrs	r3, r0
10041e58:	2e00      	cmp	r6, #0
10041e5a:	d000      	beq.n	10041e5e <__aeabi_dsub+0x242>
10041e5c:	e174      	b.n	10042148 <__aeabi_dsub+0x52c>
10041e5e:	2b00      	cmp	r3, #0
10041e60:	d100      	bne.n	10041e64 <__aeabi_dsub+0x248>
10041e62:	e223      	b.n	100422ac <__aeabi_dsub+0x690>
10041e64:	2a00      	cmp	r2, #0
10041e66:	d100      	bne.n	10041e6a <__aeabi_dsub+0x24e>
10041e68:	e0e0      	b.n	1004202c <__aeabi_dsub+0x410>
10041e6a:	4663      	mov	r3, ip
10041e6c:	1ac7      	subs	r7, r0, r3
10041e6e:	42b8      	cmp	r0, r7
10041e70:	4192      	sbcs	r2, r2
10041e72:	2680      	movs	r6, #128	@ 0x80
10041e74:	1a6b      	subs	r3, r5, r1
10041e76:	4252      	negs	r2, r2
10041e78:	1a9b      	subs	r3, r3, r2
10041e7a:	0436      	lsls	r6, r6, #16
10041e7c:	4233      	tst	r3, r6
10041e7e:	d100      	bne.n	10041e82 <__aeabi_dsub+0x266>
10041e80:	e2c1      	b.n	10042406 <__aeabi_dsub+0x7ea>
10041e82:	4663      	mov	r3, ip
10041e84:	1a18      	subs	r0, r3, r0
10041e86:	4584      	cmp	ip, r0
10041e88:	4192      	sbcs	r2, r2
10041e8a:	1b4d      	subs	r5, r1, r5
10041e8c:	4252      	negs	r2, r2
10041e8e:	1aad      	subs	r5, r5, r2
10041e90:	2401      	movs	r4, #1
10041e92:	0002      	movs	r2, r0
10041e94:	4643      	mov	r3, r8
10041e96:	432a      	orrs	r2, r5
10041e98:	401c      	ands	r4, r3
10041e9a:	2a00      	cmp	r2, #0
10041e9c:	d100      	bne.n	10041ea0 <__aeabi_dsub+0x284>
10041e9e:	e0db      	b.n	10042058 <__aeabi_dsub+0x43c>
10041ea0:	4235      	tst	r5, r6
10041ea2:	d100      	bne.n	10041ea6 <__aeabi_dsub+0x28a>
10041ea4:	e2e9      	b.n	1004247a <__aeabi_dsub+0x85e>
10041ea6:	4b36      	ldr	r3, [pc, #216]	@ (10041f80 <__aeabi_dsub+0x364>)
10041ea8:	0002      	movs	r2, r0
10041eaa:	401d      	ands	r5, r3
10041eac:	2301      	movs	r3, #1
10041eae:	e742      	b.n	10041d36 <__aeabi_dsub+0x11a>
10041eb0:	4296      	cmp	r6, r2
10041eb2:	d027      	beq.n	10041f04 <__aeabi_dsub+0x2e8>
10041eb4:	2b38      	cmp	r3, #56	@ 0x38
10041eb6:	dd00      	ble.n	10041eba <__aeabi_dsub+0x29e>
10041eb8:	e111      	b.n	100420de <__aeabi_dsub+0x4c2>
10041eba:	2280      	movs	r2, #128	@ 0x80
10041ebc:	0412      	lsls	r2, r2, #16
10041ebe:	4311      	orrs	r1, r2
10041ec0:	2b1f      	cmp	r3, #31
10041ec2:	dd00      	ble.n	10041ec6 <__aeabi_dsub+0x2aa>
10041ec4:	e1a1      	b.n	1004220a <__aeabi_dsub+0x5ee>
10041ec6:	2220      	movs	r2, #32
10041ec8:	000f      	movs	r7, r1
10041eca:	1ad2      	subs	r2, r2, r3
10041ecc:	4691      	mov	r9, r2
10041ece:	4097      	lsls	r7, r2
10041ed0:	4662      	mov	r2, ip
10041ed2:	40da      	lsrs	r2, r3
10041ed4:	4317      	orrs	r7, r2
10041ed6:	46b8      	mov	r8, r7
10041ed8:	4662      	mov	r2, ip
10041eda:	464f      	mov	r7, r9
10041edc:	40ba      	lsls	r2, r7
10041ede:	40d9      	lsrs	r1, r3
10041ee0:	1e57      	subs	r7, r2, #1
10041ee2:	41ba      	sbcs	r2, r7
10041ee4:	4647      	mov	r7, r8
10041ee6:	186d      	adds	r5, r5, r1
10041ee8:	4317      	orrs	r7, r2
10041eea:	183f      	adds	r7, r7, r0
10041eec:	4287      	cmp	r7, r0
10041eee:	4180      	sbcs	r0, r0
10041ef0:	4240      	negs	r0, r0
10041ef2:	182d      	adds	r5, r5, r0
10041ef4:	022b      	lsls	r3, r5, #8
10041ef6:	d500      	bpl.n	10041efa <__aeabi_dsub+0x2de>
10041ef8:	e6f7      	b.n	10041cea <__aeabi_dsub+0xce>
10041efa:	e034      	b.n	10041f66 <__aeabi_dsub+0x34a>
10041efc:	0033      	movs	r3, r6
10041efe:	2500      	movs	r5, #0
10041f00:	2200      	movs	r2, #0
10041f02:	e71d      	b.n	10041d40 <__aeabi_dsub+0x124>
10041f04:	08c0      	lsrs	r0, r0, #3
10041f06:	076f      	lsls	r7, r5, #29
10041f08:	4307      	orrs	r7, r0
10041f0a:	08e8      	lsrs	r0, r5, #3
10041f0c:	e737      	b.n	10041d7e <__aeabi_dsub+0x162>
10041f0e:	08c7      	lsrs	r7, r0, #3
10041f10:	076a      	lsls	r2, r5, #29
10041f12:	4317      	orrs	r7, r2
10041f14:	4a19      	ldr	r2, [pc, #100]	@ (10041f7c <__aeabi_dsub+0x360>)
10041f16:	08e8      	lsrs	r0, r5, #3
10041f18:	4293      	cmp	r3, r2
10041f1a:	d100      	bne.n	10041f1e <__aeabi_dsub+0x302>
10041f1c:	e72f      	b.n	10041d7e <__aeabi_dsub+0x162>
10041f1e:	003a      	movs	r2, r7
10041f20:	e0d8      	b.n	100420d4 <__aeabi_dsub+0x4b8>
10041f22:	4b16      	ldr	r3, [pc, #88]	@ (10041f7c <__aeabi_dsub+0x360>)
10041f24:	2500      	movs	r5, #0
10041f26:	e70b      	b.n	10041d40 <__aeabi_dsub+0x124>
10041f28:	2280      	movs	r2, #128	@ 0x80
10041f2a:	0412      	lsls	r2, r2, #16
10041f2c:	4311      	orrs	r1, r2
10041f2e:	2b1f      	cmp	r3, #31
10041f30:	dd00      	ble.n	10041f34 <__aeabi_dsub+0x318>
10041f32:	e0b7      	b.n	100420a4 <__aeabi_dsub+0x488>
10041f34:	2220      	movs	r2, #32
10041f36:	000f      	movs	r7, r1
10041f38:	1ad2      	subs	r2, r2, r3
10041f3a:	4691      	mov	r9, r2
10041f3c:	4097      	lsls	r7, r2
10041f3e:	4662      	mov	r2, ip
10041f40:	40da      	lsrs	r2, r3
10041f42:	4317      	orrs	r7, r2
10041f44:	46b8      	mov	r8, r7
10041f46:	4662      	mov	r2, ip
10041f48:	464f      	mov	r7, r9
10041f4a:	40ba      	lsls	r2, r7
10041f4c:	40d9      	lsrs	r1, r3
10041f4e:	1e57      	subs	r7, r2, #1
10041f50:	41ba      	sbcs	r2, r7
10041f52:	4647      	mov	r7, r8
10041f54:	1a6d      	subs	r5, r5, r1
10041f56:	4317      	orrs	r7, r2
10041f58:	1bc7      	subs	r7, r0, r7
10041f5a:	42b8      	cmp	r0, r7
10041f5c:	4180      	sbcs	r0, r0
10041f5e:	4240      	negs	r0, r0
10041f60:	1a2d      	subs	r5, r5, r0
10041f62:	022b      	lsls	r3, r5, #8
10041f64:	d416      	bmi.n	10041f94 <__aeabi_dsub+0x378>
10041f66:	077b      	lsls	r3, r7, #29
10041f68:	d100      	bne.n	10041f6c <__aeabi_dsub+0x350>
10041f6a:	e279      	b.n	10042460 <__aeabi_dsub+0x844>
10041f6c:	230f      	movs	r3, #15
10041f6e:	403b      	ands	r3, r7
10041f70:	2b04      	cmp	r3, #4
10041f72:	d000      	beq.n	10041f76 <__aeabi_dsub+0x35a>
10041f74:	e6ce      	b.n	10041d14 <__aeabi_dsub+0xf8>
10041f76:	0033      	movs	r3, r6
10041f78:	08ff      	lsrs	r7, r7, #3
10041f7a:	e7c9      	b.n	10041f10 <__aeabi_dsub+0x2f4>
10041f7c:	000007ff 	.word	0x000007ff
10041f80:	ff7fffff 	.word	0xff7fffff
10041f84:	fffff801 	.word	0xfffff801
10041f88:	007fffff 	.word	0x007fffff
10041f8c:	000007fe 	.word	0x000007fe
10041f90:	4644      	mov	r4, r8
10041f92:	2601      	movs	r6, #1
10041f94:	026d      	lsls	r5, r5, #9
10041f96:	0a6d      	lsrs	r5, r5, #9
10041f98:	2d00      	cmp	r5, #0
10041f9a:	d000      	beq.n	10041f9e <__aeabi_dsub+0x382>
10041f9c:	e70b      	b.n	10041db6 <__aeabi_dsub+0x19a>
10041f9e:	0038      	movs	r0, r7
10041fa0:	f000 fc10 	bl	100427c4 <__clzsi2>
10041fa4:	0003      	movs	r3, r0
10041fa6:	3018      	adds	r0, #24
10041fa8:	281f      	cmp	r0, #31
10041faa:	dc00      	bgt.n	10041fae <__aeabi_dsub+0x392>
10041fac:	e707      	b.n	10041dbe <__aeabi_dsub+0x1a2>
10041fae:	0039      	movs	r1, r7
10041fb0:	3b08      	subs	r3, #8
10041fb2:	4099      	lsls	r1, r3
10041fb4:	4286      	cmp	r6, r0
10041fb6:	dd00      	ble.n	10041fba <__aeabi_dsub+0x39e>
10041fb8:	e087      	b.n	100420ca <__aeabi_dsub+0x4ae>
10041fba:	1b83      	subs	r3, r0, r6
10041fbc:	1c58      	adds	r0, r3, #1
10041fbe:	281f      	cmp	r0, #31
10041fc0:	dc00      	bgt.n	10041fc4 <__aeabi_dsub+0x3a8>
10041fc2:	e214      	b.n	100423ee <__aeabi_dsub+0x7d2>
10041fc4:	000a      	movs	r2, r1
10041fc6:	3b1f      	subs	r3, #31
10041fc8:	40da      	lsrs	r2, r3
10041fca:	2820      	cmp	r0, #32
10041fcc:	d005      	beq.n	10041fda <__aeabi_dsub+0x3be>
10041fce:	2340      	movs	r3, #64	@ 0x40
10041fd0:	1a1b      	subs	r3, r3, r0
10041fd2:	4099      	lsls	r1, r3
10041fd4:	1e4b      	subs	r3, r1, #1
10041fd6:	4199      	sbcs	r1, r3
10041fd8:	430a      	orrs	r2, r1
10041fda:	2a00      	cmp	r2, #0
10041fdc:	d03c      	beq.n	10042058 <__aeabi_dsub+0x43c>
10041fde:	2600      	movs	r6, #0
10041fe0:	0753      	lsls	r3, r2, #29
10041fe2:	d000      	beq.n	10041fe6 <__aeabi_dsub+0x3ca>
10041fe4:	e691      	b.n	10041d0a <__aeabi_dsub+0xee>
10041fe6:	0017      	movs	r7, r2
10041fe8:	0035      	movs	r5, r6
10041fea:	0033      	movs	r3, r6
10041fec:	08ff      	lsrs	r7, r7, #3
10041fee:	e78f      	b.n	10041f10 <__aeabi_dsub+0x2f4>
10041ff0:	4aca      	ldr	r2, [pc, #808]	@ (1004231c <__aeabi_dsub+0x700>)
10041ff2:	1c73      	adds	r3, r6, #1
10041ff4:	4213      	tst	r3, r2
10041ff6:	d17a      	bne.n	100420ee <__aeabi_dsub+0x4d2>
10041ff8:	002b      	movs	r3, r5
10041ffa:	4303      	orrs	r3, r0
10041ffc:	2e00      	cmp	r6, #0
10041ffe:	d000      	beq.n	10042002 <__aeabi_dsub+0x3e6>
10042000:	e192      	b.n	10042328 <__aeabi_dsub+0x70c>
10042002:	4662      	mov	r2, ip
10042004:	430a      	orrs	r2, r1
10042006:	2b00      	cmp	r3, #0
10042008:	d100      	bne.n	1004200c <__aeabi_dsub+0x3f0>
1004200a:	e1f4      	b.n	100423f6 <__aeabi_dsub+0x7da>
1004200c:	2a00      	cmp	r2, #0
1004200e:	d00d      	beq.n	1004202c <__aeabi_dsub+0x410>
10042010:	4663      	mov	r3, ip
10042012:	18c7      	adds	r7, r0, r3
10042014:	4287      	cmp	r7, r0
10042016:	4180      	sbcs	r0, r0
10042018:	186d      	adds	r5, r5, r1
1004201a:	4240      	negs	r0, r0
1004201c:	182d      	adds	r5, r5, r0
1004201e:	022b      	lsls	r3, r5, #8
10042020:	d500      	bpl.n	10042024 <__aeabi_dsub+0x408>
10042022:	e212      	b.n	1004244a <__aeabi_dsub+0x82e>
10042024:	003a      	movs	r2, r7
10042026:	46bb      	mov	fp, r7
10042028:	432a      	orrs	r2, r5
1004202a:	d015      	beq.n	10042058 <__aeabi_dsub+0x43c>
1004202c:	465b      	mov	r3, fp
1004202e:	076a      	lsls	r2, r5, #29
10042030:	08df      	lsrs	r7, r3, #3
10042032:	433a      	orrs	r2, r7
10042034:	2300      	movs	r3, #0
10042036:	08e8      	lsrs	r0, r5, #3
10042038:	e04c      	b.n	100420d4 <__aeabi_dsub+0x4b8>
1004203a:	4663      	mov	r3, ip
1004203c:	1ac7      	subs	r7, r0, r3
1004203e:	42b8      	cmp	r0, r7
10042040:	4192      	sbcs	r2, r2
10042042:	1a6b      	subs	r3, r5, r1
10042044:	4252      	negs	r2, r2
10042046:	1a9b      	subs	r3, r3, r2
10042048:	021a      	lsls	r2, r3, #8
1004204a:	d500      	bpl.n	1004204e <__aeabi_dsub+0x432>
1004204c:	e087      	b.n	1004215e <__aeabi_dsub+0x542>
1004204e:	003a      	movs	r2, r7
10042050:	001d      	movs	r5, r3
10042052:	431a      	orrs	r2, r3
10042054:	d1a0      	bne.n	10041f98 <__aeabi_dsub+0x37c>
10042056:	2400      	movs	r4, #0
10042058:	2300      	movs	r3, #0
1004205a:	2500      	movs	r5, #0
1004205c:	e670      	b.n	10041d40 <__aeabi_dsub+0x124>
1004205e:	4db0      	ldr	r5, [pc, #704]	@ (10042320 <__aeabi_dsub+0x704>)
10042060:	1a36      	subs	r6, r6, r0
10042062:	400d      	ands	r5, r1
10042064:	077b      	lsls	r3, r7, #29
10042066:	d000      	beq.n	1004206a <__aeabi_dsub+0x44e>
10042068:	e780      	b.n	10041f6c <__aeabi_dsub+0x350>
1004206a:	0033      	movs	r3, r6
1004206c:	e784      	b.n	10041f78 <__aeabi_dsub+0x35c>
1004206e:	464b      	mov	r3, r9
10042070:	002a      	movs	r2, r5
10042072:	4302      	orrs	r2, r0
10042074:	d07e      	beq.n	10042174 <__aeabi_dsub+0x558>
10042076:	1e5a      	subs	r2, r3, #1
10042078:	2b01      	cmp	r3, #1
1004207a:	d100      	bne.n	1004207e <__aeabi_dsub+0x462>
1004207c:	e11f      	b.n	100422be <__aeabi_dsub+0x6a2>
1004207e:	4ca9      	ldr	r4, [pc, #676]	@ (10042324 <__aeabi_dsub+0x708>)
10042080:	42a3      	cmp	r3, r4
10042082:	d100      	bne.n	10042086 <__aeabi_dsub+0x46a>
10042084:	e198      	b.n	100423b8 <__aeabi_dsub+0x79c>
10042086:	2a38      	cmp	r2, #56	@ 0x38
10042088:	dc00      	bgt.n	1004208c <__aeabi_dsub+0x470>
1004208a:	e19c      	b.n	100423c6 <__aeabi_dsub+0x7aa>
1004208c:	4662      	mov	r2, ip
1004208e:	1e57      	subs	r7, r2, #1
10042090:	45bc      	cmp	ip, r7
10042092:	4192      	sbcs	r2, r2
10042094:	4252      	negs	r2, r2
10042096:	1a8d      	subs	r5, r1, r2
10042098:	4644      	mov	r4, r8
1004209a:	001e      	movs	r6, r3
1004209c:	022a      	lsls	r2, r5, #8
1004209e:	d500      	bpl.n	100420a2 <__aeabi_dsub+0x486>
100420a0:	e686      	b.n	10041db0 <__aeabi_dsub+0x194>
100420a2:	e637      	b.n	10041d14 <__aeabi_dsub+0xf8>
100420a4:	001a      	movs	r2, r3
100420a6:	000f      	movs	r7, r1
100420a8:	3a20      	subs	r2, #32
100420aa:	40d7      	lsrs	r7, r2
100420ac:	46b8      	mov	r8, r7
100420ae:	2b20      	cmp	r3, #32
100420b0:	d005      	beq.n	100420be <__aeabi_dsub+0x4a2>
100420b2:	2240      	movs	r2, #64	@ 0x40
100420b4:	1ad3      	subs	r3, r2, r3
100420b6:	4099      	lsls	r1, r3
100420b8:	4663      	mov	r3, ip
100420ba:	430b      	orrs	r3, r1
100420bc:	469a      	mov	sl, r3
100420be:	4657      	mov	r7, sl
100420c0:	1e7b      	subs	r3, r7, #1
100420c2:	419f      	sbcs	r7, r3
100420c4:	4643      	mov	r3, r8
100420c6:	431f      	orrs	r7, r3
100420c8:	e746      	b.n	10041f58 <__aeabi_dsub+0x33c>
100420ca:	4a95      	ldr	r2, [pc, #596]	@ (10042320 <__aeabi_dsub+0x704>)
100420cc:	1a33      	subs	r3, r6, r0
100420ce:	4011      	ands	r1, r2
100420d0:	074a      	lsls	r2, r1, #29
100420d2:	08c8      	lsrs	r0, r1, #3
100420d4:	0305      	lsls	r5, r0, #12
100420d6:	055b      	lsls	r3, r3, #21
100420d8:	0b2d      	lsrs	r5, r5, #12
100420da:	0d5b      	lsrs	r3, r3, #21
100420dc:	e630      	b.n	10041d40 <__aeabi_dsub+0x124>
100420de:	2380      	movs	r3, #128	@ 0x80
100420e0:	041b      	lsls	r3, r3, #16
100420e2:	421d      	tst	r5, r3
100420e4:	d100      	bne.n	100420e8 <__aeabi_dsub+0x4cc>
100420e6:	e0fb      	b.n	100422e0 <__aeabi_dsub+0x6c4>
100420e8:	001d      	movs	r5, r3
100420ea:	2700      	movs	r7, #0
100420ec:	e5fd      	b.n	10041cea <__aeabi_dsub+0xce>
100420ee:	4a8d      	ldr	r2, [pc, #564]	@ (10042324 <__aeabi_dsub+0x708>)
100420f0:	4293      	cmp	r3, r2
100420f2:	d100      	bne.n	100420f6 <__aeabi_dsub+0x4da>
100420f4:	e703      	b.n	10041efe <__aeabi_dsub+0x2e2>
100420f6:	4662      	mov	r2, ip
100420f8:	1882      	adds	r2, r0, r2
100420fa:	4282      	cmp	r2, r0
100420fc:	4180      	sbcs	r0, r0
100420fe:	1869      	adds	r1, r5, r1
10042100:	4240      	negs	r0, r0
10042102:	1808      	adds	r0, r1, r0
10042104:	07c7      	lsls	r7, r0, #31
10042106:	0852      	lsrs	r2, r2, #1
10042108:	4317      	orrs	r7, r2
1004210a:	0845      	lsrs	r5, r0, #1
1004210c:	0752      	lsls	r2, r2, #29
1004210e:	d400      	bmi.n	10042112 <__aeabi_dsub+0x4f6>
10042110:	e1ae      	b.n	10042470 <__aeabi_dsub+0x854>
10042112:	220f      	movs	r2, #15
10042114:	001e      	movs	r6, r3
10042116:	403a      	ands	r2, r7
10042118:	2a04      	cmp	r2, #4
1004211a:	d000      	beq.n	1004211e <__aeabi_dsub+0x502>
1004211c:	e5fa      	b.n	10041d14 <__aeabi_dsub+0xf8>
1004211e:	08ff      	lsrs	r7, r7, #3
10042120:	076a      	lsls	r2, r5, #29
10042122:	433a      	orrs	r2, r7
10042124:	0900      	lsrs	r0, r0, #4
10042126:	e7d5      	b.n	100420d4 <__aeabi_dsub+0x4b8>
10042128:	4663      	mov	r3, ip
1004212a:	074f      	lsls	r7, r1, #29
1004212c:	08da      	lsrs	r2, r3, #3
1004212e:	4317      	orrs	r7, r2
10042130:	08c8      	lsrs	r0, r1, #3
10042132:	e624      	b.n	10041d7e <__aeabi_dsub+0x162>
10042134:	1e47      	subs	r7, r0, #1
10042136:	42b8      	cmp	r0, r7
10042138:	4180      	sbcs	r0, r0
1004213a:	4240      	negs	r0, r0
1004213c:	1a2d      	subs	r5, r5, r0
1004213e:	001e      	movs	r6, r3
10042140:	022a      	lsls	r2, r5, #8
10042142:	d500      	bpl.n	10042146 <__aeabi_dsub+0x52a>
10042144:	e634      	b.n	10041db0 <__aeabi_dsub+0x194>
10042146:	e5e5      	b.n	10041d14 <__aeabi_dsub+0xf8>
10042148:	2b00      	cmp	r3, #0
1004214a:	d000      	beq.n	1004214e <__aeabi_dsub+0x532>
1004214c:	e10d      	b.n	1004236a <__aeabi_dsub+0x74e>
1004214e:	2a00      	cmp	r2, #0
10042150:	d000      	beq.n	10042154 <__aeabi_dsub+0x538>
10042152:	e169      	b.n	10042428 <__aeabi_dsub+0x80c>
10042154:	2580      	movs	r5, #128	@ 0x80
10042156:	2400      	movs	r4, #0
10042158:	4b72      	ldr	r3, [pc, #456]	@ (10042324 <__aeabi_dsub+0x708>)
1004215a:	032d      	lsls	r5, r5, #12
1004215c:	e5f0      	b.n	10041d40 <__aeabi_dsub+0x124>
1004215e:	4663      	mov	r3, ip
10042160:	1a1f      	subs	r7, r3, r0
10042162:	45bc      	cmp	ip, r7
10042164:	4192      	sbcs	r2, r2
10042166:	2401      	movs	r4, #1
10042168:	4643      	mov	r3, r8
1004216a:	1b4d      	subs	r5, r1, r5
1004216c:	4252      	negs	r2, r2
1004216e:	1aad      	subs	r5, r5, r2
10042170:	401c      	ands	r4, r3
10042172:	e711      	b.n	10041f98 <__aeabi_dsub+0x37c>
10042174:	4662      	mov	r2, ip
10042176:	4644      	mov	r4, r8
10042178:	000d      	movs	r5, r1
1004217a:	08d7      	lsrs	r7, r2, #3
1004217c:	e6c8      	b.n	10041f10 <__aeabi_dsub+0x2f4>
1004217e:	4663      	mov	r3, ip
10042180:	18c6      	adds	r6, r0, r3
10042182:	4286      	cmp	r6, r0
10042184:	4180      	sbcs	r0, r0
10042186:	1869      	adds	r1, r5, r1
10042188:	4240      	negs	r0, r0
1004218a:	1809      	adds	r1, r1, r0
1004218c:	020b      	lsls	r3, r1, #8
1004218e:	d400      	bmi.n	10042192 <__aeabi_dsub+0x576>
10042190:	e10c      	b.n	100423ac <__aeabi_dsub+0x790>
10042192:	4b63      	ldr	r3, [pc, #396]	@ (10042320 <__aeabi_dsub+0x704>)
10042194:	0870      	lsrs	r0, r6, #1
10042196:	4019      	ands	r1, r3
10042198:	07cb      	lsls	r3, r1, #31
1004219a:	4303      	orrs	r3, r0
1004219c:	084a      	lsrs	r2, r1, #1
1004219e:	0740      	lsls	r0, r0, #29
100421a0:	d400      	bmi.n	100421a4 <__aeabi_dsub+0x588>
100421a2:	e13b      	b.n	1004241c <__aeabi_dsub+0x800>
100421a4:	200f      	movs	r0, #15
100421a6:	4018      	ands	r0, r3
100421a8:	2804      	cmp	r0, #4
100421aa:	d100      	bne.n	100421ae <__aeabi_dsub+0x592>
100421ac:	e136      	b.n	1004241c <__aeabi_dsub+0x800>
100421ae:	1d1f      	adds	r7, r3, #4
100421b0:	429f      	cmp	r7, r3
100421b2:	41ad      	sbcs	r5, r5
100421b4:	426d      	negs	r5, r5
100421b6:	2302      	movs	r3, #2
100421b8:	18ad      	adds	r5, r5, r2
100421ba:	08ff      	lsrs	r7, r7, #3
100421bc:	e6a8      	b.n	10041f10 <__aeabi_dsub+0x2f4>
100421be:	2b00      	cmp	r3, #0
100421c0:	d100      	bne.n	100421c4 <__aeabi_dsub+0x5a8>
100421c2:	e640      	b.n	10041e46 <__aeabi_dsub+0x22a>
100421c4:	464b      	mov	r3, r9
100421c6:	1b9b      	subs	r3, r3, r6
100421c8:	2e00      	cmp	r6, #0
100421ca:	d100      	bne.n	100421ce <__aeabi_dsub+0x5b2>
100421cc:	e750      	b.n	10042070 <__aeabi_dsub+0x454>
100421ce:	2b38      	cmp	r3, #56	@ 0x38
100421d0:	dd2e      	ble.n	10042230 <__aeabi_dsub+0x614>
100421d2:	4663      	mov	r3, ip
100421d4:	1e5f      	subs	r7, r3, #1
100421d6:	45bc      	cmp	ip, r7
100421d8:	4192      	sbcs	r2, r2
100421da:	4252      	negs	r2, r2
100421dc:	1a8d      	subs	r5, r1, r2
100421de:	4644      	mov	r4, r8
100421e0:	464e      	mov	r6, r9
100421e2:	022b      	lsls	r3, r5, #8
100421e4:	d500      	bpl.n	100421e8 <__aeabi_dsub+0x5cc>
100421e6:	e5e3      	b.n	10041db0 <__aeabi_dsub+0x194>
100421e8:	e594      	b.n	10041d14 <__aeabi_dsub+0xf8>
100421ea:	4663      	mov	r3, ip
100421ec:	1ac7      	subs	r7, r0, r3
100421ee:	42b8      	cmp	r0, r7
100421f0:	4180      	sbcs	r0, r0
100421f2:	1a6d      	subs	r5, r5, r1
100421f4:	4240      	negs	r0, r0
100421f6:	1a2d      	subs	r5, r5, r0
100421f8:	022b      	lsls	r3, r5, #8
100421fa:	d500      	bpl.n	100421fe <__aeabi_dsub+0x5e2>
100421fc:	e6c9      	b.n	10041f92 <__aeabi_dsub+0x376>
100421fe:	076a      	lsls	r2, r5, #29
10042200:	08ff      	lsrs	r7, r7, #3
10042202:	2301      	movs	r3, #1
10042204:	433a      	orrs	r2, r7
10042206:	08e8      	lsrs	r0, r5, #3
10042208:	e764      	b.n	100420d4 <__aeabi_dsub+0x4b8>
1004220a:	001a      	movs	r2, r3
1004220c:	000f      	movs	r7, r1
1004220e:	3a20      	subs	r2, #32
10042210:	40d7      	lsrs	r7, r2
10042212:	46b8      	mov	r8, r7
10042214:	2b20      	cmp	r3, #32
10042216:	d005      	beq.n	10042224 <__aeabi_dsub+0x608>
10042218:	2240      	movs	r2, #64	@ 0x40
1004221a:	1ad3      	subs	r3, r2, r3
1004221c:	4099      	lsls	r1, r3
1004221e:	4663      	mov	r3, ip
10042220:	430b      	orrs	r3, r1
10042222:	469a      	mov	sl, r3
10042224:	4657      	mov	r7, sl
10042226:	1e7b      	subs	r3, r7, #1
10042228:	419f      	sbcs	r7, r3
1004222a:	4643      	mov	r3, r8
1004222c:	431f      	orrs	r7, r3
1004222e:	e65c      	b.n	10041eea <__aeabi_dsub+0x2ce>
10042230:	2280      	movs	r2, #128	@ 0x80
10042232:	003c      	movs	r4, r7
10042234:	0412      	lsls	r2, r2, #16
10042236:	4315      	orrs	r5, r2
10042238:	2b1f      	cmp	r3, #31
1004223a:	dc26      	bgt.n	1004228a <__aeabi_dsub+0x66e>
1004223c:	2220      	movs	r2, #32
1004223e:	002f      	movs	r7, r5
10042240:	1ad2      	subs	r2, r2, r3
10042242:	0006      	movs	r6, r0
10042244:	4090      	lsls	r0, r2
10042246:	4097      	lsls	r7, r2
10042248:	40de      	lsrs	r6, r3
1004224a:	1e42      	subs	r2, r0, #1
1004224c:	4190      	sbcs	r0, r2
1004224e:	40dd      	lsrs	r5, r3
10042250:	4337      	orrs	r7, r6
10042252:	4307      	orrs	r7, r0
10042254:	1b49      	subs	r1, r1, r5
10042256:	4663      	mov	r3, ip
10042258:	1bdf      	subs	r7, r3, r7
1004225a:	45bc      	cmp	ip, r7
1004225c:	4192      	sbcs	r2, r2
1004225e:	4252      	negs	r2, r2
10042260:	464e      	mov	r6, r9
10042262:	1a8d      	subs	r5, r1, r2
10042264:	e67d      	b.n	10041f62 <__aeabi_dsub+0x346>
10042266:	2b00      	cmp	r3, #0
10042268:	d100      	bne.n	1004226c <__aeabi_dsub+0x650>
1004226a:	e6c1      	b.n	10041ff0 <__aeabi_dsub+0x3d4>
1004226c:	464b      	mov	r3, r9
1004226e:	1b9b      	subs	r3, r3, r6
10042270:	2e00      	cmp	r6, #0
10042272:	d100      	bne.n	10042276 <__aeabi_dsub+0x65a>
10042274:	e5d0      	b.n	10041e18 <__aeabi_dsub+0x1fc>
10042276:	2b38      	cmp	r3, #56	@ 0x38
10042278:	dd36      	ble.n	100422e8 <__aeabi_dsub+0x6cc>
1004227a:	2580      	movs	r5, #128	@ 0x80
1004227c:	042d      	lsls	r5, r5, #16
1004227e:	4229      	tst	r1, r5
10042280:	d100      	bne.n	10042284 <__aeabi_dsub+0x668>
10042282:	e0dd      	b.n	10042440 <__aeabi_dsub+0x824>
10042284:	464e      	mov	r6, r9
10042286:	2700      	movs	r7, #0
10042288:	e52f      	b.n	10041cea <__aeabi_dsub+0xce>
1004228a:	001a      	movs	r2, r3
1004228c:	002e      	movs	r6, r5
1004228e:	3a20      	subs	r2, #32
10042290:	40d6      	lsrs	r6, r2
10042292:	2b20      	cmp	r3, #32
10042294:	d005      	beq.n	100422a2 <__aeabi_dsub+0x686>
10042296:	2240      	movs	r2, #64	@ 0x40
10042298:	1ad3      	subs	r3, r2, r3
1004229a:	409d      	lsls	r5, r3
1004229c:	002f      	movs	r7, r5
1004229e:	4307      	orrs	r7, r0
100422a0:	46bb      	mov	fp, r7
100422a2:	465f      	mov	r7, fp
100422a4:	1e7b      	subs	r3, r7, #1
100422a6:	419f      	sbcs	r7, r3
100422a8:	4337      	orrs	r7, r6
100422aa:	e7d4      	b.n	10042256 <__aeabi_dsub+0x63a>
100422ac:	2a00      	cmp	r2, #0
100422ae:	d100      	bne.n	100422b2 <__aeabi_dsub+0x696>
100422b0:	e6d1      	b.n	10042056 <__aeabi_dsub+0x43a>
100422b2:	2401      	movs	r4, #1
100422b4:	4643      	mov	r3, r8
100422b6:	000d      	movs	r5, r1
100422b8:	46e3      	mov	fp, ip
100422ba:	401c      	ands	r4, r3
100422bc:	e6b6      	b.n	1004202c <__aeabi_dsub+0x410>
100422be:	4663      	mov	r3, ip
100422c0:	1a1f      	subs	r7, r3, r0
100422c2:	45bc      	cmp	ip, r7
100422c4:	4192      	sbcs	r2, r2
100422c6:	1b4d      	subs	r5, r1, r5
100422c8:	4252      	negs	r2, r2
100422ca:	1aad      	subs	r5, r5, r2
100422cc:	022b      	lsls	r3, r5, #8
100422ce:	d500      	bpl.n	100422d2 <__aeabi_dsub+0x6b6>
100422d0:	e65e      	b.n	10041f90 <__aeabi_dsub+0x374>
100422d2:	076a      	lsls	r2, r5, #29
100422d4:	08ff      	lsrs	r7, r7, #3
100422d6:	4644      	mov	r4, r8
100422d8:	2301      	movs	r3, #1
100422da:	433a      	orrs	r2, r7
100422dc:	08e8      	lsrs	r0, r5, #3
100422de:	e6f9      	b.n	100420d4 <__aeabi_dsub+0x4b8>
100422e0:	1c47      	adds	r7, r0, #1
100422e2:	e517      	b.n	10041d14 <__aeabi_dsub+0xf8>
100422e4:	003b      	movs	r3, r7
100422e6:	e5eb      	b.n	10041ec0 <__aeabi_dsub+0x2a4>
100422e8:	2280      	movs	r2, #128	@ 0x80
100422ea:	0412      	lsls	r2, r2, #16
100422ec:	4315      	orrs	r5, r2
100422ee:	2b1f      	cmp	r3, #31
100422f0:	dc6c      	bgt.n	100423cc <__aeabi_dsub+0x7b0>
100422f2:	2220      	movs	r2, #32
100422f4:	002f      	movs	r7, r5
100422f6:	1ad2      	subs	r2, r2, r3
100422f8:	0006      	movs	r6, r0
100422fa:	4090      	lsls	r0, r2
100422fc:	4097      	lsls	r7, r2
100422fe:	40de      	lsrs	r6, r3
10042300:	1e42      	subs	r2, r0, #1
10042302:	4190      	sbcs	r0, r2
10042304:	40dd      	lsrs	r5, r3
10042306:	4337      	orrs	r7, r6
10042308:	4307      	orrs	r7, r0
1004230a:	1949      	adds	r1, r1, r5
1004230c:	4467      	add	r7, ip
1004230e:	4567      	cmp	r7, ip
10042310:	4192      	sbcs	r2, r2
10042312:	4252      	negs	r2, r2
10042314:	464e      	mov	r6, r9
10042316:	1855      	adds	r5, r2, r1
10042318:	e5ec      	b.n	10041ef4 <__aeabi_dsub+0x2d8>
1004231a:	46c0      	nop			@ (mov r8, r8)
1004231c:	000007fe 	.word	0x000007fe
10042320:	ff7fffff 	.word	0xff7fffff
10042324:	000007ff 	.word	0x000007ff
10042328:	2b00      	cmp	r3, #0
1004232a:	d100      	bne.n	1004232e <__aeabi_dsub+0x712>
1004232c:	e6fc      	b.n	10042128 <__aeabi_dsub+0x50c>
1004232e:	08c7      	lsrs	r7, r0, #3
10042330:	076b      	lsls	r3, r5, #29
10042332:	431f      	orrs	r7, r3
10042334:	4663      	mov	r3, ip
10042336:	08e8      	lsrs	r0, r5, #3
10042338:	430b      	orrs	r3, r1
1004233a:	d100      	bne.n	1004233e <__aeabi_dsub+0x722>
1004233c:	e51f      	b.n	10041d7e <__aeabi_dsub+0x162>
1004233e:	2380      	movs	r3, #128	@ 0x80
10042340:	031b      	lsls	r3, r3, #12
10042342:	4218      	tst	r0, r3
10042344:	d007      	beq.n	10042356 <__aeabi_dsub+0x73a>
10042346:	08ca      	lsrs	r2, r1, #3
10042348:	421a      	tst	r2, r3
1004234a:	d104      	bne.n	10042356 <__aeabi_dsub+0x73a>
1004234c:	4663      	mov	r3, ip
1004234e:	0010      	movs	r0, r2
10042350:	08df      	lsrs	r7, r3, #3
10042352:	0749      	lsls	r1, r1, #29
10042354:	430f      	orrs	r7, r1
10042356:	0f7b      	lsrs	r3, r7, #29
10042358:	00ff      	lsls	r7, r7, #3
1004235a:	08ff      	lsrs	r7, r7, #3
1004235c:	075b      	lsls	r3, r3, #29
1004235e:	431f      	orrs	r7, r3
10042360:	e50d      	b.n	10041d7e <__aeabi_dsub+0x162>
10042362:	4662      	mov	r2, ip
10042364:	000d      	movs	r5, r1
10042366:	08d7      	lsrs	r7, r2, #3
10042368:	e5d2      	b.n	10041f10 <__aeabi_dsub+0x2f4>
1004236a:	08c7      	lsrs	r7, r0, #3
1004236c:	076b      	lsls	r3, r5, #29
1004236e:	431f      	orrs	r7, r3
10042370:	08e8      	lsrs	r0, r5, #3
10042372:	2a00      	cmp	r2, #0
10042374:	d100      	bne.n	10042378 <__aeabi_dsub+0x75c>
10042376:	e502      	b.n	10041d7e <__aeabi_dsub+0x162>
10042378:	2380      	movs	r3, #128	@ 0x80
1004237a:	031b      	lsls	r3, r3, #12
1004237c:	4218      	tst	r0, r3
1004237e:	d0ea      	beq.n	10042356 <__aeabi_dsub+0x73a>
10042380:	08ca      	lsrs	r2, r1, #3
10042382:	421a      	tst	r2, r3
10042384:	d1e7      	bne.n	10042356 <__aeabi_dsub+0x73a>
10042386:	4663      	mov	r3, ip
10042388:	2401      	movs	r4, #1
1004238a:	08df      	lsrs	r7, r3, #3
1004238c:	4643      	mov	r3, r8
1004238e:	0749      	lsls	r1, r1, #29
10042390:	0010      	movs	r0, r2
10042392:	430f      	orrs	r7, r1
10042394:	401c      	ands	r4, r3
10042396:	e7de      	b.n	10042356 <__aeabi_dsub+0x73a>
10042398:	4460      	add	r0, ip
1004239a:	4560      	cmp	r0, ip
1004239c:	4192      	sbcs	r2, r2
1004239e:	1869      	adds	r1, r5, r1
100423a0:	4252      	negs	r2, r2
100423a2:	1889      	adds	r1, r1, r2
100423a4:	0006      	movs	r6, r0
100423a6:	020b      	lsls	r3, r1, #8
100423a8:	d500      	bpl.n	100423ac <__aeabi_dsub+0x790>
100423aa:	e6f2      	b.n	10042192 <__aeabi_dsub+0x576>
100423ac:	074a      	lsls	r2, r1, #29
100423ae:	08f6      	lsrs	r6, r6, #3
100423b0:	2301      	movs	r3, #1
100423b2:	4332      	orrs	r2, r6
100423b4:	08c8      	lsrs	r0, r1, #3
100423b6:	e68d      	b.n	100420d4 <__aeabi_dsub+0x4b8>
100423b8:	4663      	mov	r3, ip
100423ba:	08df      	lsrs	r7, r3, #3
100423bc:	074b      	lsls	r3, r1, #29
100423be:	4644      	mov	r4, r8
100423c0:	431f      	orrs	r7, r3
100423c2:	08c8      	lsrs	r0, r1, #3
100423c4:	e4db      	b.n	10041d7e <__aeabi_dsub+0x162>
100423c6:	4644      	mov	r4, r8
100423c8:	0013      	movs	r3, r2
100423ca:	e735      	b.n	10042238 <__aeabi_dsub+0x61c>
100423cc:	001a      	movs	r2, r3
100423ce:	002e      	movs	r6, r5
100423d0:	3a20      	subs	r2, #32
100423d2:	40d6      	lsrs	r6, r2
100423d4:	2b20      	cmp	r3, #32
100423d6:	d005      	beq.n	100423e4 <__aeabi_dsub+0x7c8>
100423d8:	2240      	movs	r2, #64	@ 0x40
100423da:	1ad3      	subs	r3, r2, r3
100423dc:	409d      	lsls	r5, r3
100423de:	002f      	movs	r7, r5
100423e0:	4307      	orrs	r7, r0
100423e2:	46bb      	mov	fp, r7
100423e4:	465f      	mov	r7, fp
100423e6:	1e7b      	subs	r3, r7, #1
100423e8:	419f      	sbcs	r7, r3
100423ea:	4337      	orrs	r7, r6
100423ec:	e78e      	b.n	1004230c <__aeabi_dsub+0x6f0>
100423ee:	2320      	movs	r3, #32
100423f0:	2700      	movs	r7, #0
100423f2:	1a1b      	subs	r3, r3, r0
100423f4:	e4f5      	b.n	10041de2 <__aeabi_dsub+0x1c6>
100423f6:	2300      	movs	r3, #0
100423f8:	2a00      	cmp	r2, #0
100423fa:	d100      	bne.n	100423fe <__aeabi_dsub+0x7e2>
100423fc:	e592      	b.n	10041f24 <__aeabi_dsub+0x308>
100423fe:	4667      	mov	r7, ip
10042400:	000d      	movs	r5, r1
10042402:	08ff      	lsrs	r7, r7, #3
10042404:	e584      	b.n	10041f10 <__aeabi_dsub+0x2f4>
10042406:	003a      	movs	r2, r7
10042408:	431a      	orrs	r2, r3
1004240a:	d100      	bne.n	1004240e <__aeabi_dsub+0x7f2>
1004240c:	e623      	b.n	10042056 <__aeabi_dsub+0x43a>
1004240e:	001d      	movs	r5, r3
10042410:	46bb      	mov	fp, r7
10042412:	e60b      	b.n	1004202c <__aeabi_dsub+0x410>
10042414:	0017      	movs	r7, r2
10042416:	0033      	movs	r3, r6
10042418:	08ff      	lsrs	r7, r7, #3
1004241a:	e579      	b.n	10041f10 <__aeabi_dsub+0x2f4>
1004241c:	08db      	lsrs	r3, r3, #3
1004241e:	0752      	lsls	r2, r2, #29
10042420:	431a      	orrs	r2, r3
10042422:	0908      	lsrs	r0, r1, #4
10042424:	2302      	movs	r3, #2
10042426:	e655      	b.n	100420d4 <__aeabi_dsub+0x4b8>
10042428:	4663      	mov	r3, ip
1004242a:	2401      	movs	r4, #1
1004242c:	08da      	lsrs	r2, r3, #3
1004242e:	4643      	mov	r3, r8
10042430:	074f      	lsls	r7, r1, #29
10042432:	4317      	orrs	r7, r2
10042434:	08c8      	lsrs	r0, r1, #3
10042436:	401c      	ands	r4, r3
10042438:	e4a1      	b.n	10041d7e <__aeabi_dsub+0x162>
1004243a:	001e      	movs	r6, r3
1004243c:	1c47      	adds	r7, r0, #1
1004243e:	e469      	b.n	10041d14 <__aeabi_dsub+0xf8>
10042440:	4667      	mov	r7, ip
10042442:	000d      	movs	r5, r1
10042444:	464e      	mov	r6, r9
10042446:	3701      	adds	r7, #1
10042448:	e464      	b.n	10041d14 <__aeabi_dsub+0xf8>
1004244a:	4b0f      	ldr	r3, [pc, #60]	@ (10042488 <__aeabi_dsub+0x86c>)
1004244c:	08ff      	lsrs	r7, r7, #3
1004244e:	401d      	ands	r5, r3
10042450:	076a      	lsls	r2, r5, #29
10042452:	026d      	lsls	r5, r5, #9
10042454:	2301      	movs	r3, #1
10042456:	433a      	orrs	r2, r7
10042458:	0b2d      	lsrs	r5, r5, #12
1004245a:	e471      	b.n	10041d40 <__aeabi_dsub+0x124>
1004245c:	0013      	movs	r3, r2
1004245e:	e746      	b.n	100422ee <__aeabi_dsub+0x6d2>
10042460:	0033      	movs	r3, r6
10042462:	08ff      	lsrs	r7, r7, #3
10042464:	e554      	b.n	10041f10 <__aeabi_dsub+0x2f4>
10042466:	4667      	mov	r7, ip
10042468:	000d      	movs	r5, r1
1004246a:	001e      	movs	r6, r3
1004246c:	3701      	adds	r7, #1
1004246e:	e451      	b.n	10041d14 <__aeabi_dsub+0xf8>
10042470:	076a      	lsls	r2, r5, #29
10042472:	08ff      	lsrs	r7, r7, #3
10042474:	433a      	orrs	r2, r7
10042476:	0900      	lsrs	r0, r0, #4
10042478:	e62c      	b.n	100420d4 <__aeabi_dsub+0x4b8>
1004247a:	08c0      	lsrs	r0, r0, #3
1004247c:	076a      	lsls	r2, r5, #29
1004247e:	4302      	orrs	r2, r0
10042480:	2300      	movs	r3, #0
10042482:	08e8      	lsrs	r0, r5, #3
10042484:	e626      	b.n	100420d4 <__aeabi_dsub+0x4b8>
10042486:	46c0      	nop			@ (mov r8, r8)
10042488:	ff7fffff 	.word	0xff7fffff

1004248c <__aeabi_d2iz>:
1004248c:	000b      	movs	r3, r1
1004248e:	0002      	movs	r2, r0
10042490:	b570      	push	{r4, r5, r6, lr}
10042492:	4d16      	ldr	r5, [pc, #88]	@ (100424ec <__aeabi_d2iz+0x60>)
10042494:	030c      	lsls	r4, r1, #12
10042496:	b082      	sub	sp, #8
10042498:	0049      	lsls	r1, r1, #1
1004249a:	2000      	movs	r0, #0
1004249c:	9200      	str	r2, [sp, #0]
1004249e:	9301      	str	r3, [sp, #4]
100424a0:	0b24      	lsrs	r4, r4, #12
100424a2:	0d49      	lsrs	r1, r1, #21
100424a4:	0fde      	lsrs	r6, r3, #31
100424a6:	42a9      	cmp	r1, r5
100424a8:	dd04      	ble.n	100424b4 <__aeabi_d2iz+0x28>
100424aa:	4811      	ldr	r0, [pc, #68]	@ (100424f0 <__aeabi_d2iz+0x64>)
100424ac:	4281      	cmp	r1, r0
100424ae:	dd03      	ble.n	100424b8 <__aeabi_d2iz+0x2c>
100424b0:	4b10      	ldr	r3, [pc, #64]	@ (100424f4 <__aeabi_d2iz+0x68>)
100424b2:	18f0      	adds	r0, r6, r3
100424b4:	b002      	add	sp, #8
100424b6:	bd70      	pop	{r4, r5, r6, pc}
100424b8:	2080      	movs	r0, #128	@ 0x80
100424ba:	0340      	lsls	r0, r0, #13
100424bc:	4320      	orrs	r0, r4
100424be:	4c0e      	ldr	r4, [pc, #56]	@ (100424f8 <__aeabi_d2iz+0x6c>)
100424c0:	1a64      	subs	r4, r4, r1
100424c2:	2c1f      	cmp	r4, #31
100424c4:	dd08      	ble.n	100424d8 <__aeabi_d2iz+0x4c>
100424c6:	4b0d      	ldr	r3, [pc, #52]	@ (100424fc <__aeabi_d2iz+0x70>)
100424c8:	1a5b      	subs	r3, r3, r1
100424ca:	40d8      	lsrs	r0, r3
100424cc:	0003      	movs	r3, r0
100424ce:	4258      	negs	r0, r3
100424d0:	2e00      	cmp	r6, #0
100424d2:	d1ef      	bne.n	100424b4 <__aeabi_d2iz+0x28>
100424d4:	0018      	movs	r0, r3
100424d6:	e7ed      	b.n	100424b4 <__aeabi_d2iz+0x28>
100424d8:	4b09      	ldr	r3, [pc, #36]	@ (10042500 <__aeabi_d2iz+0x74>)
100424da:	9a00      	ldr	r2, [sp, #0]
100424dc:	469c      	mov	ip, r3
100424de:	0003      	movs	r3, r0
100424e0:	4461      	add	r1, ip
100424e2:	408b      	lsls	r3, r1
100424e4:	40e2      	lsrs	r2, r4
100424e6:	4313      	orrs	r3, r2
100424e8:	e7f1      	b.n	100424ce <__aeabi_d2iz+0x42>
100424ea:	46c0      	nop			@ (mov r8, r8)
100424ec:	000003fe 	.word	0x000003fe
100424f0:	0000041d 	.word	0x0000041d
100424f4:	7fffffff 	.word	0x7fffffff
100424f8:	00000433 	.word	0x00000433
100424fc:	00000413 	.word	0x00000413
10042500:	fffffbed 	.word	0xfffffbed

10042504 <__aeabi_i2d>:
10042504:	b570      	push	{r4, r5, r6, lr}
10042506:	2800      	cmp	r0, #0
10042508:	d016      	beq.n	10042538 <__aeabi_i2d+0x34>
1004250a:	17c3      	asrs	r3, r0, #31
1004250c:	18c5      	adds	r5, r0, r3
1004250e:	405d      	eors	r5, r3
10042510:	0fc4      	lsrs	r4, r0, #31
10042512:	0028      	movs	r0, r5
10042514:	f000 f956 	bl	100427c4 <__clzsi2>
10042518:	4b10      	ldr	r3, [pc, #64]	@ (1004255c <__aeabi_i2d+0x58>)
1004251a:	1a1b      	subs	r3, r3, r0
1004251c:	055b      	lsls	r3, r3, #21
1004251e:	0d5b      	lsrs	r3, r3, #21
10042520:	280a      	cmp	r0, #10
10042522:	dc14      	bgt.n	1004254e <__aeabi_i2d+0x4a>
10042524:	0002      	movs	r2, r0
10042526:	002e      	movs	r6, r5
10042528:	3215      	adds	r2, #21
1004252a:	4096      	lsls	r6, r2
1004252c:	220b      	movs	r2, #11
1004252e:	1a12      	subs	r2, r2, r0
10042530:	40d5      	lsrs	r5, r2
10042532:	032d      	lsls	r5, r5, #12
10042534:	0b2d      	lsrs	r5, r5, #12
10042536:	e003      	b.n	10042540 <__aeabi_i2d+0x3c>
10042538:	2400      	movs	r4, #0
1004253a:	2300      	movs	r3, #0
1004253c:	2500      	movs	r5, #0
1004253e:	2600      	movs	r6, #0
10042540:	051b      	lsls	r3, r3, #20
10042542:	432b      	orrs	r3, r5
10042544:	07e4      	lsls	r4, r4, #31
10042546:	4323      	orrs	r3, r4
10042548:	0030      	movs	r0, r6
1004254a:	0019      	movs	r1, r3
1004254c:	bd70      	pop	{r4, r5, r6, pc}
1004254e:	380b      	subs	r0, #11
10042550:	4085      	lsls	r5, r0
10042552:	032d      	lsls	r5, r5, #12
10042554:	2600      	movs	r6, #0
10042556:	0b2d      	lsrs	r5, r5, #12
10042558:	e7f2      	b.n	10042540 <__aeabi_i2d+0x3c>
1004255a:	46c0      	nop			@ (mov r8, r8)
1004255c:	0000041e 	.word	0x0000041e

10042560 <__aeabi_ui2d>:
10042560:	b510      	push	{r4, lr}
10042562:	1e04      	subs	r4, r0, #0
10042564:	d010      	beq.n	10042588 <__aeabi_ui2d+0x28>
10042566:	f000 f92d 	bl	100427c4 <__clzsi2>
1004256a:	4b0e      	ldr	r3, [pc, #56]	@ (100425a4 <__aeabi_ui2d+0x44>)
1004256c:	1a1b      	subs	r3, r3, r0
1004256e:	055b      	lsls	r3, r3, #21
10042570:	0d5b      	lsrs	r3, r3, #21
10042572:	280a      	cmp	r0, #10
10042574:	dc0f      	bgt.n	10042596 <__aeabi_ui2d+0x36>
10042576:	220b      	movs	r2, #11
10042578:	0021      	movs	r1, r4
1004257a:	1a12      	subs	r2, r2, r0
1004257c:	40d1      	lsrs	r1, r2
1004257e:	3015      	adds	r0, #21
10042580:	030a      	lsls	r2, r1, #12
10042582:	4084      	lsls	r4, r0
10042584:	0b12      	lsrs	r2, r2, #12
10042586:	e001      	b.n	1004258c <__aeabi_ui2d+0x2c>
10042588:	2300      	movs	r3, #0
1004258a:	2200      	movs	r2, #0
1004258c:	051b      	lsls	r3, r3, #20
1004258e:	4313      	orrs	r3, r2
10042590:	0020      	movs	r0, r4
10042592:	0019      	movs	r1, r3
10042594:	bd10      	pop	{r4, pc}
10042596:	0022      	movs	r2, r4
10042598:	380b      	subs	r0, #11
1004259a:	4082      	lsls	r2, r0
1004259c:	0312      	lsls	r2, r2, #12
1004259e:	2400      	movs	r4, #0
100425a0:	0b12      	lsrs	r2, r2, #12
100425a2:	e7f3      	b.n	1004258c <__aeabi_ui2d+0x2c>
100425a4:	0000041e 	.word	0x0000041e

100425a8 <__aeabi_f2d>:
100425a8:	b570      	push	{r4, r5, r6, lr}
100425aa:	0242      	lsls	r2, r0, #9
100425ac:	0043      	lsls	r3, r0, #1
100425ae:	0fc4      	lsrs	r4, r0, #31
100425b0:	20fe      	movs	r0, #254	@ 0xfe
100425b2:	0e1b      	lsrs	r3, r3, #24
100425b4:	1c59      	adds	r1, r3, #1
100425b6:	0a55      	lsrs	r5, r2, #9
100425b8:	4208      	tst	r0, r1
100425ba:	d00c      	beq.n	100425d6 <__aeabi_f2d+0x2e>
100425bc:	21e0      	movs	r1, #224	@ 0xe0
100425be:	0089      	lsls	r1, r1, #2
100425c0:	468c      	mov	ip, r1
100425c2:	076d      	lsls	r5, r5, #29
100425c4:	0b12      	lsrs	r2, r2, #12
100425c6:	4463      	add	r3, ip
100425c8:	051b      	lsls	r3, r3, #20
100425ca:	4313      	orrs	r3, r2
100425cc:	07e4      	lsls	r4, r4, #31
100425ce:	4323      	orrs	r3, r4
100425d0:	0028      	movs	r0, r5
100425d2:	0019      	movs	r1, r3
100425d4:	bd70      	pop	{r4, r5, r6, pc}
100425d6:	2b00      	cmp	r3, #0
100425d8:	d114      	bne.n	10042604 <__aeabi_f2d+0x5c>
100425da:	2d00      	cmp	r5, #0
100425dc:	d01b      	beq.n	10042616 <__aeabi_f2d+0x6e>
100425de:	0028      	movs	r0, r5
100425e0:	f000 f8f0 	bl	100427c4 <__clzsi2>
100425e4:	280a      	cmp	r0, #10
100425e6:	dc1c      	bgt.n	10042622 <__aeabi_f2d+0x7a>
100425e8:	230b      	movs	r3, #11
100425ea:	002a      	movs	r2, r5
100425ec:	1a1b      	subs	r3, r3, r0
100425ee:	40da      	lsrs	r2, r3
100425f0:	0003      	movs	r3, r0
100425f2:	3315      	adds	r3, #21
100425f4:	409d      	lsls	r5, r3
100425f6:	4b0e      	ldr	r3, [pc, #56]	@ (10042630 <__aeabi_f2d+0x88>)
100425f8:	0312      	lsls	r2, r2, #12
100425fa:	1a1b      	subs	r3, r3, r0
100425fc:	055b      	lsls	r3, r3, #21
100425fe:	0b12      	lsrs	r2, r2, #12
10042600:	0d5b      	lsrs	r3, r3, #21
10042602:	e7e1      	b.n	100425c8 <__aeabi_f2d+0x20>
10042604:	2d00      	cmp	r5, #0
10042606:	d009      	beq.n	1004261c <__aeabi_f2d+0x74>
10042608:	0b13      	lsrs	r3, r2, #12
1004260a:	2280      	movs	r2, #128	@ 0x80
1004260c:	0312      	lsls	r2, r2, #12
1004260e:	431a      	orrs	r2, r3
10042610:	076d      	lsls	r5, r5, #29
10042612:	4b08      	ldr	r3, [pc, #32]	@ (10042634 <__aeabi_f2d+0x8c>)
10042614:	e7d8      	b.n	100425c8 <__aeabi_f2d+0x20>
10042616:	2300      	movs	r3, #0
10042618:	2200      	movs	r2, #0
1004261a:	e7d5      	b.n	100425c8 <__aeabi_f2d+0x20>
1004261c:	2200      	movs	r2, #0
1004261e:	4b05      	ldr	r3, [pc, #20]	@ (10042634 <__aeabi_f2d+0x8c>)
10042620:	e7d2      	b.n	100425c8 <__aeabi_f2d+0x20>
10042622:	0003      	movs	r3, r0
10042624:	002a      	movs	r2, r5
10042626:	3b0b      	subs	r3, #11
10042628:	409a      	lsls	r2, r3
1004262a:	2500      	movs	r5, #0
1004262c:	e7e3      	b.n	100425f6 <__aeabi_f2d+0x4e>
1004262e:	46c0      	nop			@ (mov r8, r8)
10042630:	00000389 	.word	0x00000389
10042634:	000007ff 	.word	0x000007ff

10042638 <__aeabi_d2f>:
10042638:	b5f0      	push	{r4, r5, r6, r7, lr}
1004263a:	004b      	lsls	r3, r1, #1
1004263c:	030f      	lsls	r7, r1, #12
1004263e:	0d5b      	lsrs	r3, r3, #21
10042640:	4c3d      	ldr	r4, [pc, #244]	@ (10042738 <__aeabi_d2f+0x100>)
10042642:	0f45      	lsrs	r5, r0, #29
10042644:	b083      	sub	sp, #12
10042646:	0a7f      	lsrs	r7, r7, #9
10042648:	1c5e      	adds	r6, r3, #1
1004264a:	432f      	orrs	r7, r5
1004264c:	9000      	str	r0, [sp, #0]
1004264e:	9101      	str	r1, [sp, #4]
10042650:	0fca      	lsrs	r2, r1, #31
10042652:	00c5      	lsls	r5, r0, #3
10042654:	4226      	tst	r6, r4
10042656:	d00b      	beq.n	10042670 <__aeabi_d2f+0x38>
10042658:	4938      	ldr	r1, [pc, #224]	@ (1004273c <__aeabi_d2f+0x104>)
1004265a:	185c      	adds	r4, r3, r1
1004265c:	2cfe      	cmp	r4, #254	@ 0xfe
1004265e:	dd12      	ble.n	10042686 <__aeabi_d2f+0x4e>
10042660:	20ff      	movs	r0, #255	@ 0xff
10042662:	2300      	movs	r3, #0
10042664:	05c0      	lsls	r0, r0, #23
10042666:	4318      	orrs	r0, r3
10042668:	07d2      	lsls	r2, r2, #31
1004266a:	4310      	orrs	r0, r2
1004266c:	b003      	add	sp, #12
1004266e:	bdf0      	pop	{r4, r5, r6, r7, pc}
10042670:	2000      	movs	r0, #0
10042672:	433d      	orrs	r5, r7
10042674:	2b00      	cmp	r3, #0
10042676:	d0f5      	beq.n	10042664 <__aeabi_d2f+0x2c>
10042678:	2d00      	cmp	r5, #0
1004267a:	d0f1      	beq.n	10042660 <__aeabi_d2f+0x28>
1004267c:	2380      	movs	r3, #128	@ 0x80
1004267e:	03db      	lsls	r3, r3, #15
10042680:	20ff      	movs	r0, #255	@ 0xff
10042682:	433b      	orrs	r3, r7
10042684:	e7ee      	b.n	10042664 <__aeabi_d2f+0x2c>
10042686:	2c00      	cmp	r4, #0
10042688:	dd0c      	ble.n	100426a4 <__aeabi_d2f+0x6c>
1004268a:	9b00      	ldr	r3, [sp, #0]
1004268c:	00ff      	lsls	r7, r7, #3
1004268e:	019b      	lsls	r3, r3, #6
10042690:	1e58      	subs	r0, r3, #1
10042692:	4183      	sbcs	r3, r0
10042694:	0f69      	lsrs	r1, r5, #29
10042696:	433b      	orrs	r3, r7
10042698:	430b      	orrs	r3, r1
1004269a:	0759      	lsls	r1, r3, #29
1004269c:	d125      	bne.n	100426ea <__aeabi_d2f+0xb2>
1004269e:	08db      	lsrs	r3, r3, #3
100426a0:	b2e0      	uxtb	r0, r4
100426a2:	e7df      	b.n	10042664 <__aeabi_d2f+0x2c>
100426a4:	0021      	movs	r1, r4
100426a6:	3117      	adds	r1, #23
100426a8:	db2e      	blt.n	10042708 <__aeabi_d2f+0xd0>
100426aa:	2180      	movs	r1, #128	@ 0x80
100426ac:	201e      	movs	r0, #30
100426ae:	0409      	lsls	r1, r1, #16
100426b0:	4339      	orrs	r1, r7
100426b2:	1b00      	subs	r0, r0, r4
100426b4:	281f      	cmp	r0, #31
100426b6:	dd2a      	ble.n	1004270e <__aeabi_d2f+0xd6>
100426b8:	2602      	movs	r6, #2
100426ba:	4276      	negs	r6, r6
100426bc:	1b34      	subs	r4, r6, r4
100426be:	000e      	movs	r6, r1
100426c0:	40e6      	lsrs	r6, r4
100426c2:	0034      	movs	r4, r6
100426c4:	2820      	cmp	r0, #32
100426c6:	d004      	beq.n	100426d2 <__aeabi_d2f+0x9a>
100426c8:	481d      	ldr	r0, [pc, #116]	@ (10042740 <__aeabi_d2f+0x108>)
100426ca:	4684      	mov	ip, r0
100426cc:	4463      	add	r3, ip
100426ce:	4099      	lsls	r1, r3
100426d0:	430d      	orrs	r5, r1
100426d2:	002b      	movs	r3, r5
100426d4:	1e59      	subs	r1, r3, #1
100426d6:	418b      	sbcs	r3, r1
100426d8:	4323      	orrs	r3, r4
100426da:	2107      	movs	r1, #7
100426dc:	0018      	movs	r0, r3
100426de:	4008      	ands	r0, r1
100426e0:	420b      	tst	r3, r1
100426e2:	d11f      	bne.n	10042724 <__aeabi_d2f+0xec>
100426e4:	019b      	lsls	r3, r3, #6
100426e6:	0a5b      	lsrs	r3, r3, #9
100426e8:	e7bc      	b.n	10042664 <__aeabi_d2f+0x2c>
100426ea:	210f      	movs	r1, #15
100426ec:	4019      	ands	r1, r3
100426ee:	2904      	cmp	r1, #4
100426f0:	d103      	bne.n	100426fa <__aeabi_d2f+0xc2>
100426f2:	019b      	lsls	r3, r3, #6
100426f4:	0a5b      	lsrs	r3, r3, #9
100426f6:	b2e0      	uxtb	r0, r4
100426f8:	e7b4      	b.n	10042664 <__aeabi_d2f+0x2c>
100426fa:	3304      	adds	r3, #4
100426fc:	0159      	lsls	r1, r3, #5
100426fe:	d5f8      	bpl.n	100426f2 <__aeabi_d2f+0xba>
10042700:	3401      	adds	r4, #1
10042702:	2300      	movs	r3, #0
10042704:	b2e0      	uxtb	r0, r4
10042706:	e7ad      	b.n	10042664 <__aeabi_d2f+0x2c>
10042708:	2000      	movs	r0, #0
1004270a:	2300      	movs	r3, #0
1004270c:	e7aa      	b.n	10042664 <__aeabi_d2f+0x2c>
1004270e:	4c0d      	ldr	r4, [pc, #52]	@ (10042744 <__aeabi_d2f+0x10c>)
10042710:	191c      	adds	r4, r3, r4
10042712:	002b      	movs	r3, r5
10042714:	40a5      	lsls	r5, r4
10042716:	40c3      	lsrs	r3, r0
10042718:	40a1      	lsls	r1, r4
1004271a:	1e68      	subs	r0, r5, #1
1004271c:	4185      	sbcs	r5, r0
1004271e:	4329      	orrs	r1, r5
10042720:	430b      	orrs	r3, r1
10042722:	e7da      	b.n	100426da <__aeabi_d2f+0xa2>
10042724:	210f      	movs	r1, #15
10042726:	2400      	movs	r4, #0
10042728:	4019      	ands	r1, r3
1004272a:	2904      	cmp	r1, #4
1004272c:	d1e5      	bne.n	100426fa <__aeabi_d2f+0xc2>
1004272e:	019b      	lsls	r3, r3, #6
10042730:	0020      	movs	r0, r4
10042732:	0a5b      	lsrs	r3, r3, #9
10042734:	e796      	b.n	10042664 <__aeabi_d2f+0x2c>
10042736:	46c0      	nop			@ (mov r8, r8)
10042738:	000007fe 	.word	0x000007fe
1004273c:	fffffc80 	.word	0xfffffc80
10042740:	fffffca2 	.word	0xfffffca2
10042744:	fffffc82 	.word	0xfffffc82

10042748 <__aeabi_cdrcmple>:
10042748:	4684      	mov	ip, r0
1004274a:	0010      	movs	r0, r2
1004274c:	4662      	mov	r2, ip
1004274e:	468c      	mov	ip, r1
10042750:	0019      	movs	r1, r3
10042752:	4663      	mov	r3, ip
10042754:	e000      	b.n	10042758 <__aeabi_cdcmpeq>
10042756:	46c0      	nop			@ (mov r8, r8)

10042758 <__aeabi_cdcmpeq>:
10042758:	b51f      	push	{r0, r1, r2, r3, r4, lr}
1004275a:	f000 f913 	bl	10042984 <__ledf2>
1004275e:	2800      	cmp	r0, #0
10042760:	d401      	bmi.n	10042766 <__aeabi_cdcmpeq+0xe>
10042762:	2100      	movs	r1, #0
10042764:	42c8      	cmn	r0, r1
10042766:	bd1f      	pop	{r0, r1, r2, r3, r4, pc}

10042768 <__aeabi_dcmpeq>:
10042768:	b510      	push	{r4, lr}
1004276a:	f000 f855 	bl	10042818 <__eqdf2>
1004276e:	4240      	negs	r0, r0
10042770:	3001      	adds	r0, #1
10042772:	bd10      	pop	{r4, pc}

10042774 <__aeabi_dcmplt>:
10042774:	b510      	push	{r4, lr}
10042776:	f000 f905 	bl	10042984 <__ledf2>
1004277a:	2800      	cmp	r0, #0
1004277c:	db01      	blt.n	10042782 <__aeabi_dcmplt+0xe>
1004277e:	2000      	movs	r0, #0
10042780:	bd10      	pop	{r4, pc}
10042782:	2001      	movs	r0, #1
10042784:	bd10      	pop	{r4, pc}
10042786:	46c0      	nop			@ (mov r8, r8)

10042788 <__aeabi_dcmple>:
10042788:	b510      	push	{r4, lr}
1004278a:	f000 f8fb 	bl	10042984 <__ledf2>
1004278e:	2800      	cmp	r0, #0
10042790:	dd01      	ble.n	10042796 <__aeabi_dcmple+0xe>
10042792:	2000      	movs	r0, #0
10042794:	bd10      	pop	{r4, pc}
10042796:	2001      	movs	r0, #1
10042798:	bd10      	pop	{r4, pc}
1004279a:	46c0      	nop			@ (mov r8, r8)

1004279c <__aeabi_dcmpgt>:
1004279c:	b510      	push	{r4, lr}
1004279e:	f000 f881 	bl	100428a4 <__gedf2>
100427a2:	2800      	cmp	r0, #0
100427a4:	dc01      	bgt.n	100427aa <__aeabi_dcmpgt+0xe>
100427a6:	2000      	movs	r0, #0
100427a8:	bd10      	pop	{r4, pc}
100427aa:	2001      	movs	r0, #1
100427ac:	bd10      	pop	{r4, pc}
100427ae:	46c0      	nop			@ (mov r8, r8)

100427b0 <__aeabi_dcmpge>:
100427b0:	b510      	push	{r4, lr}
100427b2:	f000 f877 	bl	100428a4 <__gedf2>
100427b6:	2800      	cmp	r0, #0
100427b8:	da01      	bge.n	100427be <__aeabi_dcmpge+0xe>
100427ba:	2000      	movs	r0, #0
100427bc:	bd10      	pop	{r4, pc}
100427be:	2001      	movs	r0, #1
100427c0:	bd10      	pop	{r4, pc}
100427c2:	46c0      	nop			@ (mov r8, r8)

100427c4 <__clzsi2>:
100427c4:	211c      	movs	r1, #28
100427c6:	2301      	movs	r3, #1
100427c8:	041b      	lsls	r3, r3, #16
100427ca:	4298      	cmp	r0, r3
100427cc:	d301      	bcc.n	100427d2 <__clzsi2+0xe>
100427ce:	0c00      	lsrs	r0, r0, #16
100427d0:	3910      	subs	r1, #16
100427d2:	0a1b      	lsrs	r3, r3, #8
100427d4:	4298      	cmp	r0, r3
100427d6:	d301      	bcc.n	100427dc <__clzsi2+0x18>
100427d8:	0a00      	lsrs	r0, r0, #8
100427da:	3908      	subs	r1, #8
100427dc:	091b      	lsrs	r3, r3, #4
100427de:	4298      	cmp	r0, r3
100427e0:	d301      	bcc.n	100427e6 <__clzsi2+0x22>
100427e2:	0900      	lsrs	r0, r0, #4
100427e4:	3904      	subs	r1, #4
100427e6:	a202      	add	r2, pc, #8	@ (adr r2, 100427f0 <__clzsi2+0x2c>)
100427e8:	5c10      	ldrb	r0, [r2, r0]
100427ea:	1840      	adds	r0, r0, r1
100427ec:	4770      	bx	lr
100427ee:	46c0      	nop			@ (mov r8, r8)
100427f0:	02020304 	.word	0x02020304
100427f4:	01010101 	.word	0x01010101
	...

10042800 <__clzdi2>:
10042800:	b510      	push	{r4, lr}
10042802:	2900      	cmp	r1, #0
10042804:	d103      	bne.n	1004280e <__clzdi2+0xe>
10042806:	f7ff ffdd 	bl	100427c4 <__clzsi2>
1004280a:	3020      	adds	r0, #32
1004280c:	e002      	b.n	10042814 <__clzdi2+0x14>
1004280e:	0008      	movs	r0, r1
10042810:	f7ff ffd8 	bl	100427c4 <__clzsi2>
10042814:	bd10      	pop	{r4, pc}
10042816:	46c0      	nop			@ (mov r8, r8)

10042818 <__eqdf2>:
10042818:	b5f0      	push	{r4, r5, r6, r7, lr}
1004281a:	4657      	mov	r7, sl
1004281c:	46de      	mov	lr, fp
1004281e:	464e      	mov	r6, r9
10042820:	4645      	mov	r5, r8
10042822:	b5e0      	push	{r5, r6, r7, lr}
10042824:	000d      	movs	r5, r1
10042826:	0004      	movs	r4, r0
10042828:	0fe8      	lsrs	r0, r5, #31
1004282a:	4683      	mov	fp, r0
1004282c:	0309      	lsls	r1, r1, #12
1004282e:	0fd8      	lsrs	r0, r3, #31
10042830:	0b09      	lsrs	r1, r1, #12
10042832:	4682      	mov	sl, r0
10042834:	481a      	ldr	r0, [pc, #104]	@ (100428a0 <__eqdf2+0x88>)
10042836:	468c      	mov	ip, r1
10042838:	031f      	lsls	r7, r3, #12
1004283a:	0069      	lsls	r1, r5, #1
1004283c:	005e      	lsls	r6, r3, #1
1004283e:	0d49      	lsrs	r1, r1, #21
10042840:	0b3f      	lsrs	r7, r7, #12
10042842:	0d76      	lsrs	r6, r6, #21
10042844:	4281      	cmp	r1, r0
10042846:	d01a      	beq.n	1004287e <__eqdf2+0x66>
10042848:	4286      	cmp	r6, r0
1004284a:	d011      	beq.n	10042870 <__eqdf2+0x58>
1004284c:	2001      	movs	r0, #1
1004284e:	42b1      	cmp	r1, r6
10042850:	d10f      	bne.n	10042872 <__eqdf2+0x5a>
10042852:	45bc      	cmp	ip, r7
10042854:	d10d      	bne.n	10042872 <__eqdf2+0x5a>
10042856:	42a2      	cmp	r2, r4
10042858:	d10b      	bne.n	10042872 <__eqdf2+0x5a>
1004285a:	45d3      	cmp	fp, sl
1004285c:	d01e      	beq.n	1004289c <__eqdf2+0x84>
1004285e:	2900      	cmp	r1, #0
10042860:	d107      	bne.n	10042872 <__eqdf2+0x5a>
10042862:	4661      	mov	r1, ip
10042864:	4311      	orrs	r1, r2
10042866:	000a      	movs	r2, r1
10042868:	1e53      	subs	r3, r2, #1
1004286a:	419a      	sbcs	r2, r3
1004286c:	0010      	movs	r0, r2
1004286e:	e000      	b.n	10042872 <__eqdf2+0x5a>
10042870:	2001      	movs	r0, #1
10042872:	bcf0      	pop	{r4, r5, r6, r7}
10042874:	46bb      	mov	fp, r7
10042876:	46b2      	mov	sl, r6
10042878:	46a9      	mov	r9, r5
1004287a:	46a0      	mov	r8, r4
1004287c:	bdf0      	pop	{r4, r5, r6, r7, pc}
1004287e:	2001      	movs	r0, #1
10042880:	428e      	cmp	r6, r1
10042882:	d1f6      	bne.n	10042872 <__eqdf2+0x5a>
10042884:	4661      	mov	r1, ip
10042886:	4339      	orrs	r1, r7
10042888:	000f      	movs	r7, r1
1004288a:	4317      	orrs	r7, r2
1004288c:	4327      	orrs	r7, r4
1004288e:	d1f0      	bne.n	10042872 <__eqdf2+0x5a>
10042890:	465b      	mov	r3, fp
10042892:	4652      	mov	r2, sl
10042894:	1a98      	subs	r0, r3, r2
10042896:	1e43      	subs	r3, r0, #1
10042898:	4198      	sbcs	r0, r3
1004289a:	e7ea      	b.n	10042872 <__eqdf2+0x5a>
1004289c:	2000      	movs	r0, #0
1004289e:	e7e8      	b.n	10042872 <__eqdf2+0x5a>
100428a0:	000007ff 	.word	0x000007ff

100428a4 <__gedf2>:
100428a4:	b5f0      	push	{r4, r5, r6, r7, lr}
100428a6:	4657      	mov	r7, sl
100428a8:	464e      	mov	r6, r9
100428aa:	4645      	mov	r5, r8
100428ac:	46de      	mov	lr, fp
100428ae:	b5e0      	push	{r5, r6, r7, lr}
100428b0:	000d      	movs	r5, r1
100428b2:	030e      	lsls	r6, r1, #12
100428b4:	0049      	lsls	r1, r1, #1
100428b6:	0d49      	lsrs	r1, r1, #21
100428b8:	468a      	mov	sl, r1
100428ba:	0fdf      	lsrs	r7, r3, #31
100428bc:	0fe9      	lsrs	r1, r5, #31
100428be:	46bc      	mov	ip, r7
100428c0:	b083      	sub	sp, #12
100428c2:	4f2f      	ldr	r7, [pc, #188]	@ (10042980 <__gedf2+0xdc>)
100428c4:	0004      	movs	r4, r0
100428c6:	4680      	mov	r8, r0
100428c8:	9101      	str	r1, [sp, #4]
100428ca:	0058      	lsls	r0, r3, #1
100428cc:	0319      	lsls	r1, r3, #12
100428ce:	4691      	mov	r9, r2
100428d0:	0b36      	lsrs	r6, r6, #12
100428d2:	0b09      	lsrs	r1, r1, #12
100428d4:	0d40      	lsrs	r0, r0, #21
100428d6:	45ba      	cmp	sl, r7
100428d8:	d01d      	beq.n	10042916 <__gedf2+0x72>
100428da:	42b8      	cmp	r0, r7
100428dc:	d00d      	beq.n	100428fa <__gedf2+0x56>
100428de:	4657      	mov	r7, sl
100428e0:	2f00      	cmp	r7, #0
100428e2:	d12a      	bne.n	1004293a <__gedf2+0x96>
100428e4:	4334      	orrs	r4, r6
100428e6:	2800      	cmp	r0, #0
100428e8:	d124      	bne.n	10042934 <__gedf2+0x90>
100428ea:	430a      	orrs	r2, r1
100428ec:	d036      	beq.n	1004295c <__gedf2+0xb8>
100428ee:	2c00      	cmp	r4, #0
100428f0:	d141      	bne.n	10042976 <__gedf2+0xd2>
100428f2:	4663      	mov	r3, ip
100428f4:	0058      	lsls	r0, r3, #1
100428f6:	3801      	subs	r0, #1
100428f8:	e015      	b.n	10042926 <__gedf2+0x82>
100428fa:	4311      	orrs	r1, r2
100428fc:	d138      	bne.n	10042970 <__gedf2+0xcc>
100428fe:	4653      	mov	r3, sl
10042900:	2b00      	cmp	r3, #0
10042902:	d101      	bne.n	10042908 <__gedf2+0x64>
10042904:	4326      	orrs	r6, r4
10042906:	d0f4      	beq.n	100428f2 <__gedf2+0x4e>
10042908:	9b01      	ldr	r3, [sp, #4]
1004290a:	4563      	cmp	r3, ip
1004290c:	d107      	bne.n	1004291e <__gedf2+0x7a>
1004290e:	9b01      	ldr	r3, [sp, #4]
10042910:	0058      	lsls	r0, r3, #1
10042912:	3801      	subs	r0, #1
10042914:	e007      	b.n	10042926 <__gedf2+0x82>
10042916:	4326      	orrs	r6, r4
10042918:	d12a      	bne.n	10042970 <__gedf2+0xcc>
1004291a:	4550      	cmp	r0, sl
1004291c:	d021      	beq.n	10042962 <__gedf2+0xbe>
1004291e:	2001      	movs	r0, #1
10042920:	9b01      	ldr	r3, [sp, #4]
10042922:	425f      	negs	r7, r3
10042924:	4338      	orrs	r0, r7
10042926:	b003      	add	sp, #12
10042928:	bcf0      	pop	{r4, r5, r6, r7}
1004292a:	46bb      	mov	fp, r7
1004292c:	46b2      	mov	sl, r6
1004292e:	46a9      	mov	r9, r5
10042930:	46a0      	mov	r8, r4
10042932:	bdf0      	pop	{r4, r5, r6, r7, pc}
10042934:	2c00      	cmp	r4, #0
10042936:	d0dc      	beq.n	100428f2 <__gedf2+0x4e>
10042938:	e7e6      	b.n	10042908 <__gedf2+0x64>
1004293a:	2800      	cmp	r0, #0
1004293c:	d0ef      	beq.n	1004291e <__gedf2+0x7a>
1004293e:	9b01      	ldr	r3, [sp, #4]
10042940:	4563      	cmp	r3, ip
10042942:	d1ec      	bne.n	1004291e <__gedf2+0x7a>
10042944:	4582      	cmp	sl, r0
10042946:	dcea      	bgt.n	1004291e <__gedf2+0x7a>
10042948:	dbe1      	blt.n	1004290e <__gedf2+0x6a>
1004294a:	428e      	cmp	r6, r1
1004294c:	d8e7      	bhi.n	1004291e <__gedf2+0x7a>
1004294e:	d1de      	bne.n	1004290e <__gedf2+0x6a>
10042950:	45c8      	cmp	r8, r9
10042952:	d8e4      	bhi.n	1004291e <__gedf2+0x7a>
10042954:	2000      	movs	r0, #0
10042956:	45c8      	cmp	r8, r9
10042958:	d2e5      	bcs.n	10042926 <__gedf2+0x82>
1004295a:	e7d8      	b.n	1004290e <__gedf2+0x6a>
1004295c:	2c00      	cmp	r4, #0
1004295e:	d0e2      	beq.n	10042926 <__gedf2+0x82>
10042960:	e7dd      	b.n	1004291e <__gedf2+0x7a>
10042962:	4311      	orrs	r1, r2
10042964:	d104      	bne.n	10042970 <__gedf2+0xcc>
10042966:	9b01      	ldr	r3, [sp, #4]
10042968:	4563      	cmp	r3, ip
1004296a:	d1d8      	bne.n	1004291e <__gedf2+0x7a>
1004296c:	2000      	movs	r0, #0
1004296e:	e7da      	b.n	10042926 <__gedf2+0x82>
10042970:	2002      	movs	r0, #2
10042972:	4240      	negs	r0, r0
10042974:	e7d7      	b.n	10042926 <__gedf2+0x82>
10042976:	9b01      	ldr	r3, [sp, #4]
10042978:	4563      	cmp	r3, ip
1004297a:	d0e6      	beq.n	1004294a <__gedf2+0xa6>
1004297c:	e7cf      	b.n	1004291e <__gedf2+0x7a>
1004297e:	46c0      	nop			@ (mov r8, r8)
10042980:	000007ff 	.word	0x000007ff

10042984 <__ledf2>:
10042984:	b5f0      	push	{r4, r5, r6, r7, lr}
10042986:	4657      	mov	r7, sl
10042988:	464e      	mov	r6, r9
1004298a:	4645      	mov	r5, r8
1004298c:	46de      	mov	lr, fp
1004298e:	b5e0      	push	{r5, r6, r7, lr}
10042990:	000d      	movs	r5, r1
10042992:	030e      	lsls	r6, r1, #12
10042994:	0049      	lsls	r1, r1, #1
10042996:	0d49      	lsrs	r1, r1, #21
10042998:	468a      	mov	sl, r1
1004299a:	0fdf      	lsrs	r7, r3, #31
1004299c:	0fe9      	lsrs	r1, r5, #31
1004299e:	46bc      	mov	ip, r7
100429a0:	b083      	sub	sp, #12
100429a2:	4f2e      	ldr	r7, [pc, #184]	@ (10042a5c <__ledf2+0xd8>)
100429a4:	0004      	movs	r4, r0
100429a6:	4680      	mov	r8, r0
100429a8:	9101      	str	r1, [sp, #4]
100429aa:	0058      	lsls	r0, r3, #1
100429ac:	0319      	lsls	r1, r3, #12
100429ae:	4691      	mov	r9, r2
100429b0:	0b36      	lsrs	r6, r6, #12
100429b2:	0b09      	lsrs	r1, r1, #12
100429b4:	0d40      	lsrs	r0, r0, #21
100429b6:	45ba      	cmp	sl, r7
100429b8:	d01e      	beq.n	100429f8 <__ledf2+0x74>
100429ba:	42b8      	cmp	r0, r7
100429bc:	d00d      	beq.n	100429da <__ledf2+0x56>
100429be:	4657      	mov	r7, sl
100429c0:	2f00      	cmp	r7, #0
100429c2:	d127      	bne.n	10042a14 <__ledf2+0x90>
100429c4:	4334      	orrs	r4, r6
100429c6:	2800      	cmp	r0, #0
100429c8:	d133      	bne.n	10042a32 <__ledf2+0xae>
100429ca:	430a      	orrs	r2, r1
100429cc:	d034      	beq.n	10042a38 <__ledf2+0xb4>
100429ce:	2c00      	cmp	r4, #0
100429d0:	d140      	bne.n	10042a54 <__ledf2+0xd0>
100429d2:	4663      	mov	r3, ip
100429d4:	0058      	lsls	r0, r3, #1
100429d6:	3801      	subs	r0, #1
100429d8:	e015      	b.n	10042a06 <__ledf2+0x82>
100429da:	4311      	orrs	r1, r2
100429dc:	d112      	bne.n	10042a04 <__ledf2+0x80>
100429de:	4653      	mov	r3, sl
100429e0:	2b00      	cmp	r3, #0
100429e2:	d101      	bne.n	100429e8 <__ledf2+0x64>
100429e4:	4326      	orrs	r6, r4
100429e6:	d0f4      	beq.n	100429d2 <__ledf2+0x4e>
100429e8:	9b01      	ldr	r3, [sp, #4]
100429ea:	4563      	cmp	r3, ip
100429ec:	d01d      	beq.n	10042a2a <__ledf2+0xa6>
100429ee:	2001      	movs	r0, #1
100429f0:	9b01      	ldr	r3, [sp, #4]
100429f2:	425f      	negs	r7, r3
100429f4:	4338      	orrs	r0, r7
100429f6:	e006      	b.n	10042a06 <__ledf2+0x82>
100429f8:	4326      	orrs	r6, r4
100429fa:	d103      	bne.n	10042a04 <__ledf2+0x80>
100429fc:	4550      	cmp	r0, sl
100429fe:	d1f6      	bne.n	100429ee <__ledf2+0x6a>
10042a00:	4311      	orrs	r1, r2
10042a02:	d01c      	beq.n	10042a3e <__ledf2+0xba>
10042a04:	2002      	movs	r0, #2
10042a06:	b003      	add	sp, #12
10042a08:	bcf0      	pop	{r4, r5, r6, r7}
10042a0a:	46bb      	mov	fp, r7
10042a0c:	46b2      	mov	sl, r6
10042a0e:	46a9      	mov	r9, r5
10042a10:	46a0      	mov	r8, r4
10042a12:	bdf0      	pop	{r4, r5, r6, r7, pc}
10042a14:	2800      	cmp	r0, #0
10042a16:	d0ea      	beq.n	100429ee <__ledf2+0x6a>
10042a18:	9b01      	ldr	r3, [sp, #4]
10042a1a:	4563      	cmp	r3, ip
10042a1c:	d1e7      	bne.n	100429ee <__ledf2+0x6a>
10042a1e:	4582      	cmp	sl, r0
10042a20:	dce5      	bgt.n	100429ee <__ledf2+0x6a>
10042a22:	db02      	blt.n	10042a2a <__ledf2+0xa6>
10042a24:	428e      	cmp	r6, r1
10042a26:	d8e2      	bhi.n	100429ee <__ledf2+0x6a>
10042a28:	d00e      	beq.n	10042a48 <__ledf2+0xc4>
10042a2a:	9b01      	ldr	r3, [sp, #4]
10042a2c:	0058      	lsls	r0, r3, #1
10042a2e:	3801      	subs	r0, #1
10042a30:	e7e9      	b.n	10042a06 <__ledf2+0x82>
10042a32:	2c00      	cmp	r4, #0
10042a34:	d0cd      	beq.n	100429d2 <__ledf2+0x4e>
10042a36:	e7d7      	b.n	100429e8 <__ledf2+0x64>
10042a38:	2c00      	cmp	r4, #0
10042a3a:	d0e4      	beq.n	10042a06 <__ledf2+0x82>
10042a3c:	e7d7      	b.n	100429ee <__ledf2+0x6a>
10042a3e:	9b01      	ldr	r3, [sp, #4]
10042a40:	2000      	movs	r0, #0
10042a42:	4563      	cmp	r3, ip
10042a44:	d0df      	beq.n	10042a06 <__ledf2+0x82>
10042a46:	e7d2      	b.n	100429ee <__ledf2+0x6a>
10042a48:	45c8      	cmp	r8, r9
10042a4a:	d8d0      	bhi.n	100429ee <__ledf2+0x6a>
10042a4c:	2000      	movs	r0, #0
10042a4e:	45c8      	cmp	r8, r9
10042a50:	d2d9      	bcs.n	10042a06 <__ledf2+0x82>
10042a52:	e7ea      	b.n	10042a2a <__ledf2+0xa6>
10042a54:	9b01      	ldr	r3, [sp, #4]
10042a56:	4563      	cmp	r3, ip
10042a58:	d0e4      	beq.n	10042a24 <__ledf2+0xa0>
10042a5a:	e7c8      	b.n	100429ee <__ledf2+0x6a>
10042a5c:	000007ff 	.word	0x000007ff

10042a60 <LL_AHB1_GRP1_EnableClock>:
  * @arg LL_AHB1_GRP1_PERIPH_RNG
  * @arg LL_AHB1_GRP1_PERIPH_AES
  * @retval None
  */
__STATIC_INLINE void LL_AHB1_GRP1_EnableClock(uint32_t Periphs)
{
10042a60:	b580      	push	{r7, lr}
10042a62:	b084      	sub	sp, #16
10042a64:	af00      	add	r7, sp, #0
10042a66:	6078      	str	r0, [r7, #4]
  __IO uint32_t tmpreg;
  SET_BIT(RCC->AHBENR, Periphs);
10042a68:	4b07      	ldr	r3, [pc, #28]	@ (10042a88 <LL_AHB1_GRP1_EnableClock+0x28>)
10042a6a:	6d19      	ldr	r1, [r3, #80]	@ 0x50
10042a6c:	4b06      	ldr	r3, [pc, #24]	@ (10042a88 <LL_AHB1_GRP1_EnableClock+0x28>)
10042a6e:	687a      	ldr	r2, [r7, #4]
10042a70:	430a      	orrs	r2, r1
10042a72:	651a      	str	r2, [r3, #80]	@ 0x50
  /* Delay after an RCC peripheral clock enabling */
  tmpreg = READ_BIT(RCC->AHBENR, Periphs);
10042a74:	4b04      	ldr	r3, [pc, #16]	@ (10042a88 <LL_AHB1_GRP1_EnableClock+0x28>)
10042a76:	6d1b      	ldr	r3, [r3, #80]	@ 0x50
10042a78:	687a      	ldr	r2, [r7, #4]
10042a7a:	4013      	ands	r3, r2
10042a7c:	60fb      	str	r3, [r7, #12]
  (void)tmpreg;
10042a7e:	68fb      	ldr	r3, [r7, #12]
}
10042a80:	46c0      	nop			@ (mov r8, r8)
10042a82:	46bd      	mov	sp, r7
10042a84:	b004      	add	sp, #16
10042a86:	bd80      	pop	{r7, pc}
10042a88:	48400000 	.word	0x48400000

10042a8c <Timer_HasElapsed>:
    uint32_t start_time;
    uint32_t interval;
} EasyTimer_t;

// Function to check if the timer has expired
bool Timer_HasElapsed(EasyTimer_t *timer) {
10042a8c:	b580      	push	{r7, lr}
10042a8e:	b082      	sub	sp, #8
10042a90:	af00      	add	r7, sp, #0
10042a92:	6078      	str	r0, [r7, #4]
    if ((HAL_GetTick() - timer->start_time) >= timer->interval) {
10042a94:	f001 fa9e 	bl	10043fd4 <HAL_GetTick>
10042a98:	0002      	movs	r2, r0
10042a9a:	687b      	ldr	r3, [r7, #4]
10042a9c:	681b      	ldr	r3, [r3, #0]
10042a9e:	1ad2      	subs	r2, r2, r3
10042aa0:	687b      	ldr	r3, [r7, #4]
10042aa2:	685b      	ldr	r3, [r3, #4]
10042aa4:	429a      	cmp	r2, r3
10042aa6:	d306      	bcc.n	10042ab6 <Timer_HasElapsed+0x2a>
        timer->start_time = HAL_GetTick(); // Reset the timer start point
10042aa8:	f001 fa94 	bl	10043fd4 <HAL_GetTick>
10042aac:	0002      	movs	r2, r0
10042aae:	687b      	ldr	r3, [r7, #4]
10042ab0:	601a      	str	r2, [r3, #0]
        return true;
10042ab2:	2301      	movs	r3, #1
10042ab4:	e000      	b.n	10042ab8 <Timer_HasElapsed+0x2c>
    }
    return false;
10042ab6:	2300      	movs	r3, #0
}
10042ab8:	0018      	movs	r0, r3
10042aba:	46bd      	mov	sp, r7
10042abc:	b002      	add	sp, #8
10042abe:	bd80      	pop	{r7, pc}

10042ac0 <ADXL372_WriteReg>:
static int16_t triaxial_z_raw;

/**
 * @brief Write to an ADXL372 register
 */
static inline void ADXL372_WriteReg(uint8_t reg, uint8_t val, uint16_t cs_pin) {
10042ac0:	b590      	push	{r4, r7, lr}
10042ac2:	b085      	sub	sp, #20
10042ac4:	af00      	add	r7, sp, #0
10042ac6:	0004      	movs	r4, r0
10042ac8:	0008      	movs	r0, r1
10042aca:	0011      	movs	r1, r2
10042acc:	1dfb      	adds	r3, r7, #7
10042ace:	1c22      	adds	r2, r4, #0
10042ad0:	701a      	strb	r2, [r3, #0]
10042ad2:	1dbb      	adds	r3, r7, #6
10042ad4:	1c02      	adds	r2, r0, #0
10042ad6:	701a      	strb	r2, [r3, #0]
10042ad8:	1d3b      	adds	r3, r7, #4
10042ada:	1c0a      	adds	r2, r1, #0
10042adc:	801a      	strh	r2, [r3, #0]
    uint8_t tx_buf[2];
    tx_buf[0] = (reg << 1) | ADXL372_WRITE;
10042ade:	1dfb      	adds	r3, r7, #7
10042ae0:	781b      	ldrb	r3, [r3, #0]
10042ae2:	18db      	adds	r3, r3, r3
10042ae4:	b2da      	uxtb	r2, r3
10042ae6:	240c      	movs	r4, #12
10042ae8:	193b      	adds	r3, r7, r4
10042aea:	701a      	strb	r2, [r3, #0]
    tx_buf[1] = val;
10042aec:	193b      	adds	r3, r7, r4
10042aee:	1dba      	adds	r2, r7, #6
10042af0:	7812      	ldrb	r2, [r2, #0]
10042af2:	705a      	strb	r2, [r3, #1]

    HAL_GPIO_WritePin(GPIOA, cs_pin, GPIO_PIN_RESET);
10042af4:	1d3b      	adds	r3, r7, #4
10042af6:	8819      	ldrh	r1, [r3, #0]
10042af8:	2390      	movs	r3, #144	@ 0x90
10042afa:	05db      	lsls	r3, r3, #23
10042afc:	2200      	movs	r2, #0
10042afe:	0018      	movs	r0, r3
10042b00:	f002 fa73 	bl	10044fea <HAL_GPIO_WritePin>
    HAL_SPI_Transmit(&hspi3, tx_buf, 2, 10);
10042b04:	1939      	adds	r1, r7, r4
10042b06:	4808      	ldr	r0, [pc, #32]	@ (10042b28 <ADXL372_WriteReg+0x68>)
10042b08:	230a      	movs	r3, #10
10042b0a:	2202      	movs	r2, #2
10042b0c:	f004 fb34 	bl	10047178 <HAL_SPI_Transmit>
    HAL_GPIO_WritePin(GPIOA, cs_pin, GPIO_PIN_SET);
10042b10:	1d3b      	adds	r3, r7, #4
10042b12:	8819      	ldrh	r1, [r3, #0]
10042b14:	2390      	movs	r3, #144	@ 0x90
10042b16:	05db      	lsls	r3, r3, #23
10042b18:	2201      	movs	r2, #1
10042b1a:	0018      	movs	r0, r3
10042b1c:	f002 fa65 	bl	10044fea <HAL_GPIO_WritePin>
}
10042b20:	46c0      	nop			@ (mov r8, r8)
10042b22:	46bd      	mov	sp, r7
10042b24:	b005      	add	sp, #20
10042b26:	bd90      	pop	{r4, r7, pc}
10042b28:	20000094 	.word	0x20000094

10042b2c <ADXL372_ReadReg>:

/**
 * @brief Read from an ADXL372 register
 */
static inline uint8_t ADXL372_ReadReg(uint8_t reg, uint16_t cs_pin) {
10042b2c:	b5b0      	push	{r4, r5, r7, lr}
10042b2e:	b086      	sub	sp, #24
10042b30:	af02      	add	r7, sp, #8
10042b32:	0002      	movs	r2, r0
10042b34:	1dfb      	adds	r3, r7, #7
10042b36:	701a      	strb	r2, [r3, #0]
10042b38:	1d3b      	adds	r3, r7, #4
10042b3a:	1c0a      	adds	r2, r1, #0
10042b3c:	801a      	strh	r2, [r3, #0]
    uint8_t tx_buf[2] = { (uint8_t)((reg << 1) | ADXL372_READ), 0x00 };
10042b3e:	1dfb      	adds	r3, r7, #7
10042b40:	781b      	ldrb	r3, [r3, #0]
10042b42:	b25b      	sxtb	r3, r3
10042b44:	18db      	adds	r3, r3, r3
10042b46:	b25b      	sxtb	r3, r3
10042b48:	2201      	movs	r2, #1
10042b4a:	4313      	orrs	r3, r2
10042b4c:	b25b      	sxtb	r3, r3
10042b4e:	b2da      	uxtb	r2, r3
10042b50:	240c      	movs	r4, #12
10042b52:	193b      	adds	r3, r7, r4
10042b54:	701a      	strb	r2, [r3, #0]
10042b56:	193b      	adds	r3, r7, r4
10042b58:	2200      	movs	r2, #0
10042b5a:	705a      	strb	r2, [r3, #1]
    uint8_t rx_buf[2] = { 0, 0 };
10042b5c:	2508      	movs	r5, #8
10042b5e:	197b      	adds	r3, r7, r5
10042b60:	2200      	movs	r2, #0
10042b62:	801a      	strh	r2, [r3, #0]

    HAL_GPIO_WritePin(GPIOA, cs_pin, GPIO_PIN_RESET);
10042b64:	1d3b      	adds	r3, r7, #4
10042b66:	8819      	ldrh	r1, [r3, #0]
10042b68:	2390      	movs	r3, #144	@ 0x90
10042b6a:	05db      	lsls	r3, r3, #23
10042b6c:	2200      	movs	r2, #0
10042b6e:	0018      	movs	r0, r3
10042b70:	f002 fa3b 	bl	10044fea <HAL_GPIO_WritePin>
    // Use the 2-byte size to ensure the SPI pulses exactly 16 times
    HAL_SPI_TransmitReceive(&hspi3, tx_buf, rx_buf, 2, 10);
10042b74:	197a      	adds	r2, r7, r5
10042b76:	1939      	adds	r1, r7, r4
10042b78:	4809      	ldr	r0, [pc, #36]	@ (10042ba0 <ADXL372_ReadReg+0x74>)
10042b7a:	230a      	movs	r3, #10
10042b7c:	9300      	str	r3, [sp, #0]
10042b7e:	2302      	movs	r3, #2
10042b80:	f004 fc7e 	bl	10047480 <HAL_SPI_TransmitReceive>
    HAL_GPIO_WritePin(GPIOA, cs_pin, GPIO_PIN_SET);
10042b84:	1d3b      	adds	r3, r7, #4
10042b86:	8819      	ldrh	r1, [r3, #0]
10042b88:	2390      	movs	r3, #144	@ 0x90
10042b8a:	05db      	lsls	r3, r3, #23
10042b8c:	2201      	movs	r2, #1
10042b8e:	0018      	movs	r0, r3
10042b90:	f002 fa2b 	bl	10044fea <HAL_GPIO_WritePin>

    return rx_buf[1]; // The actual data is in the second slot
10042b94:	197b      	adds	r3, r7, r5
10042b96:	785b      	ldrb	r3, [r3, #1]
}
10042b98:	0018      	movs	r0, r3
10042b9a:	46bd      	mov	sp, r7
10042b9c:	b004      	add	sp, #16
10042b9e:	bdb0      	pop	{r4, r5, r7, pc}
10042ba0:	20000094 	.word	0x20000094

10042ba4 <ADXL372_Init>:

/**
 * @brief Initialize the ADXL372
 * @return 1 if success (Device ID found), 0 if failed
 */
void ADXL372_Init(uint16_t cs_pin) {
10042ba4:	b580      	push	{r7, lr}
10042ba6:	b082      	sub	sp, #8
10042ba8:	af00      	add	r7, sp, #0
10042baa:	0002      	movs	r2, r0
10042bac:	1dbb      	adds	r3, r7, #6
10042bae:	801a      	strh	r2, [r3, #0]
    // 1. Verify Connectivity
    ADXL372_ReadReg(ADXL372_DEVID_AD, cs_pin);
10042bb0:	1dbb      	adds	r3, r7, #6
10042bb2:	881b      	ldrh	r3, [r3, #0]
10042bb4:	0019      	movs	r1, r3
10042bb6:	2000      	movs	r0, #0
10042bb8:	f7ff ffb8 	bl	10042b2c <ADXL372_ReadReg>
    ADXL372_ReadReg(ADXL372_DEVID_AD, cs_pin); // 2nd one to flush out FIFO buffers
10042bbc:	1dbb      	adds	r3, r7, #6
10042bbe:	881b      	ldrh	r3, [r3, #0]
10042bc0:	0019      	movs	r1, r3
10042bc2:	2000      	movs	r0, #0
10042bc4:	f7ff ffb2 	bl	10042b2c <ADXL372_ReadReg>

    // 2. Software Reset
    ADXL372_WriteReg(ADXL372_SRESET, 0x52, cs_pin);
10042bc8:	1dbb      	adds	r3, r7, #6
10042bca:	881b      	ldrh	r3, [r3, #0]
10042bcc:	001a      	movs	r2, r3
10042bce:	2152      	movs	r1, #82	@ 0x52
10042bd0:	2041      	movs	r0, #65	@ 0x41
10042bd2:	f7ff ff75 	bl	10042ac0 <ADXL372_WriteReg>
    HAL_Delay(100);
10042bd6:	2064      	movs	r0, #100	@ 0x64
10042bd8:	f001 fa10 	bl	10043ffc <HAL_Delay>

    // 3. Configure Timing (ODR: 6400 Hz)
    ADXL372_WriteReg(ADXL372_TIMING, 0x80, cs_pin);
10042bdc:	1dbb      	adds	r3, r7, #6
10042bde:	881b      	ldrh	r3, [r3, #0]
10042be0:	001a      	movs	r2, r3
10042be2:	2180      	movs	r1, #128	@ 0x80
10042be4:	203d      	movs	r0, #61	@ 0x3d
10042be6:	f7ff ff6b 	bl	10042ac0 <ADXL372_WriteReg>

    // 4. Configure Measurement (Bandwidth: 3200 Hz, Low Noise)
    ADXL372_WriteReg(ADXL372_MEASURE, 0x04, cs_pin);
10042bea:	1dbb      	adds	r3, r7, #6
10042bec:	881b      	ldrh	r3, [r3, #0]
10042bee:	001a      	movs	r2, r3
10042bf0:	2104      	movs	r1, #4
10042bf2:	203e      	movs	r0, #62	@ 0x3e
10042bf4:	f7ff ff64 	bl	10042ac0 <ADXL372_WriteReg>
    
    // 5. Power Control: Full Measurement Mode
    ADXL372_WriteReg(ADXL372_POWER_CTL, 0x03, cs_pin);
10042bf8:	1dbb      	adds	r3, r7, #6
10042bfa:	881b      	ldrh	r3, [r3, #0]
10042bfc:	001a      	movs	r2, r3
10042bfe:	2103      	movs	r1, #3
10042c00:	203f      	movs	r0, #63	@ 0x3f
10042c02:	f7ff ff5d 	bl	10042ac0 <ADXL372_WriteReg>

}
10042c06:	46c0      	nop			@ (mov r8, r8)
10042c08:	46bd      	mov	sp, r7
10042c0a:	b002      	add	sp, #8
10042c0c:	bd80      	pop	{r7, pc}
	...

10042c10 <Sample_ADXL372>:

/**
 * @brief Burst read X, Y, and Z axes
 */
static inline void Sample_ADXL372(uint16_t cs_pin) {
10042c10:	b5b0      	push	{r4, r5, r7, lr}
10042c12:	b08a      	sub	sp, #40	@ 0x28
10042c14:	af02      	add	r7, sp, #8
10042c16:	0002      	movs	r2, r0
10042c18:	1dbb      	adds	r3, r7, #6
10042c1a:	801a      	strh	r2, [r3, #0]
    uint8_t addr = (ADXL372_XDATA_H << 1) | ADXL372_READ;
10042c1c:	2019      	movs	r0, #25
10042c1e:	183b      	adds	r3, r7, r0
10042c20:	2211      	movs	r2, #17
10042c22:	701a      	strb	r2, [r3, #0]
    uint8_t tx_buf[7] = {addr, 0, 0, 0, 0, 0, 0}; // Address + 6 dummy bytes
10042c24:	2110      	movs	r1, #16
10042c26:	187b      	adds	r3, r7, r1
10042c28:	183a      	adds	r2, r7, r0
10042c2a:	7812      	ldrb	r2, [r2, #0]
10042c2c:	701a      	strb	r2, [r3, #0]
10042c2e:	000c      	movs	r4, r1
10042c30:	193b      	adds	r3, r7, r4
10042c32:	2200      	movs	r2, #0
10042c34:	705a      	strb	r2, [r3, #1]
10042c36:	193b      	adds	r3, r7, r4
10042c38:	2200      	movs	r2, #0
10042c3a:	709a      	strb	r2, [r3, #2]
10042c3c:	193b      	adds	r3, r7, r4
10042c3e:	2200      	movs	r2, #0
10042c40:	70da      	strb	r2, [r3, #3]
10042c42:	193b      	adds	r3, r7, r4
10042c44:	2200      	movs	r2, #0
10042c46:	711a      	strb	r2, [r3, #4]
10042c48:	193b      	adds	r3, r7, r4
10042c4a:	2200      	movs	r2, #0
10042c4c:	715a      	strb	r2, [r3, #5]
10042c4e:	193b      	adds	r3, r7, r4
10042c50:	2200      	movs	r2, #0
10042c52:	719a      	strb	r2, [r3, #6]
    uint8_t rx_buf[7];

    HAL_GPIO_WritePin(GPIOA, cs_pin, GPIO_PIN_RESET);
10042c54:	1dbb      	adds	r3, r7, #6
10042c56:	8819      	ldrh	r1, [r3, #0]
10042c58:	2390      	movs	r3, #144	@ 0x90
10042c5a:	05db      	lsls	r3, r3, #23
10042c5c:	2200      	movs	r2, #0
10042c5e:	0018      	movs	r0, r3
10042c60:	f002 f9c3 	bl	10044fea <HAL_GPIO_WritePin>

    // Use TransmitReceive for the whole 7-byte block (Address + 6 Data Bytes)
    // This is much faster and more reliable on WL33
    if (HAL_SPI_TransmitReceive(&hspi3, tx_buf, rx_buf, 7, 10) == HAL_OK) {
10042c64:	2508      	movs	r5, #8
10042c66:	197a      	adds	r2, r7, r5
10042c68:	1939      	adds	r1, r7, r4
10042c6a:	483e      	ldr	r0, [pc, #248]	@ (10042d64 <Sample_ADXL372+0x154>)
10042c6c:	230a      	movs	r3, #10
10042c6e:	9300      	str	r3, [sp, #0]
10042c70:	2307      	movs	r3, #7
10042c72:	f004 fc05 	bl	10047480 <HAL_SPI_TransmitReceive>
10042c76:	1e03      	subs	r3, r0, #0
10042c78:	d168      	bne.n	10042d4c <Sample_ADXL372+0x13c>
        // rx_buf[0] is garbage (received while sending address)
        // Data starts from rx_buf[1]
        int16_t x = (int16_t)((rx_buf[1] << 4) | (rx_buf[2] >> 4));
10042c7a:	0028      	movs	r0, r5
10042c7c:	183b      	adds	r3, r7, r0
10042c7e:	785b      	ldrb	r3, [r3, #1]
10042c80:	b21b      	sxth	r3, r3
10042c82:	011b      	lsls	r3, r3, #4
10042c84:	b219      	sxth	r1, r3
10042c86:	183b      	adds	r3, r7, r0
10042c88:	789b      	ldrb	r3, [r3, #2]
10042c8a:	091b      	lsrs	r3, r3, #4
10042c8c:	b2db      	uxtb	r3, r3
10042c8e:	b21a      	sxth	r2, r3
10042c90:	241e      	movs	r4, #30
10042c92:	193b      	adds	r3, r7, r4
10042c94:	430a      	orrs	r2, r1
10042c96:	801a      	strh	r2, [r3, #0]
        int16_t y = (int16_t)((rx_buf[3] << 4) | (rx_buf[4] >> 4));
10042c98:	183b      	adds	r3, r7, r0
10042c9a:	78db      	ldrb	r3, [r3, #3]
10042c9c:	b21b      	sxth	r3, r3
10042c9e:	011b      	lsls	r3, r3, #4
10042ca0:	b219      	sxth	r1, r3
10042ca2:	183b      	adds	r3, r7, r0
10042ca4:	791b      	ldrb	r3, [r3, #4]
10042ca6:	091b      	lsrs	r3, r3, #4
10042ca8:	b2db      	uxtb	r3, r3
10042caa:	b21a      	sxth	r2, r3
10042cac:	231c      	movs	r3, #28
10042cae:	18fb      	adds	r3, r7, r3
10042cb0:	430a      	orrs	r2, r1
10042cb2:	801a      	strh	r2, [r3, #0]
        int16_t z = (int16_t)((rx_buf[5] << 4) | (rx_buf[6] >> 4));
10042cb4:	183b      	adds	r3, r7, r0
10042cb6:	795b      	ldrb	r3, [r3, #5]
10042cb8:	b21b      	sxth	r3, r3
10042cba:	011b      	lsls	r3, r3, #4
10042cbc:	b219      	sxth	r1, r3
10042cbe:	183b      	adds	r3, r7, r0
10042cc0:	799b      	ldrb	r3, [r3, #6]
10042cc2:	091b      	lsrs	r3, r3, #4
10042cc4:	b2db      	uxtb	r3, r3
10042cc6:	b21a      	sxth	r2, r3
10042cc8:	231a      	movs	r3, #26
10042cca:	18fb      	adds	r3, r7, r3
10042ccc:	430a      	orrs	r2, r1
10042cce:	801a      	strh	r2, [r3, #0]

        if (x > 2047) x -= 4096;
10042cd0:	193b      	adds	r3, r7, r4
10042cd2:	2200      	movs	r2, #0
10042cd4:	5e9a      	ldrsh	r2, [r3, r2]
10042cd6:	2380      	movs	r3, #128	@ 0x80
10042cd8:	011b      	lsls	r3, r3, #4
10042cda:	429a      	cmp	r2, r3
10042cdc:	db07      	blt.n	10042cee <Sample_ADXL372+0xde>
10042cde:	193b      	adds	r3, r7, r4
10042ce0:	881b      	ldrh	r3, [r3, #0]
10042ce2:	4a21      	ldr	r2, [pc, #132]	@ (10042d68 <Sample_ADXL372+0x158>)
10042ce4:	4694      	mov	ip, r2
10042ce6:	4463      	add	r3, ip
10042ce8:	b29a      	uxth	r2, r3
10042cea:	193b      	adds	r3, r7, r4
10042cec:	801a      	strh	r2, [r3, #0]
        if (y > 2047) y -= 4096;
10042cee:	211c      	movs	r1, #28
10042cf0:	187b      	adds	r3, r7, r1
10042cf2:	2200      	movs	r2, #0
10042cf4:	5e9a      	ldrsh	r2, [r3, r2]
10042cf6:	2380      	movs	r3, #128	@ 0x80
10042cf8:	011b      	lsls	r3, r3, #4
10042cfa:	429a      	cmp	r2, r3
10042cfc:	db07      	blt.n	10042d0e <Sample_ADXL372+0xfe>
10042cfe:	187b      	adds	r3, r7, r1
10042d00:	881b      	ldrh	r3, [r3, #0]
10042d02:	4a19      	ldr	r2, [pc, #100]	@ (10042d68 <Sample_ADXL372+0x158>)
10042d04:	4694      	mov	ip, r2
10042d06:	4463      	add	r3, ip
10042d08:	b29a      	uxth	r2, r3
10042d0a:	187b      	adds	r3, r7, r1
10042d0c:	801a      	strh	r2, [r3, #0]
        if (z > 2047) z -= 4096;
10042d0e:	211a      	movs	r1, #26
10042d10:	187b      	adds	r3, r7, r1
10042d12:	2200      	movs	r2, #0
10042d14:	5e9a      	ldrsh	r2, [r3, r2]
10042d16:	2380      	movs	r3, #128	@ 0x80
10042d18:	011b      	lsls	r3, r3, #4
10042d1a:	429a      	cmp	r2, r3
10042d1c:	db07      	blt.n	10042d2e <Sample_ADXL372+0x11e>
10042d1e:	187b      	adds	r3, r7, r1
10042d20:	881b      	ldrh	r3, [r3, #0]
10042d22:	4a11      	ldr	r2, [pc, #68]	@ (10042d68 <Sample_ADXL372+0x158>)
10042d24:	4694      	mov	ip, r2
10042d26:	4463      	add	r3, ip
10042d28:	b29a      	uxth	r2, r3
10042d2a:	187b      	adds	r3, r7, r1
10042d2c:	801a      	strh	r2, [r3, #0]

        triaxial_x_raw = x;
10042d2e:	4b0f      	ldr	r3, [pc, #60]	@ (10042d6c <Sample_ADXL372+0x15c>)
10042d30:	221e      	movs	r2, #30
10042d32:	18ba      	adds	r2, r7, r2
10042d34:	8812      	ldrh	r2, [r2, #0]
10042d36:	801a      	strh	r2, [r3, #0]
        triaxial_y_raw = y;
10042d38:	4b0d      	ldr	r3, [pc, #52]	@ (10042d70 <Sample_ADXL372+0x160>)
10042d3a:	221c      	movs	r2, #28
10042d3c:	18ba      	adds	r2, r7, r2
10042d3e:	8812      	ldrh	r2, [r2, #0]
10042d40:	801a      	strh	r2, [r3, #0]
        triaxial_z_raw = z;
10042d42:	4b0c      	ldr	r3, [pc, #48]	@ (10042d74 <Sample_ADXL372+0x164>)
10042d44:	221a      	movs	r2, #26
10042d46:	18ba      	adds	r2, r7, r2
10042d48:	8812      	ldrh	r2, [r2, #0]
10042d4a:	801a      	strh	r2, [r3, #0]
    }
    HAL_GPIO_WritePin(GPIOA, cs_pin, GPIO_PIN_SET);
10042d4c:	1dbb      	adds	r3, r7, #6
10042d4e:	8819      	ldrh	r1, [r3, #0]
10042d50:	2390      	movs	r3, #144	@ 0x90
10042d52:	05db      	lsls	r3, r3, #23
10042d54:	2201      	movs	r2, #1
10042d56:	0018      	movs	r0, r3
10042d58:	f002 f947 	bl	10044fea <HAL_GPIO_WritePin>
}
10042d5c:	46c0      	nop			@ (mov r8, r8)
10042d5e:	46bd      	mov	sp, r7
10042d60:	b008      	add	sp, #32
10042d62:	bdb0      	pop	{r4, r5, r7, pc}
10042d64:	20000094 	.word	0x20000094
10042d68:	fffff000 	.word	0xfffff000
10042d6c:	20000034 	.word	0x20000034
10042d70:	20000036 	.word	0x20000036
10042d74:	20000038 	.word	0x20000038

10042d78 <ADXL372_GetG>:

/**
 * @brief Optional: Convert raw value to Gs
 * Max range is ±200G. Sensitivity is 100 mg/LSB.
 */
static inline float ADXL372_GetG(int16_t raw_value) {
10042d78:	b580      	push	{r7, lr}
10042d7a:	b082      	sub	sp, #8
10042d7c:	af00      	add	r7, sp, #0
10042d7e:	0002      	movs	r2, r0
10042d80:	1dbb      	adds	r3, r7, #6
10042d82:	801a      	strh	r2, [r3, #0]
    return (float)raw_value * 0.1f;
10042d84:	1dbb      	adds	r3, r7, #6
10042d86:	2200      	movs	r2, #0
10042d88:	5e9b      	ldrsh	r3, [r3, r2]
10042d8a:	0018      	movs	r0, r3
10042d8c:	f7fe f910 	bl	10040fb0 <__aeabi_i2f>
10042d90:	1c03      	adds	r3, r0, #0
10042d92:	4904      	ldr	r1, [pc, #16]	@ (10042da4 <ADXL372_GetG+0x2c>)
10042d94:	1c18      	adds	r0, r3, #0
10042d96:	f7fd fd57 	bl	10040848 <__aeabi_fmul>
10042d9a:	1c03      	adds	r3, r0, #0
}
10042d9c:	1c18      	adds	r0, r3, #0
10042d9e:	46bd      	mov	sp, r7
10042da0:	b002      	add	sp, #8
10042da2:	bd80      	pop	{r7, pc}
10042da4:	3dcccccd 	.word	0x3dcccccd

10042da8 <ADC_to_Voltage>:

float strain_init;
float strain_corrected;
float offset_voltageS;

uint16_t ADC_to_Voltage(uint16_t adc){
10042da8:	b580      	push	{r7, lr}
10042daa:	b082      	sub	sp, #8
10042dac:	af00      	add	r7, sp, #0
10042dae:	0002      	movs	r2, r0
10042db0:	1dbb      	adds	r3, r7, #6
10042db2:	801a      	strh	r2, [r3, #0]
    return (uint16_t)((uint32_t) (adc * 3600.0) / ADC_MAX_VALUE);
10042db4:	1dbb      	adds	r3, r7, #6
10042db6:	881b      	ldrh	r3, [r3, #0]
10042db8:	0018      	movs	r0, r3
10042dba:	f7ff fba3 	bl	10042504 <__aeabi_i2d>
10042dbe:	2200      	movs	r2, #0
10042dc0:	4b0e      	ldr	r3, [pc, #56]	@ (10042dfc <ADC_to_Voltage+0x54>)
10042dc2:	f7fe fc63 	bl	1004168c <__aeabi_dmul>
10042dc6:	0002      	movs	r2, r0
10042dc8:	000b      	movs	r3, r1
10042dca:	0010      	movs	r0, r2
10042dcc:	0019      	movs	r1, r3
10042dce:	f7fd fb3b 	bl	10040448 <__aeabi_d2uiz>
10042dd2:	0003      	movs	r3, r0
10042dd4:	0018      	movs	r0, r3
10042dd6:	f7ff fbc3 	bl	10042560 <__aeabi_ui2d>
10042dda:	2200      	movs	r2, #0
10042ddc:	4b08      	ldr	r3, [pc, #32]	@ (10042e00 <ADC_to_Voltage+0x58>)
10042dde:	f7fe f937 	bl	10041050 <__aeabi_ddiv>
10042de2:	0002      	movs	r2, r0
10042de4:	000b      	movs	r3, r1
10042de6:	0010      	movs	r0, r2
10042de8:	0019      	movs	r1, r3
10042dea:	f7fd fb2d 	bl	10040448 <__aeabi_d2uiz>
10042dee:	0003      	movs	r3, r0
10042df0:	b29b      	uxth	r3, r3
}
10042df2:	0018      	movs	r0, r3
10042df4:	46bd      	mov	sp, r7
10042df6:	b002      	add	sp, #8
10042df8:	bd80      	pop	{r7, pc}
10042dfa:	46c0      	nop			@ (mov r8, r8)
10042dfc:	40ac2000 	.word	0x40ac2000
10042e00:	40affe00 	.word	0x40affe00

10042e04 <Get_G_Force>:

float Get_G_Force(uint16_t v) {
10042e04:	b580      	push	{r7, lr}
10042e06:	b082      	sub	sp, #8
10042e08:	af00      	add	r7, sp, #0
10042e0a:	0002      	movs	r2, r0
10042e0c:	1dbb      	adds	r3, r7, #6
10042e0e:	801a      	strh	r2, [r3, #0]
    // 1. Convert ADC to mV (Assumes 3.6V Range setting)
//    voltage_mv = (adc_raw * 3600.0f) / 4095.0f;

    // 2. Subtract Bias (1.7V = 1700mV)
    offset_voltageG = v - 1800.0f;
10042e10:	1dbb      	adds	r3, r7, #6
10042e12:	881b      	ldrh	r3, [r3, #0]
10042e14:	0018      	movs	r0, r3
10042e16:	f7fe f8cb 	bl	10040fb0 <__aeabi_i2f>
10042e1a:	1c03      	adds	r3, r0, #0
10042e1c:	490b      	ldr	r1, [pc, #44]	@ (10042e4c <Get_G_Force+0x48>)
10042e1e:	1c18      	adds	r0, r3, #0
10042e20:	f7fd fe64 	bl	10040aec <__aeabi_fsub>
10042e24:	1c03      	adds	r3, r0, #0
10042e26:	1c1a      	adds	r2, r3, #0
10042e28:	4b09      	ldr	r3, [pc, #36]	@ (10042e50 <Get_G_Force+0x4c>)
10042e2a:	601a      	str	r2, [r3, #0]

    // 3. Divide by Sensitivity (5mV per g)
    g_force = offset_voltageG / 5.0f;
10042e2c:	4b08      	ldr	r3, [pc, #32]	@ (10042e50 <Get_G_Force+0x4c>)
10042e2e:	681b      	ldr	r3, [r3, #0]
10042e30:	4908      	ldr	r1, [pc, #32]	@ (10042e54 <Get_G_Force+0x50>)
10042e32:	1c18      	adds	r0, r3, #0
10042e34:	f7fd fbf2 	bl	1004061c <__aeabi_fdiv>
10042e38:	1c03      	adds	r3, r0, #0
10042e3a:	1c1a      	adds	r2, r3, #0
10042e3c:	4b06      	ldr	r3, [pc, #24]	@ (10042e58 <Get_G_Force+0x54>)
10042e3e:	601a      	str	r2, [r3, #0]

    return g_force;
10042e40:	4b05      	ldr	r3, [pc, #20]	@ (10042e58 <Get_G_Force+0x54>)
10042e42:	681b      	ldr	r3, [r3, #0]
}
10042e44:	1c18      	adds	r0, r3, #0
10042e46:	46bd      	mov	sp, r7
10042e48:	b002      	add	sp, #8
10042e4a:	bd80      	pop	{r7, pc}
10042e4c:	44e10000 	.word	0x44e10000
10042e50:	2000004c 	.word	0x2000004c
10042e54:	40a00000 	.word	0x40a00000
10042e58:	20000050 	.word	0x20000050

10042e5c <Get_Strain>:

float Get_Strain(uint16_t v){
10042e5c:	b580      	push	{r7, lr}
10042e5e:	b082      	sub	sp, #8
10042e60:	af00      	add	r7, sp, #0
10042e62:	0002      	movs	r2, r0
10042e64:	1dbb      	adds	r3, r7, #6
10042e66:	801a      	strh	r2, [r3, #0]



	offset_voltageS = v - 1250.0f;
10042e68:	1dbb      	adds	r3, r7, #6
10042e6a:	881b      	ldrh	r3, [r3, #0]
10042e6c:	0018      	movs	r0, r3
10042e6e:	f7fe f89f 	bl	10040fb0 <__aeabi_i2f>
10042e72:	1c03      	adds	r3, r0, #0
10042e74:	4917      	ldr	r1, [pc, #92]	@ (10042ed4 <Get_Strain+0x78>)
10042e76:	1c18      	adds	r0, r3, #0
10042e78:	f7fd fe38 	bl	10040aec <__aeabi_fsub>
10042e7c:	1c03      	adds	r3, r0, #0
10042e7e:	1c1a      	adds	r2, r3, #0
10042e80:	4b15      	ldr	r3, [pc, #84]	@ (10042ed8 <Get_Strain+0x7c>)
10042e82:	601a      	str	r2, [r3, #0]

	strain_init = (4 * offset_voltageS) / (GAUGE_FACTOR * EXCITATION);
10042e84:	4b14      	ldr	r3, [pc, #80]	@ (10042ed8 <Get_Strain+0x7c>)
10042e86:	681b      	ldr	r3, [r3, #0]
10042e88:	2181      	movs	r1, #129	@ 0x81
10042e8a:	05c9      	lsls	r1, r1, #23
10042e8c:	1c18      	adds	r0, r3, #0
10042e8e:	f7fd fcdb 	bl	10040848 <__aeabi_fmul>
10042e92:	1c03      	adds	r3, r0, #0
10042e94:	1c18      	adds	r0, r3, #0
10042e96:	f7ff fb87 	bl	100425a8 <__aeabi_f2d>
10042e9a:	4a10      	ldr	r2, [pc, #64]	@ (10042edc <Get_Strain+0x80>)
10042e9c:	4b10      	ldr	r3, [pc, #64]	@ (10042ee0 <Get_Strain+0x84>)
10042e9e:	f7fe f8d7 	bl	10041050 <__aeabi_ddiv>
10042ea2:	0002      	movs	r2, r0
10042ea4:	000b      	movs	r3, r1
10042ea6:	0010      	movs	r0, r2
10042ea8:	0019      	movs	r1, r3
10042eaa:	f7ff fbc5 	bl	10042638 <__aeabi_d2f>
10042eae:	1c02      	adds	r2, r0, #0
10042eb0:	4b0c      	ldr	r3, [pc, #48]	@ (10042ee4 <Get_Strain+0x88>)
10042eb2:	601a      	str	r2, [r3, #0]

	strain_corrected = strain_init / IA_GAIN;
10042eb4:	4b0b      	ldr	r3, [pc, #44]	@ (10042ee4 <Get_Strain+0x88>)
10042eb6:	681b      	ldr	r3, [r3, #0]
10042eb8:	490b      	ldr	r1, [pc, #44]	@ (10042ee8 <Get_Strain+0x8c>)
10042eba:	1c18      	adds	r0, r3, #0
10042ebc:	f7fd fbae 	bl	1004061c <__aeabi_fdiv>
10042ec0:	1c03      	adds	r3, r0, #0
10042ec2:	1c1a      	adds	r2, r3, #0
10042ec4:	4b09      	ldr	r3, [pc, #36]	@ (10042eec <Get_Strain+0x90>)
10042ec6:	601a      	str	r2, [r3, #0]

	return strain_corrected;
10042ec8:	4b08      	ldr	r3, [pc, #32]	@ (10042eec <Get_Strain+0x90>)
10042eca:	681b      	ldr	r3, [r3, #0]

}
10042ecc:	1c18      	adds	r0, r3, #0
10042ece:	46bd      	mov	sp, r7
10042ed0:	b002      	add	sp, #8
10042ed2:	bd80      	pop	{r7, pc}
10042ed4:	449c4000 	.word	0x449c4000
10042ed8:	2000005c 	.word	0x2000005c
10042edc:	6872b020 	.word	0x6872b020
10042ee0:	401aed91 	.word	0x401aed91
10042ee4:	20000054 	.word	0x20000054
10042ee8:	41500000 	.word	0x41500000
10042eec:	20000058 	.word	0x20000058

10042ef0 <Sample_ADCs>:
//
//    HAL_ADC_Stop(&hadc1);
//
//}

void Sample_ADCs(void){
10042ef0:	b580      	push	{r7, lr}
10042ef2:	af00      	add	r7, sp, #0
    // 1. Start the ADC
    HAL_ADC_Start(&hadc1);
10042ef4:	4b14      	ldr	r3, [pc, #80]	@ (10042f48 <Sample_ADCs+0x58>)
10042ef6:	0018      	movs	r0, r3
10042ef8:	f001 fbac 	bl	10044654 <HAL_ADC_Start>

    // 2. Poll for the FIRST channel (Rank 1 - Strain Gauge)
    if (HAL_ADC_PollForConversion(&hadc1, 10) == HAL_OK) {
10042efc:	4b12      	ldr	r3, [pc, #72]	@ (10042f48 <Sample_ADCs+0x58>)
10042efe:	210a      	movs	r1, #10
10042f00:	0018      	movs	r0, r3
10042f02:	f001 fc23 	bl	1004474c <HAL_ADC_PollForConversion>
10042f06:	1e03      	subs	r3, r0, #0
10042f08:	d107      	bne.n	10042f1a <Sample_ADCs+0x2a>
        strain_gauge_adc = (uint32_t)HAL_ADC_GetValue(&hadc1);
10042f0a:	4b0f      	ldr	r3, [pc, #60]	@ (10042f48 <Sample_ADCs+0x58>)
10042f0c:	0018      	movs	r0, r3
10042f0e:	f001 fc6b 	bl	100447e8 <HAL_ADC_GetValue>
10042f12:	0003      	movs	r3, r0
10042f14:	b29a      	uxth	r2, r3
10042f16:	4b0d      	ldr	r3, [pc, #52]	@ (10042f4c <Sample_ADCs+0x5c>)
10042f18:	801a      	strh	r2, [r3, #0]
    }

    // 3. Poll for the SECOND channel (Rank 2 - Piezo)
    if (HAL_ADC_PollForConversion(&hadc1, 10) == HAL_OK) {
10042f1a:	4b0b      	ldr	r3, [pc, #44]	@ (10042f48 <Sample_ADCs+0x58>)
10042f1c:	210a      	movs	r1, #10
10042f1e:	0018      	movs	r0, r3
10042f20:	f001 fc14 	bl	1004474c <HAL_ADC_PollForConversion>
10042f24:	1e03      	subs	r3, r0, #0
10042f26:	d107      	bne.n	10042f38 <Sample_ADCs+0x48>
        uniaxial_adc = (uint32_t)HAL_ADC_GetValue(&hadc1);
10042f28:	4b07      	ldr	r3, [pc, #28]	@ (10042f48 <Sample_ADCs+0x58>)
10042f2a:	0018      	movs	r0, r3
10042f2c:	f001 fc5c 	bl	100447e8 <HAL_ADC_GetValue>
10042f30:	0003      	movs	r3, r0
10042f32:	b29a      	uxth	r2, r3
10042f34:	4b06      	ldr	r3, [pc, #24]	@ (10042f50 <Sample_ADCs+0x60>)
10042f36:	801a      	strh	r2, [r3, #0]
    }

    // 4. Stop
    HAL_ADC_Stop(&hadc1);
10042f38:	4b03      	ldr	r3, [pc, #12]	@ (10042f48 <Sample_ADCs+0x58>)
10042f3a:	0018      	movs	r0, r3
10042f3c:	f001 fbca 	bl	100446d4 <HAL_ADC_Stop>
}
10042f40:	46c0      	nop			@ (mov r8, r8)
10042f42:	46bd      	mov	sp, r7
10042f44:	bd80      	pop	{r7, pc}
10042f46:	46c0      	nop			@ (mov r8, r8)
10042f48:	20000060 	.word	0x20000060
10042f4c:	2000003a 	.word	0x2000003a
10042f50:	2000003e 	.word	0x2000003e

10042f54 <RS485_Write_Message>:
//        HAL_GPIO_WritePin(GPIOB, RS485_Driver_EN_Pin, GPIO_PIN_RESET);
//        HAL_GPIO_WritePin(GPIOB, RS485_Receiver_EN_Pin, GPIO_PIN_RESET);
//    }
//}

void RS485_Write_Message(RS485_Message *msg, UART_HandleTypeDef *huart) {
10042f54:	b590      	push	{r4, r7, lr}
10042f56:	b08b      	sub	sp, #44	@ 0x2c
10042f58:	af00      	add	r7, sp, #0
10042f5a:	6078      	str	r0, [r7, #4]
10042f5c:	6039      	str	r1, [r7, #0]
    uint8_t tx_buf[18]; // 1 start + 16 data + 1 checksum

    tx_buf[0] = msg->start_byte;
10042f5e:	687b      	ldr	r3, [r7, #4]
10042f60:	781a      	ldrb	r2, [r3, #0]
10042f62:	2308      	movs	r3, #8
10042f64:	18fb      	adds	r3, r7, r3
10042f66:	701a      	strb	r2, [r3, #0]
    for(int i = 0; i < 16; i++) {
10042f68:	2300      	movs	r3, #0
10042f6a:	627b      	str	r3, [r7, #36]	@ 0x24
10042f6c:	e00c      	b.n	10042f88 <RS485_Write_Message+0x34>
        tx_buf[i+1] = msg->data[i];
10042f6e:	6a7b      	ldr	r3, [r7, #36]	@ 0x24
10042f70:	3301      	adds	r3, #1
10042f72:	6879      	ldr	r1, [r7, #4]
10042f74:	6a7a      	ldr	r2, [r7, #36]	@ 0x24
10042f76:	188a      	adds	r2, r1, r2
10042f78:	3201      	adds	r2, #1
10042f7a:	7811      	ldrb	r1, [r2, #0]
10042f7c:	2208      	movs	r2, #8
10042f7e:	18ba      	adds	r2, r7, r2
10042f80:	54d1      	strb	r1, [r2, r3]
    for(int i = 0; i < 16; i++) {
10042f82:	6a7b      	ldr	r3, [r7, #36]	@ 0x24
10042f84:	3301      	adds	r3, #1
10042f86:	627b      	str	r3, [r7, #36]	@ 0x24
10042f88:	6a7b      	ldr	r3, [r7, #36]	@ 0x24
10042f8a:	2b0f      	cmp	r3, #15
10042f8c:	ddef      	ble.n	10042f6e <RS485_Write_Message+0x1a>
    }

    // Compute Checksum over Start + All Data
    uint8_t xor_sum = tx_buf[0];
10042f8e:	2323      	movs	r3, #35	@ 0x23
10042f90:	18fb      	adds	r3, r7, r3
10042f92:	2208      	movs	r2, #8
10042f94:	18ba      	adds	r2, r7, r2
10042f96:	7812      	ldrb	r2, [r2, #0]
10042f98:	701a      	strb	r2, [r3, #0]
    for(int i = 1; i < 17; i++) {
10042f9a:	2301      	movs	r3, #1
10042f9c:	61fb      	str	r3, [r7, #28]
10042f9e:	e00d      	b.n	10042fbc <RS485_Write_Message+0x68>
        xor_sum ^= tx_buf[i];
10042fa0:	2308      	movs	r3, #8
10042fa2:	18fa      	adds	r2, r7, r3
10042fa4:	69fb      	ldr	r3, [r7, #28]
10042fa6:	18d3      	adds	r3, r2, r3
10042fa8:	7819      	ldrb	r1, [r3, #0]
10042faa:	2223      	movs	r2, #35	@ 0x23
10042fac:	18bb      	adds	r3, r7, r2
10042fae:	18ba      	adds	r2, r7, r2
10042fb0:	7812      	ldrb	r2, [r2, #0]
10042fb2:	404a      	eors	r2, r1
10042fb4:	701a      	strb	r2, [r3, #0]
    for(int i = 1; i < 17; i++) {
10042fb6:	69fb      	ldr	r3, [r7, #28]
10042fb8:	3301      	adds	r3, #1
10042fba:	61fb      	str	r3, [r7, #28]
10042fbc:	69fb      	ldr	r3, [r7, #28]
10042fbe:	2b10      	cmp	r3, #16
10042fc0:	ddee      	ble.n	10042fa0 <RS485_Write_Message+0x4c>
    }
    tx_buf[17] = xor_sum;
10042fc2:	2408      	movs	r4, #8
10042fc4:	193b      	adds	r3, r7, r4
10042fc6:	2223      	movs	r2, #35	@ 0x23
10042fc8:	18ba      	adds	r2, r7, r2
10042fca:	7812      	ldrb	r2, [r2, #0]
10042fcc:	745a      	strb	r2, [r3, #17]

    HAL_GPIO_WritePin(GPIOB, RS485_Driver_EN_Pin, GPIO_PIN_SET);
10042fce:	2380      	movs	r3, #128	@ 0x80
10042fd0:	019b      	lsls	r3, r3, #6
10042fd2:	4816      	ldr	r0, [pc, #88]	@ (1004302c <RS485_Write_Message+0xd8>)
10042fd4:	2201      	movs	r2, #1
10042fd6:	0019      	movs	r1, r3
10042fd8:	f002 f807 	bl	10044fea <HAL_GPIO_WritePin>
    HAL_GPIO_WritePin(GPIOB, RS485_Receiver_EN_Pin, GPIO_PIN_SET);
10042fdc:	2380      	movs	r3, #128	@ 0x80
10042fde:	015b      	lsls	r3, r3, #5
10042fe0:	4812      	ldr	r0, [pc, #72]	@ (1004302c <RS485_Write_Message+0xd8>)
10042fe2:	2201      	movs	r2, #1
10042fe4:	0019      	movs	r1, r3
10042fe6:	f002 f800 	bl	10044fea <HAL_GPIO_WritePin>

    // Transmit all 18 bytes
    HAL_UART_Transmit(huart, tx_buf, 18, 20);
10042fea:	1939      	adds	r1, r7, r4
10042fec:	6838      	ldr	r0, [r7, #0]
10042fee:	2314      	movs	r3, #20
10042ff0:	2212      	movs	r2, #18
10042ff2:	f005 f985 	bl	10048300 <HAL_UART_Transmit>

    // CRITICAL: Ensure the last bit actually left the wire before switching back to RX
    while(__HAL_UART_GET_FLAG(huart, UART_FLAG_TC) == RESET);
10042ff6:	46c0      	nop			@ (mov r8, r8)
10042ff8:	683b      	ldr	r3, [r7, #0]
10042ffa:	681b      	ldr	r3, [r3, #0]
10042ffc:	69db      	ldr	r3, [r3, #28]
10042ffe:	2240      	movs	r2, #64	@ 0x40
10043000:	4013      	ands	r3, r2
10043002:	2b40      	cmp	r3, #64	@ 0x40
10043004:	d1f8      	bne.n	10042ff8 <RS485_Write_Message+0xa4>

    HAL_GPIO_WritePin(GPIOB, RS485_Driver_EN_Pin, GPIO_PIN_RESET);
10043006:	2380      	movs	r3, #128	@ 0x80
10043008:	019b      	lsls	r3, r3, #6
1004300a:	4808      	ldr	r0, [pc, #32]	@ (1004302c <RS485_Write_Message+0xd8>)
1004300c:	2200      	movs	r2, #0
1004300e:	0019      	movs	r1, r3
10043010:	f001 ffeb 	bl	10044fea <HAL_GPIO_WritePin>
    HAL_GPIO_WritePin(GPIOB, RS485_Receiver_EN_Pin, GPIO_PIN_RESET);
10043014:	2380      	movs	r3, #128	@ 0x80
10043016:	015b      	lsls	r3, r3, #5
10043018:	4804      	ldr	r0, [pc, #16]	@ (1004302c <RS485_Write_Message+0xd8>)
1004301a:	2200      	movs	r2, #0
1004301c:	0019      	movs	r1, r3
1004301e:	f001 ffe4 	bl	10044fea <HAL_GPIO_WritePin>
}
10043022:	46c0      	nop			@ (mov r8, r8)
10043024:	46bd      	mov	sp, r7
10043026:	b00b      	add	sp, #44	@ 0x2c
10043028:	bd90      	pop	{r4, r7, pc}
1004302a:	46c0      	nop			@ (mov r8, r8)
1004302c:	48100000 	.word	0x48100000

10043030 <Send_Combined_Message>:

//     // Send it using UART1 handle
//     RS485_Write_Message(&rs_msg, &huart1);
// }

void Send_Combined_Message(void) {
10043030:	b580      	push	{r7, lr}
10043032:	b086      	sub	sp, #24
10043034:	af00      	add	r7, sp, #0
    RS485_Message rs_msg;

    rs_msg.start_byte = 0xD0; // New unique ID for the "Combined" message
10043036:	003b      	movs	r3, r7
10043038:	22d0      	movs	r2, #208	@ 0xd0
1004303a:	701a      	strb	r2, [r3, #0]

    triaxial_x_g = (ADXL372_GetG(triaxial_x_raw) * 100.0f);
1004303c:	4b65      	ldr	r3, [pc, #404]	@ (100431d4 <Send_Combined_Message+0x1a4>)
1004303e:	2200      	movs	r2, #0
10043040:	5e9b      	ldrsh	r3, [r3, r2]
10043042:	0018      	movs	r0, r3
10043044:	f7ff fe98 	bl	10042d78 <ADXL372_GetG>
10043048:	1c03      	adds	r3, r0, #0
1004304a:	4963      	ldr	r1, [pc, #396]	@ (100431d8 <Send_Combined_Message+0x1a8>)
1004304c:	1c18      	adds	r0, r3, #0
1004304e:	f7fd fbfb 	bl	10040848 <__aeabi_fmul>
10043052:	1c03      	adds	r3, r0, #0
10043054:	1c18      	adds	r0, r3, #0
10043056:	f7fd ff8b 	bl	10040f70 <__aeabi_f2iz>
1004305a:	0003      	movs	r3, r0
1004305c:	b21a      	sxth	r2, r3
1004305e:	4b5f      	ldr	r3, [pc, #380]	@ (100431dc <Send_Combined_Message+0x1ac>)
10043060:	801a      	strh	r2, [r3, #0]
    triaxial_y_g = (ADXL372_GetG(triaxial_y_raw) * 100.0f);
10043062:	4b5f      	ldr	r3, [pc, #380]	@ (100431e0 <Send_Combined_Message+0x1b0>)
10043064:	2200      	movs	r2, #0
10043066:	5e9b      	ldrsh	r3, [r3, r2]
10043068:	0018      	movs	r0, r3
1004306a:	f7ff fe85 	bl	10042d78 <ADXL372_GetG>
1004306e:	1c03      	adds	r3, r0, #0
10043070:	4959      	ldr	r1, [pc, #356]	@ (100431d8 <Send_Combined_Message+0x1a8>)
10043072:	1c18      	adds	r0, r3, #0
10043074:	f7fd fbe8 	bl	10040848 <__aeabi_fmul>
10043078:	1c03      	adds	r3, r0, #0
1004307a:	1c18      	adds	r0, r3, #0
1004307c:	f7fd ff78 	bl	10040f70 <__aeabi_f2iz>
10043080:	0003      	movs	r3, r0
10043082:	b21a      	sxth	r2, r3
10043084:	4b57      	ldr	r3, [pc, #348]	@ (100431e4 <Send_Combined_Message+0x1b4>)
10043086:	801a      	strh	r2, [r3, #0]
    triaxial_z_g = (ADXL372_GetG(triaxial_z_raw) * 100.0f);
10043088:	4b57      	ldr	r3, [pc, #348]	@ (100431e8 <Send_Combined_Message+0x1b8>)
1004308a:	2200      	movs	r2, #0
1004308c:	5e9b      	ldrsh	r3, [r3, r2]
1004308e:	0018      	movs	r0, r3
10043090:	f7ff fe72 	bl	10042d78 <ADXL372_GetG>
10043094:	1c03      	adds	r3, r0, #0
10043096:	4950      	ldr	r1, [pc, #320]	@ (100431d8 <Send_Combined_Message+0x1a8>)
10043098:	1c18      	adds	r0, r3, #0
1004309a:	f7fd fbd5 	bl	10040848 <__aeabi_fmul>
1004309e:	1c03      	adds	r3, r0, #0
100430a0:	1c18      	adds	r0, r3, #0
100430a2:	f7fd ff65 	bl	10040f70 <__aeabi_f2iz>
100430a6:	0003      	movs	r3, r0
100430a8:	b21a      	sxth	r2, r3
100430aa:	4b50      	ldr	r3, [pc, #320]	@ (100431ec <Send_Combined_Message+0x1bc>)
100430ac:	801a      	strh	r2, [r3, #0]

    // 1. Pack Triaxial Data (6 bytes)
    rs_msg.data[0] = (uint8_t)(triaxial_x_g);
100430ae:	4b4b      	ldr	r3, [pc, #300]	@ (100431dc <Send_Combined_Message+0x1ac>)
100430b0:	2200      	movs	r2, #0
100430b2:	5e9b      	ldrsh	r3, [r3, r2]
100430b4:	b2da      	uxtb	r2, r3
100430b6:	003b      	movs	r3, r7
100430b8:	705a      	strb	r2, [r3, #1]
    rs_msg.data[1] = (uint8_t)(triaxial_x_g >> 8);
100430ba:	4b48      	ldr	r3, [pc, #288]	@ (100431dc <Send_Combined_Message+0x1ac>)
100430bc:	2200      	movs	r2, #0
100430be:	5e9b      	ldrsh	r3, [r3, r2]
100430c0:	121b      	asrs	r3, r3, #8
100430c2:	b21b      	sxth	r3, r3
100430c4:	b2da      	uxtb	r2, r3
100430c6:	003b      	movs	r3, r7
100430c8:	709a      	strb	r2, [r3, #2]
    rs_msg.data[2] = (uint8_t)(triaxial_y_g);
100430ca:	4b46      	ldr	r3, [pc, #280]	@ (100431e4 <Send_Combined_Message+0x1b4>)
100430cc:	2200      	movs	r2, #0
100430ce:	5e9b      	ldrsh	r3, [r3, r2]
100430d0:	b2da      	uxtb	r2, r3
100430d2:	003b      	movs	r3, r7
100430d4:	70da      	strb	r2, [r3, #3]
    rs_msg.data[3] = (uint8_t)(triaxial_y_g >> 8);
100430d6:	4b43      	ldr	r3, [pc, #268]	@ (100431e4 <Send_Combined_Message+0x1b4>)
100430d8:	2200      	movs	r2, #0
100430da:	5e9b      	ldrsh	r3, [r3, r2]
100430dc:	121b      	asrs	r3, r3, #8
100430de:	b21b      	sxth	r3, r3
100430e0:	b2da      	uxtb	r2, r3
100430e2:	003b      	movs	r3, r7
100430e4:	711a      	strb	r2, [r3, #4]
    rs_msg.data[4] = (uint8_t)(triaxial_z_g);
100430e6:	4b41      	ldr	r3, [pc, #260]	@ (100431ec <Send_Combined_Message+0x1bc>)
100430e8:	2200      	movs	r2, #0
100430ea:	5e9b      	ldrsh	r3, [r3, r2]
100430ec:	b2da      	uxtb	r2, r3
100430ee:	003b      	movs	r3, r7
100430f0:	715a      	strb	r2, [r3, #5]
    rs_msg.data[5] = (uint8_t)(triaxial_z_g >> 8);
100430f2:	4b3e      	ldr	r3, [pc, #248]	@ (100431ec <Send_Combined_Message+0x1bc>)
100430f4:	2200      	movs	r2, #0
100430f6:	5e9b      	ldrsh	r3, [r3, r2]
100430f8:	121b      	asrs	r3, r3, #8
100430fa:	b21b      	sxth	r3, r3
100430fc:	b2da      	uxtb	r2, r3
100430fe:	003b      	movs	r3, r7
10043100:	719a      	strb	r2, [r3, #6]

    // 2. Pack Strain Gauge (2 bytes)
    strain = (Get_Strain(ADC_to_Voltage(strain_gauge_adc)) * 100);
10043102:	4b3b      	ldr	r3, [pc, #236]	@ (100431f0 <Send_Combined_Message+0x1c0>)
10043104:	881b      	ldrh	r3, [r3, #0]
10043106:	0018      	movs	r0, r3
10043108:	f7ff fe4e 	bl	10042da8 <ADC_to_Voltage>
1004310c:	0003      	movs	r3, r0
1004310e:	0018      	movs	r0, r3
10043110:	f7ff fea4 	bl	10042e5c <Get_Strain>
10043114:	1c03      	adds	r3, r0, #0
10043116:	4930      	ldr	r1, [pc, #192]	@ (100431d8 <Send_Combined_Message+0x1a8>)
10043118:	1c18      	adds	r0, r3, #0
1004311a:	f7fd fb95 	bl	10040848 <__aeabi_fmul>
1004311e:	1c03      	adds	r3, r0, #0
10043120:	1c18      	adds	r0, r3, #0
10043122:	f7fd ff25 	bl	10040f70 <__aeabi_f2iz>
10043126:	0003      	movs	r3, r0
10043128:	b21a      	sxth	r2, r3
1004312a:	4b32      	ldr	r3, [pc, #200]	@ (100431f4 <Send_Combined_Message+0x1c4>)
1004312c:	801a      	strh	r2, [r3, #0]
    rs_msg.data[6] = (uint8_t)(strain);
1004312e:	4b31      	ldr	r3, [pc, #196]	@ (100431f4 <Send_Combined_Message+0x1c4>)
10043130:	2200      	movs	r2, #0
10043132:	5e9b      	ldrsh	r3, [r3, r2]
10043134:	b2da      	uxtb	r2, r3
10043136:	003b      	movs	r3, r7
10043138:	71da      	strb	r2, [r3, #7]
    rs_msg.data[7] = (uint8_t)(strain >> 8);
1004313a:	4b2e      	ldr	r3, [pc, #184]	@ (100431f4 <Send_Combined_Message+0x1c4>)
1004313c:	2200      	movs	r2, #0
1004313e:	5e9b      	ldrsh	r3, [r3, r2]
10043140:	121b      	asrs	r3, r3, #8
10043142:	b21b      	sxth	r3, r3
10043144:	b2da      	uxtb	r2, r3
10043146:	003b      	movs	r3, r7
10043148:	721a      	strb	r2, [r3, #8]

    // 3. Pack Uniaxial G-Force (4 bytes)
//    uniaxial_g = (int32_t)(Get_G_Force(ADC_to_Voltage(uniaxial_adc)) * 1000.0f);
    uniaxial_g = (Get_G_Force(ADC_to_Voltage(uniaxial_adc)) * 1000.0f);
1004314a:	4b2b      	ldr	r3, [pc, #172]	@ (100431f8 <Send_Combined_Message+0x1c8>)
1004314c:	881b      	ldrh	r3, [r3, #0]
1004314e:	0018      	movs	r0, r3
10043150:	f7ff fe2a 	bl	10042da8 <ADC_to_Voltage>
10043154:	0003      	movs	r3, r0
10043156:	0018      	movs	r0, r3
10043158:	f7ff fe54 	bl	10042e04 <Get_G_Force>
1004315c:	1c03      	adds	r3, r0, #0
1004315e:	4927      	ldr	r1, [pc, #156]	@ (100431fc <Send_Combined_Message+0x1cc>)
10043160:	1c18      	adds	r0, r3, #0
10043162:	f7fd fb71 	bl	10040848 <__aeabi_fmul>
10043166:	1c03      	adds	r3, r0, #0
10043168:	1c18      	adds	r0, r3, #0
1004316a:	f7fd ff01 	bl	10040f70 <__aeabi_f2iz>
1004316e:	0002      	movs	r2, r0
10043170:	4b23      	ldr	r3, [pc, #140]	@ (10043200 <Send_Combined_Message+0x1d0>)
10043172:	601a      	str	r2, [r3, #0]
    rs_msg.data[8] = (uint8_t)(uniaxial_g);
10043174:	4b22      	ldr	r3, [pc, #136]	@ (10043200 <Send_Combined_Message+0x1d0>)
10043176:	681b      	ldr	r3, [r3, #0]
10043178:	b2da      	uxtb	r2, r3
1004317a:	003b      	movs	r3, r7
1004317c:	725a      	strb	r2, [r3, #9]
    rs_msg.data[9] = (uint8_t)(uniaxial_g >> 8);
1004317e:	4b20      	ldr	r3, [pc, #128]	@ (10043200 <Send_Combined_Message+0x1d0>)
10043180:	681b      	ldr	r3, [r3, #0]
10043182:	121b      	asrs	r3, r3, #8
10043184:	b2da      	uxtb	r2, r3
10043186:	003b      	movs	r3, r7
10043188:	729a      	strb	r2, [r3, #10]
    rs_msg.data[10] = (uint8_t)(uniaxial_g >> 16);
1004318a:	4b1d      	ldr	r3, [pc, #116]	@ (10043200 <Send_Combined_Message+0x1d0>)
1004318c:	681b      	ldr	r3, [r3, #0]
1004318e:	141b      	asrs	r3, r3, #16
10043190:	b2da      	uxtb	r2, r3
10043192:	003b      	movs	r3, r7
10043194:	72da      	strb	r2, [r3, #11]
    rs_msg.data[11] = (uint8_t)(uniaxial_g >> 24);
10043196:	4b1a      	ldr	r3, [pc, #104]	@ (10043200 <Send_Combined_Message+0x1d0>)
10043198:	681b      	ldr	r3, [r3, #0]
1004319a:	161b      	asrs	r3, r3, #24
1004319c:	b2da      	uxtb	r2, r3
1004319e:	003b      	movs	r3, r7
100431a0:	731a      	strb	r2, [r3, #12]

    // 4. Bytes 12-15 are spare/padding for now
    for(int i=12; i<16; i++) rs_msg.data[i] = 0;
100431a2:	230c      	movs	r3, #12
100431a4:	617b      	str	r3, [r7, #20]
100431a6:	e008      	b.n	100431ba <Send_Combined_Message+0x18a>
100431a8:	003a      	movs	r2, r7
100431aa:	697b      	ldr	r3, [r7, #20]
100431ac:	18d3      	adds	r3, r2, r3
100431ae:	3301      	adds	r3, #1
100431b0:	2200      	movs	r2, #0
100431b2:	701a      	strb	r2, [r3, #0]
100431b4:	697b      	ldr	r3, [r7, #20]
100431b6:	3301      	adds	r3, #1
100431b8:	617b      	str	r3, [r7, #20]
100431ba:	697b      	ldr	r3, [r7, #20]
100431bc:	2b0f      	cmp	r3, #15
100431be:	ddf3      	ble.n	100431a8 <Send_Combined_Message+0x178>

    // Send it using UART1 handle
    RS485_Write_Message(&rs_msg, &huart1);
100431c0:	4a10      	ldr	r2, [pc, #64]	@ (10043204 <Send_Combined_Message+0x1d4>)
100431c2:	003b      	movs	r3, r7
100431c4:	0011      	movs	r1, r2
100431c6:	0018      	movs	r0, r3
100431c8:	f7ff fec4 	bl	10042f54 <RS485_Write_Message>
}
100431cc:	46c0      	nop			@ (mov r8, r8)
100431ce:	46bd      	mov	sp, r7
100431d0:	b006      	add	sp, #24
100431d2:	bd80      	pop	{r7, pc}
100431d4:	20000034 	.word	0x20000034
100431d8:	42c80000 	.word	0x42c80000
100431dc:	20000044 	.word	0x20000044
100431e0:	20000036 	.word	0x20000036
100431e4:	20000046 	.word	0x20000046
100431e8:	20000038 	.word	0x20000038
100431ec:	20000048 	.word	0x20000048
100431f0:	2000003a 	.word	0x2000003a
100431f4:	2000003c 	.word	0x2000003c
100431f8:	2000003e 	.word	0x2000003e
100431fc:	447a0000 	.word	0x447a0000
10043200:	20000040 	.word	0x20000040
10043204:	20000118 	.word	0x20000118

10043208 <RS485_Send>:

    // Send it using UART1 handle
    RS485_Write_Message(&rs_msg, &huart1);
}

void RS485_Send(void){
10043208:	b580      	push	{r7, lr}
1004320a:	af00      	add	r7, sp, #0
//	if (Timer_HasElapsed(&RS485TimerC0)) {
//		Send_Message_C0();
//	}

	static EasyTimer_t RS485TimerA0 = {.start_time = 0, .interval = 21};
	if (Timer_HasElapsed(&RS485TimerA0)) {
1004320c:	4b05      	ldr	r3, [pc, #20]	@ (10043224 <RS485_Send+0x1c>)
1004320e:	0018      	movs	r0, r3
10043210:	f7ff fc3c 	bl	10042a8c <Timer_HasElapsed>
10043214:	1e03      	subs	r3, r0, #0
10043216:	d001      	beq.n	1004321c <RS485_Send+0x14>
		Send_Combined_Message();
10043218:	f7ff ff0a 	bl	10043030 <Send_Combined_Message>
	}

}
1004321c:	46c0      	nop			@ (mov r8, r8)
1004321e:	46bd      	mov	sp, r7
10043220:	bd80      	pop	{r7, pc}
10043222:	46c0      	nop			@ (mov r8, r8)
10043224:	200001f8 	.word	0x200001f8

10043228 <main>:
/**
  * @brief  The application entry point.
  * @retval int
  */
int main(void)
{
10043228:	b580      	push	{r7, lr}
1004322a:	af00      	add	r7, sp, #0
  /* USER CODE END 1 */

  /* MCU Configuration--------------------------------------------------------*/

  /* Reset of all peripherals, Initializes the Flash interface and the Systick. */
  HAL_Init();
1004322c:	f000 fe61 	bl	10043ef2 <HAL_Init>
  /* USER CODE BEGIN Init */

  /* USER CODE END Init */

  /* Configure the system clock */
  SystemClock_Config();
10043230:	f000 f822 	bl	10043278 <SystemClock_Config>

  /* Configure the peripherals common clocks */
  PeriphCommonClock_Config();
10043234:	f000 f853 	bl	100432de <PeriphCommonClock_Config>
  /* USER CODE BEGIN SysInit */

  /* USER CODE END SysInit */

  /* Initialize all configured peripherals */
  MX_GPIO_Init();
10043238:	f000 fa18 	bl	1004366c <MX_GPIO_Init>
  MX_SPI3_Init();
1004323c:	f000 f97a 	bl	10043534 <MX_SPI3_Init>
  MX_ADC1_Init();
10043240:	f000 f9b0 	bl	100435a4 <MX_ADC1_Init>
  MX_USART1_UART_Init();
10043244:	f000 f8d8 	bl	100433f8 <MX_USART1_UART_Init>
  MX_MRSUBG_Init();
10043248:	f000 f930 	bl	100434ac <MX_MRSUBG_Init>
  MX_TIM2_Init();
1004324c:	f000 f866 	bl	1004331c <MX_TIM2_Init>

//  watchpoint_th = ADXL372_Init(ACC_SPI_CS_Pin);

//  ADXL372_WriteReg(0x00, 0x01, ACC_SPI_CS_Pin); // write something to address 0

  ADXL372_Init(ACC_SPI_CS_Pin);
10043250:	2001      	movs	r0, #1
10043252:	f7ff fca7 	bl	10042ba4 <ADXL372_Init>


  while (1)
  {
    /* USER CODE END WHILE */
	loop_count++; // Increment the counter
10043256:	4b07      	ldr	r3, [pc, #28]	@ (10043274 <main+0x4c>)
10043258:	681b      	ldr	r3, [r3, #0]
1004325a:	1c5a      	adds	r2, r3, #1
1004325c:	4b05      	ldr	r3, [pc, #20]	@ (10043274 <main+0x4c>)
1004325e:	601a      	str	r2, [r3, #0]

	Sample_ADXL372(ACC_SPI_CS_Pin);
10043260:	2001      	movs	r0, #1
10043262:	f7ff fcd5 	bl	10042c10 <Sample_ADXL372>
////
//	watchpoint6 = Get_G_Force(watchpoint2_5);
//	watchpoint7 = adc_buffer[1];

	// sample ADCs here
	Sample_ADCs();
10043266:	f7ff fe43 	bl	10042ef0 <Sample_ADCs>


	RS485_Send();
1004326a:	f7ff ffcd 	bl	10043208 <RS485_Send>
	loop_count++; // Increment the counter
1004326e:	46c0      	nop			@ (mov r8, r8)
10043270:	e7f1      	b.n	10043256 <main+0x2e>
10043272:	46c0      	nop			@ (mov r8, r8)
10043274:	200001f0 	.word	0x200001f0

10043278 <SystemClock_Config>:
/**
  * @brief System Clock Configuration
  * @retval None
  */
void SystemClock_Config(void)
{
10043278:	b590      	push	{r4, r7, lr}
1004327a:	b089      	sub	sp, #36	@ 0x24
1004327c:	af00      	add	r7, sp, #0
  RCC_OscInitTypeDef RCC_OscInitStruct = {0};
1004327e:	2408      	movs	r4, #8
10043280:	193b      	adds	r3, r7, r4
10043282:	0018      	movs	r0, r3
10043284:	2318      	movs	r3, #24
10043286:	001a      	movs	r2, r3
10043288:	2100      	movs	r1, #0
1004328a:	f006 f95d 	bl	10049548 <memset>
  RCC_ClkInitTypeDef RCC_ClkInitStruct = {0};
1004328e:	003b      	movs	r3, r7
10043290:	0018      	movs	r0, r3
10043292:	2308      	movs	r3, #8
10043294:	001a      	movs	r2, r3
10043296:	2100      	movs	r1, #0
10043298:	f006 f956 	bl	10049548 <memset>

  /** Initializes the RCC Oscillators according to the specified parameters
  * in the RCC_OscInitTypeDef structure.
  */
  RCC_OscInitStruct.OscillatorType = RCC_OSCILLATORTYPE_LSI|RCC_OSCILLATORTYPE_HSI;
1004329c:	193b      	adds	r3, r7, r4
1004329e:	2214      	movs	r2, #20
100432a0:	601a      	str	r2, [r3, #0]
  RCC_OscInitStruct.LSIState = RCC_LSI_ON;
100432a2:	193b      	adds	r3, r7, r4
100432a4:	2204      	movs	r2, #4
100432a6:	611a      	str	r2, [r3, #16]
  if (HAL_RCC_OscConfig(&RCC_OscInitStruct) != HAL_OK)
100432a8:	193b      	adds	r3, r7, r4
100432aa:	0018      	movs	r0, r3
100432ac:	f003 fb12 	bl	100468d4 <HAL_RCC_OscConfig>
100432b0:	1e03      	subs	r3, r0, #0
100432b2:	d001      	beq.n	100432b8 <SystemClock_Config+0x40>
  {
    Error_Handler();
100432b4:	f000 fa6e 	bl	10043794 <Error_Handler>
  }

  /** Configure the SYSCLKSource and SYSCLKDivider
  */
  RCC_ClkInitStruct.SYSCLKSource = RCC_SYSCLKSOURCE_HSI;
100432b8:	003b      	movs	r3, r7
100432ba:	2202      	movs	r2, #2
100432bc:	601a      	str	r2, [r3, #0]
  RCC_ClkInitStruct.SYSCLKDivider = RCC_RC64MPLL_DIV1;
100432be:	003b      	movs	r3, r7
100432c0:	2200      	movs	r2, #0
100432c2:	605a      	str	r2, [r3, #4]

  if (HAL_RCC_ClockConfig(&RCC_ClkInitStruct, FLASH_WAIT_STATES_1) != HAL_OK)
100432c4:	003b      	movs	r3, r7
100432c6:	2110      	movs	r1, #16
100432c8:	0018      	movs	r0, r3
100432ca:	f003 fc59 	bl	10046b80 <HAL_RCC_ClockConfig>
100432ce:	1e03      	subs	r3, r0, #0
100432d0:	d001      	beq.n	100432d6 <SystemClock_Config+0x5e>
  {
    Error_Handler();
100432d2:	f000 fa5f 	bl	10043794 <Error_Handler>
  }
}
100432d6:	46c0      	nop			@ (mov r8, r8)
100432d8:	46bd      	mov	sp, r7
100432da:	b009      	add	sp, #36	@ 0x24
100432dc:	bd90      	pop	{r4, r7, pc}

100432de <PeriphCommonClock_Config>:
/**
  * @brief Peripherals Common Clock Configuration
  * @retval None
  */
void PeriphCommonClock_Config(void)
{
100432de:	b580      	push	{r7, lr}
100432e0:	b086      	sub	sp, #24
100432e2:	af00      	add	r7, sp, #0
  RCC_PeriphCLKInitTypeDef PeriphClkInitStruct = {0};
100432e4:	003b      	movs	r3, r7
100432e6:	0018      	movs	r0, r3
100432e8:	2318      	movs	r3, #24
100432ea:	001a      	movs	r2, r3
100432ec:	2100      	movs	r1, #0
100432ee:	f006 f92b 	bl	10049548 <memset>

  /** Initializes the peripherals clock
  */
  PeriphClkInitStruct.PeriphClockSelection = RCC_PERIPHCLK_SMPS;
100432f2:	003b      	movs	r3, r7
100432f4:	2202      	movs	r2, #2
100432f6:	601a      	str	r2, [r3, #0]
  PeriphClkInitStruct.SmpsDivSelection = RCC_SMPSCLK_DIV2;
100432f8:	003b      	movs	r3, r7
100432fa:	2200      	movs	r2, #0
100432fc:	611a      	str	r2, [r3, #16]
  PeriphClkInitStruct.KRMRateMultiplier = 2;
100432fe:	003b      	movs	r3, r7
10043300:	2202      	movs	r2, #2
10043302:	615a      	str	r2, [r3, #20]

  if (HAL_RCCEx_PeriphCLKConfig(&PeriphClkInitStruct) != HAL_OK)
10043304:	003b      	movs	r3, r7
10043306:	0018      	movs	r0, r3
10043308:	f003 fda4 	bl	10046e54 <HAL_RCCEx_PeriphCLKConfig>
1004330c:	1e03      	subs	r3, r0, #0
1004330e:	d001      	beq.n	10043314 <PeriphCommonClock_Config+0x36>
  {
    Error_Handler();
10043310:	f000 fa40 	bl	10043794 <Error_Handler>
  }
}
10043314:	46c0      	nop			@ (mov r8, r8)
10043316:	46bd      	mov	sp, r7
10043318:	b006      	add	sp, #24
1004331a:	bd80      	pop	{r7, pc}

1004331c <MX_TIM2_Init>:
  * @brief TIM2 Initialization Function
  * @param None
  * @retval None
  */
static void MX_TIM2_Init(void)
{
1004331c:	b580      	push	{r7, lr}
1004331e:	b08c      	sub	sp, #48	@ 0x30
10043320:	af00      	add	r7, sp, #0

  /* USER CODE BEGIN TIM2_Init 0 */

  /* USER CODE END TIM2_Init 0 */

  TIM_ClockConfigTypeDef sClockSourceConfig = {0};
10043322:	2320      	movs	r3, #32
10043324:	18fb      	adds	r3, r7, r3
10043326:	0018      	movs	r0, r3
10043328:	2310      	movs	r3, #16
1004332a:	001a      	movs	r2, r3
1004332c:	2100      	movs	r1, #0
1004332e:	f006 f90b 	bl	10049548 <memset>
  TIM_SlaveConfigTypeDef sSlaveConfig = {0};
10043332:	230c      	movs	r3, #12
10043334:	18fb      	adds	r3, r7, r3
10043336:	0018      	movs	r0, r3
10043338:	2314      	movs	r3, #20
1004333a:	001a      	movs	r2, r3
1004333c:	2100      	movs	r1, #0
1004333e:	f006 f903 	bl	10049548 <memset>
  TIM_MasterConfigTypeDef sMasterConfig = {0};
10043342:	1d3b      	adds	r3, r7, #4
10043344:	0018      	movs	r0, r3
10043346:	2308      	movs	r3, #8
10043348:	001a      	movs	r2, r3
1004334a:	2100      	movs	r1, #0
1004334c:	f006 f8fc 	bl	10049548 <memset>

  /* USER CODE BEGIN TIM2_Init 1 */

  /* USER CODE END TIM2_Init 1 */
  htim2.Instance = TIM2;
10043350:	4b27      	ldr	r3, [pc, #156]	@ (100433f0 <MX_TIM2_Init+0xd4>)
10043352:	4a28      	ldr	r2, [pc, #160]	@ (100433f4 <MX_TIM2_Init+0xd8>)
10043354:	601a      	str	r2, [r3, #0]
  htim2.Init.Prescaler = 0;
10043356:	4b26      	ldr	r3, [pc, #152]	@ (100433f0 <MX_TIM2_Init+0xd4>)
10043358:	2200      	movs	r2, #0
1004335a:	605a      	str	r2, [r3, #4]
  htim2.Init.CounterMode = TIM_COUNTERMODE_UP;
1004335c:	4b24      	ldr	r3, [pc, #144]	@ (100433f0 <MX_TIM2_Init+0xd4>)
1004335e:	2200      	movs	r2, #0
10043360:	609a      	str	r2, [r3, #8]
  htim2.Init.Period = 4294967295;
10043362:	4b23      	ldr	r3, [pc, #140]	@ (100433f0 <MX_TIM2_Init+0xd4>)
10043364:	2201      	movs	r2, #1
10043366:	4252      	negs	r2, r2
10043368:	60da      	str	r2, [r3, #12]
  htim2.Init.ClockDivision = TIM_CLOCKDIVISION_DIV1;
1004336a:	4b21      	ldr	r3, [pc, #132]	@ (100433f0 <MX_TIM2_Init+0xd4>)
1004336c:	2200      	movs	r2, #0
1004336e:	611a      	str	r2, [r3, #16]
  htim2.Init.AutoReloadPreload = TIM_AUTORELOAD_PRELOAD_DISABLE;
10043370:	4b1f      	ldr	r3, [pc, #124]	@ (100433f0 <MX_TIM2_Init+0xd4>)
10043372:	2200      	movs	r2, #0
10043374:	619a      	str	r2, [r3, #24]
  if (HAL_TIM_Base_Init(&htim2) != HAL_OK)
10043376:	4b1e      	ldr	r3, [pc, #120]	@ (100433f0 <MX_TIM2_Init+0xd4>)
10043378:	0018      	movs	r0, r3
1004337a:	f004 fc35 	bl	10047be8 <HAL_TIM_Base_Init>
1004337e:	1e03      	subs	r3, r0, #0
10043380:	d001      	beq.n	10043386 <MX_TIM2_Init+0x6a>
  {
    Error_Handler();
10043382:	f000 fa07 	bl	10043794 <Error_Handler>
  }
  sClockSourceConfig.ClockSource = TIM_CLOCKSOURCE_INTERNAL;
10043386:	2120      	movs	r1, #32
10043388:	187b      	adds	r3, r7, r1
1004338a:	2280      	movs	r2, #128	@ 0x80
1004338c:	0152      	lsls	r2, r2, #5
1004338e:	601a      	str	r2, [r3, #0]
  if (HAL_TIM_ConfigClockSource(&htim2, &sClockSourceConfig) != HAL_OK)
10043390:	187a      	adds	r2, r7, r1
10043392:	4b17      	ldr	r3, [pc, #92]	@ (100433f0 <MX_TIM2_Init+0xd4>)
10043394:	0011      	movs	r1, r2
10043396:	0018      	movs	r0, r3
10043398:	f004 fc72 	bl	10047c80 <HAL_TIM_ConfigClockSource>
1004339c:	1e03      	subs	r3, r0, #0
1004339e:	d001      	beq.n	100433a4 <MX_TIM2_Init+0x88>
  {
    Error_Handler();
100433a0:	f000 f9f8 	bl	10043794 <Error_Handler>
  }
  sSlaveConfig.SlaveMode = TIM_SLAVEMODE_RESET;
100433a4:	210c      	movs	r1, #12
100433a6:	187b      	adds	r3, r7, r1
100433a8:	2204      	movs	r2, #4
100433aa:	601a      	str	r2, [r3, #0]
  sSlaveConfig.InputTrigger = TIM_TS_ITR0;
100433ac:	187b      	adds	r3, r7, r1
100433ae:	2200      	movs	r2, #0
100433b0:	605a      	str	r2, [r3, #4]
  if (HAL_TIM_SlaveConfigSynchro(&htim2, &sSlaveConfig) != HAL_OK)
100433b2:	187a      	adds	r2, r7, r1
100433b4:	4b0e      	ldr	r3, [pc, #56]	@ (100433f0 <MX_TIM2_Init+0xd4>)
100433b6:	0011      	movs	r1, r2
100433b8:	0018      	movs	r0, r3
100433ba:	f004 fd2b 	bl	10047e14 <HAL_TIM_SlaveConfigSynchro>
100433be:	1e03      	subs	r3, r0, #0
100433c0:	d001      	beq.n	100433c6 <MX_TIM2_Init+0xaa>
  {
    Error_Handler();
100433c2:	f000 f9e7 	bl	10043794 <Error_Handler>
  }
  sMasterConfig.MasterOutputTrigger = TIM_TRGO_RESET;
100433c6:	1d3b      	adds	r3, r7, #4
100433c8:	2200      	movs	r2, #0
100433ca:	601a      	str	r2, [r3, #0]
  sMasterConfig.MasterSlaveMode = TIM_MASTERSLAVEMODE_DISABLE;
100433cc:	1d3b      	adds	r3, r7, #4
100433ce:	2200      	movs	r2, #0
100433d0:	605a      	str	r2, [r3, #4]
  if (HAL_TIMEx_MasterConfigSynchronization(&htim2, &sMasterConfig) != HAL_OK)
100433d2:	1d3a      	adds	r2, r7, #4
100433d4:	4b06      	ldr	r3, [pc, #24]	@ (100433f0 <MX_TIM2_Init+0xd4>)
100433d6:	0011      	movs	r1, r2
100433d8:	0018      	movs	r0, r3
100433da:	f004 fee9 	bl	100481b0 <HAL_TIMEx_MasterConfigSynchronization>
100433de:	1e03      	subs	r3, r0, #0
100433e0:	d001      	beq.n	100433e6 <MX_TIM2_Init+0xca>
  {
    Error_Handler();
100433e2:	f000 f9d7 	bl	10043794 <Error_Handler>
  }
  /* USER CODE BEGIN TIM2_Init 2 */

  /* USER CODE END TIM2_Init 2 */

}
100433e6:	46c0      	nop			@ (mov r8, r8)
100433e8:	46bd      	mov	sp, r7
100433ea:	b00c      	add	sp, #48	@ 0x30
100433ec:	bd80      	pop	{r7, pc}
100433ee:	46c0      	nop			@ (mov r8, r8)
100433f0:	200001ac 	.word	0x200001ac
100433f4:	40002000 	.word	0x40002000

100433f8 <MX_USART1_UART_Init>:
  * @brief USART1 Initialization Function
  * @param None
  * @retval None
  */
static void MX_USART1_UART_Init(void)
{
100433f8:	b580      	push	{r7, lr}
100433fa:	af00      	add	r7, sp, #0
  /* USER CODE END USART1_Init 0 */

  /* USER CODE BEGIN USART1_Init 1 */

  /* USER CODE END USART1_Init 1 */
  huart1.Instance = USART1;
100433fc:	4b23      	ldr	r3, [pc, #140]	@ (1004348c <MX_USART1_UART_Init+0x94>)
100433fe:	4a24      	ldr	r2, [pc, #144]	@ (10043490 <MX_USART1_UART_Init+0x98>)
10043400:	601a      	str	r2, [r3, #0]
//  huart1.Init.BaudRate = 115200;
  huart1.Init.BaudRate = 9600;
10043402:	4b22      	ldr	r3, [pc, #136]	@ (1004348c <MX_USART1_UART_Init+0x94>)
10043404:	2296      	movs	r2, #150	@ 0x96
10043406:	0192      	lsls	r2, r2, #6
10043408:	605a      	str	r2, [r3, #4]
  huart1.Init.WordLength = UART_WORDLENGTH_8B;
1004340a:	4b20      	ldr	r3, [pc, #128]	@ (1004348c <MX_USART1_UART_Init+0x94>)
1004340c:	2200      	movs	r2, #0
1004340e:	609a      	str	r2, [r3, #8]
  huart1.Init.StopBits = UART_STOPBITS_1;
10043410:	4b1e      	ldr	r3, [pc, #120]	@ (1004348c <MX_USART1_UART_Init+0x94>)
10043412:	2200      	movs	r2, #0
10043414:	60da      	str	r2, [r3, #12]
  huart1.Init.Parity = UART_PARITY_NONE;
10043416:	4b1d      	ldr	r3, [pc, #116]	@ (1004348c <MX_USART1_UART_Init+0x94>)
10043418:	2200      	movs	r2, #0
1004341a:	611a      	str	r2, [r3, #16]
  huart1.Init.Mode = UART_MODE_TX;
1004341c:	4b1b      	ldr	r3, [pc, #108]	@ (1004348c <MX_USART1_UART_Init+0x94>)
1004341e:	2208      	movs	r2, #8
10043420:	615a      	str	r2, [r3, #20]
  huart1.Init.HwFlowCtl = UART_HWCONTROL_NONE;
10043422:	4b1a      	ldr	r3, [pc, #104]	@ (1004348c <MX_USART1_UART_Init+0x94>)
10043424:	2200      	movs	r2, #0
10043426:	619a      	str	r2, [r3, #24]
  huart1.Init.OverSampling = UART_OVERSAMPLING_16;
10043428:	4b18      	ldr	r3, [pc, #96]	@ (1004348c <MX_USART1_UART_Init+0x94>)
1004342a:	2200      	movs	r2, #0
1004342c:	61da      	str	r2, [r3, #28]
  huart1.Init.OneBitSampling = UART_ONE_BIT_SAMPLE_DISABLE;
1004342e:	4b17      	ldr	r3, [pc, #92]	@ (1004348c <MX_USART1_UART_Init+0x94>)
10043430:	2200      	movs	r2, #0
10043432:	621a      	str	r2, [r3, #32]
  huart1.Init.ClockPrescaler = UART_PRESCALER_DIV1;
10043434:	4b15      	ldr	r3, [pc, #84]	@ (1004348c <MX_USART1_UART_Init+0x94>)
10043436:	2200      	movs	r2, #0
10043438:	625a      	str	r2, [r3, #36]	@ 0x24
  huart1.AdvancedInit.AdvFeatureInit = UART_ADVFEATURE_NO_INIT;
1004343a:	4b14      	ldr	r3, [pc, #80]	@ (1004348c <MX_USART1_UART_Init+0x94>)
1004343c:	2200      	movs	r2, #0
1004343e:	629a      	str	r2, [r3, #40]	@ 0x28
  if (HAL_UART_Init(&huart1) != HAL_OK)
10043440:	4b12      	ldr	r3, [pc, #72]	@ (1004348c <MX_USART1_UART_Init+0x94>)
10043442:	0018      	movs	r0, r3
10043444:	f004 ff06 	bl	10048254 <HAL_UART_Init>
10043448:	1e03      	subs	r3, r0, #0
1004344a:	d001      	beq.n	10043450 <MX_USART1_UART_Init+0x58>
  {
    Error_Handler();
1004344c:	f000 f9a2 	bl	10043794 <Error_Handler>
  }
  if (HAL_UARTEx_SetTxFifoThreshold(&huart1, UART_TXFIFO_THRESHOLD_1_8) != HAL_OK)
10043450:	4b0e      	ldr	r3, [pc, #56]	@ (1004348c <MX_USART1_UART_Init+0x94>)
10043452:	2100      	movs	r1, #0
10043454:	0018      	movs	r0, r3
10043456:	f005 ff8d 	bl	10049374 <HAL_UARTEx_SetTxFifoThreshold>
1004345a:	1e03      	subs	r3, r0, #0
1004345c:	d001      	beq.n	10043462 <MX_USART1_UART_Init+0x6a>
  {
    Error_Handler();
1004345e:	f000 f999 	bl	10043794 <Error_Handler>
  }
  if (HAL_UARTEx_SetRxFifoThreshold(&huart1, UART_RXFIFO_THRESHOLD_1_8) != HAL_OK)
10043462:	4b0a      	ldr	r3, [pc, #40]	@ (1004348c <MX_USART1_UART_Init+0x94>)
10043464:	2100      	movs	r1, #0
10043466:	0018      	movs	r0, r3
10043468:	f005 ffc4 	bl	100493f4 <HAL_UARTEx_SetRxFifoThreshold>
1004346c:	1e03      	subs	r3, r0, #0
1004346e:	d001      	beq.n	10043474 <MX_USART1_UART_Init+0x7c>
  {
    Error_Handler();
10043470:	f000 f990 	bl	10043794 <Error_Handler>
  }
  if (HAL_UARTEx_DisableFifoMode(&huart1) != HAL_OK)
10043474:	4b05      	ldr	r3, [pc, #20]	@ (1004348c <MX_USART1_UART_Init+0x94>)
10043476:	0018      	movs	r0, r3
10043478:	f005 ff42 	bl	10049300 <HAL_UARTEx_DisableFifoMode>
1004347c:	1e03      	subs	r3, r0, #0
1004347e:	d001      	beq.n	10043484 <MX_USART1_UART_Init+0x8c>
  {
    Error_Handler();
10043480:	f000 f988 	bl	10043794 <Error_Handler>
  }
  /* USER CODE BEGIN USART1_Init 2 */

  /* USER CODE END USART1_Init 2 */

}
10043484:	46c0      	nop			@ (mov r8, r8)
10043486:	46bd      	mov	sp, r7
10043488:	bd80      	pop	{r7, pc}
1004348a:	46c0      	nop			@ (mov r8, r8)
1004348c:	20000118 	.word	0x20000118
10043490:	41004000 	.word	0x41004000

10043494 <USART1_IRQHandler>:

void USART1_IRQHandler(void)
{
10043494:	b580      	push	{r7, lr}
10043496:	af00      	add	r7, sp, #0
  HAL_UART_IRQHandler(&huart1);
10043498:	4b03      	ldr	r3, [pc, #12]	@ (100434a8 <USART1_IRQHandler+0x14>)
1004349a:	0018      	movs	r0, r3
1004349c:	f004 ffde 	bl	1004845c <HAL_UART_IRQHandler>
}
100434a0:	46c0      	nop			@ (mov r8, r8)
100434a2:	46bd      	mov	sp, r7
100434a4:	bd80      	pop	{r7, pc}
100434a6:	46c0      	nop			@ (mov r8, r8)
100434a8:	20000118 	.word	0x20000118

100434ac <MX_MRSUBG_Init>:
  * @brief MRSUBG Initialization Function
  * @param None
  * @retval None
  */
static void MX_MRSUBG_Init(void)
{
100434ac:	b580      	push	{r7, lr}
100434ae:	af00      	add	r7, sp, #0

  /* USER CODE END MRSUBG_Init 1 */

  /** Configures the radio parameters
  */
  MRSUBG_RadioInitStruct.lFrequencyBase = 915000000;
100434b0:	4b1a      	ldr	r3, [pc, #104]	@ (1004351c <MX_MRSUBG_Init+0x70>)
100434b2:	4a1b      	ldr	r2, [pc, #108]	@ (10043520 <MX_MRSUBG_Init+0x74>)
100434b4:	601a      	str	r2, [r3, #0]
  MRSUBG_RadioInitStruct.xModulationSelect = MOD_2FSK;
100434b6:	4b19      	ldr	r3, [pc, #100]	@ (1004351c <MX_MRSUBG_Init+0x70>)
100434b8:	2200      	movs	r2, #0
100434ba:	711a      	strb	r2, [r3, #4]
  MRSUBG_RadioInitStruct.lDatarate = 100000;
100434bc:	4b17      	ldr	r3, [pc, #92]	@ (1004351c <MX_MRSUBG_Init+0x70>)
100434be:	4a19      	ldr	r2, [pc, #100]	@ (10043524 <MX_MRSUBG_Init+0x78>)
100434c0:	609a      	str	r2, [r3, #8]
  MRSUBG_RadioInitStruct.lFreqDev = 50000;
100434c2:	4b16      	ldr	r3, [pc, #88]	@ (1004351c <MX_MRSUBG_Init+0x70>)
100434c4:	4a18      	ldr	r2, [pc, #96]	@ (10043528 <MX_MRSUBG_Init+0x7c>)
100434c6:	60da      	str	r2, [r3, #12]
  MRSUBG_RadioInitStruct.lBandwidth = 200000;
100434c8:	4b14      	ldr	r3, [pc, #80]	@ (1004351c <MX_MRSUBG_Init+0x70>)
100434ca:	4a18      	ldr	r2, [pc, #96]	@ (1004352c <MX_MRSUBG_Init+0x80>)
100434cc:	611a      	str	r2, [r3, #16]
  MRSUBG_RadioInitStruct.dsssExp = 0;
100434ce:	4b13      	ldr	r3, [pc, #76]	@ (1004351c <MX_MRSUBG_Init+0x70>)
100434d0:	2200      	movs	r2, #0
100434d2:	751a      	strb	r2, [r3, #20]
  MRSUBG_RadioInitStruct.outputPower = 0x0E;
100434d4:	4b11      	ldr	r3, [pc, #68]	@ (1004351c <MX_MRSUBG_Init+0x70>)
100434d6:	220e      	movs	r2, #14
100434d8:	755a      	strb	r2, [r3, #21]
  MRSUBG_RadioInitStruct.PADrvMode = PA_DRV_TX;
100434da:	4b10      	ldr	r3, [pc, #64]	@ (1004351c <MX_MRSUBG_Init+0x70>)
100434dc:	2201      	movs	r2, #1
100434de:	759a      	strb	r2, [r3, #22]
  HAL_MRSubG_Init(&MRSUBG_RadioInitStruct);
100434e0:	4b0e      	ldr	r3, [pc, #56]	@ (1004351c <MX_MRSUBG_Init+0x70>)
100434e2:	0018      	movs	r0, r3
100434e4:	f002 fb3c 	bl	10045b60 <HAL_MRSubG_Init>

  /** Configures the packet parameters
  */
  MRSUBG_PacketSettingsStruct.Modulation = MOD_2FSK;
100434e8:	4b11      	ldr	r3, [pc, #68]	@ (10043530 <MX_MRSUBG_Init+0x84>)
100434ea:	2200      	movs	r2, #0
100434ec:	701a      	strb	r2, [r3, #0]
  MRSUBG_PacketSettingsStruct.PreambleLength = 8;
100434ee:	4b10      	ldr	r3, [pc, #64]	@ (10043530 <MX_MRSUBG_Init+0x84>)
100434f0:	2208      	movs	r2, #8
100434f2:	705a      	strb	r2, [r3, #1]
  MRSUBG_PacketSettingsStruct.FCSType = PKT_CRC_MODE_16BITS_1;
100434f4:	4b0e      	ldr	r3, [pc, #56]	@ (10043530 <MX_MRSUBG_Init+0x84>)
100434f6:	2202      	movs	r2, #2
100434f8:	709a      	strb	r2, [r3, #2]
  MRSUBG_PacketSettingsStruct.Whitening = ENABLE;
100434fa:	4b0d      	ldr	r3, [pc, #52]	@ (10043530 <MX_MRSUBG_Init+0x84>)
100434fc:	2201      	movs	r2, #1
100434fe:	70da      	strb	r2, [r3, #3]
  MRSUBG_PacketSettingsStruct.FecType = FEC_15_4_G_NONE;
10043500:	4b0b      	ldr	r3, [pc, #44]	@ (10043530 <MX_MRSUBG_Init+0x84>)
10043502:	2200      	movs	r2, #0
10043504:	711a      	strb	r2, [r3, #4]
  MRSUBG_PacketSettingsStruct.FrameLength = 4;
10043506:	4b0a      	ldr	r3, [pc, #40]	@ (10043530 <MX_MRSUBG_Init+0x84>)
10043508:	2204      	movs	r2, #4
1004350a:	80da      	strh	r2, [r3, #6]
  HAL_MRSubG_802_15_4_PacketInit(&MRSUBG_PacketSettingsStruct);
1004350c:	4b08      	ldr	r3, [pc, #32]	@ (10043530 <MX_MRSUBG_Init+0x84>)
1004350e:	0018      	movs	r0, r3
10043510:	f002 fe36 	bl	10046180 <HAL_MRSubG_802_15_4_PacketInit>
  /* USER CODE BEGIN MRSUBG_Init 2 */

  /* USER CODE END MRSUBG_Init 2 */

}
10043514:	46c0      	nop			@ (mov r8, r8)
10043516:	46bd      	mov	sp, r7
10043518:	bd80      	pop	{r7, pc}
1004351a:	46c0      	nop			@ (mov r8, r8)
1004351c:	200000f8 	.word	0x200000f8
10043520:	3689cac0 	.word	0x3689cac0
10043524:	000186a0 	.word	0x000186a0
10043528:	0000c350 	.word	0x0000c350
1004352c:	00030d40 	.word	0x00030d40
10043530:	20000110 	.word	0x20000110

10043534 <MX_SPI3_Init>:
  * @brief SPI3 Initialization Function
  * @param None
  * @retval None
  */
static void MX_SPI3_Init(void)
{
10043534:	b580      	push	{r7, lr}
10043536:	af00      	add	r7, sp, #0

  /* USER CODE BEGIN SPI3_Init 1 */

  /* USER CODE END SPI3_Init 1 */
  /* SPI3 parameter configuration*/
  hspi3.Instance = SPI3;
10043538:	4b18      	ldr	r3, [pc, #96]	@ (1004359c <MX_SPI3_Init+0x68>)
1004353a:	4a19      	ldr	r2, [pc, #100]	@ (100435a0 <MX_SPI3_Init+0x6c>)
1004353c:	601a      	str	r2, [r3, #0]
  hspi3.Init.Mode = SPI_MODE_MASTER;
1004353e:	4b17      	ldr	r3, [pc, #92]	@ (1004359c <MX_SPI3_Init+0x68>)
10043540:	2282      	movs	r2, #130	@ 0x82
10043542:	0052      	lsls	r2, r2, #1
10043544:	605a      	str	r2, [r3, #4]
  hspi3.Init.Direction = SPI_DIRECTION_2LINES;
10043546:	4b15      	ldr	r3, [pc, #84]	@ (1004359c <MX_SPI3_Init+0x68>)
10043548:	2200      	movs	r2, #0
1004354a:	609a      	str	r2, [r3, #8]
  hspi3.Init.DataSize = SPI_DATASIZE_8BIT;
1004354c:	4b13      	ldr	r3, [pc, #76]	@ (1004359c <MX_SPI3_Init+0x68>)
1004354e:	22e0      	movs	r2, #224	@ 0xe0
10043550:	00d2      	lsls	r2, r2, #3
10043552:	60da      	str	r2, [r3, #12]
  hspi3.Init.CLKPolarity = SPI_POLARITY_LOW;
10043554:	4b11      	ldr	r3, [pc, #68]	@ (1004359c <MX_SPI3_Init+0x68>)
10043556:	2200      	movs	r2, #0
10043558:	611a      	str	r2, [r3, #16]
  hspi3.Init.CLKPhase = SPI_PHASE_1EDGE;
1004355a:	4b10      	ldr	r3, [pc, #64]	@ (1004359c <MX_SPI3_Init+0x68>)
1004355c:	2200      	movs	r2, #0
1004355e:	615a      	str	r2, [r3, #20]
  hspi3.Init.NSS = SPI_NSS_SOFT;
10043560:	4b0e      	ldr	r3, [pc, #56]	@ (1004359c <MX_SPI3_Init+0x68>)
10043562:	2280      	movs	r2, #128	@ 0x80
10043564:	0092      	lsls	r2, r2, #2
10043566:	619a      	str	r2, [r3, #24]
  hspi3.Init.BaudRatePrescaler = SPI_BAUDRATEPRESCALER_256; // changed the prescale to slow things down a ton
10043568:	4b0c      	ldr	r3, [pc, #48]	@ (1004359c <MX_SPI3_Init+0x68>)
1004356a:	2238      	movs	r2, #56	@ 0x38
1004356c:	61da      	str	r2, [r3, #28]
  hspi3.Init.FirstBit = SPI_FIRSTBIT_MSB;
1004356e:	4b0b      	ldr	r3, [pc, #44]	@ (1004359c <MX_SPI3_Init+0x68>)
10043570:	2200      	movs	r2, #0
10043572:	621a      	str	r2, [r3, #32]
  hspi3.Init.TIMode = SPI_TIMODE_DISABLE;
10043574:	4b09      	ldr	r3, [pc, #36]	@ (1004359c <MX_SPI3_Init+0x68>)
10043576:	2200      	movs	r2, #0
10043578:	625a      	str	r2, [r3, #36]	@ 0x24
  hspi3.Init.CRCCalculation = SPI_CRCCALCULATION_DISABLE;
1004357a:	4b08      	ldr	r3, [pc, #32]	@ (1004359c <MX_SPI3_Init+0x68>)
1004357c:	2200      	movs	r2, #0
1004357e:	629a      	str	r2, [r3, #40]	@ 0x28
//   hspi3.Init.CRCPolynomial = 7;
//   hspi3.Init.CRCLength = SPI_CRC_LENGTH_DATASIZE;
//   hspi3.Init.NSSPMode = SPI_NSS_PULSE_ENABLE;
  hspi3.Init.NSSPMode = SPI_NSS_PULSE_DISABLE;
10043580:	4b06      	ldr	r3, [pc, #24]	@ (1004359c <MX_SPI3_Init+0x68>)
10043582:	2200      	movs	r2, #0
10043584:	635a      	str	r2, [r3, #52]	@ 0x34
  if (HAL_SPI_Init(&hspi3) != HAL_OK)
10043586:	4b05      	ldr	r3, [pc, #20]	@ (1004359c <MX_SPI3_Init+0x68>)
10043588:	0018      	movs	r0, r3
1004358a:	f003 fd3d 	bl	10047008 <HAL_SPI_Init>
1004358e:	1e03      	subs	r3, r0, #0
10043590:	d001      	beq.n	10043596 <MX_SPI3_Init+0x62>
  {
    Error_Handler();
10043592:	f000 f8ff 	bl	10043794 <Error_Handler>
  }
  /* USER CODE BEGIN SPI3_Init 2 */

  /* USER CODE END SPI3_Init 2 */

}
10043596:	46c0      	nop			@ (mov r8, r8)
10043598:	46bd      	mov	sp, r7
1004359a:	bd80      	pop	{r7, pc}
1004359c:	20000094 	.word	0x20000094
100435a0:	41007000 	.word	0x41007000

100435a4 <MX_ADC1_Init>:
  * @brief ADC1 Initialization Function
  * @param None
  * @retval None
  */
static void MX_ADC1_Init(void)
{
100435a4:	b580      	push	{r7, lr}
100435a6:	b086      	sub	sp, #24
100435a8:	af00      	add	r7, sp, #0

  /* USER CODE BEGIN ADC1_Init 0 */

  /* USER CODE END ADC1_Init 0 */

  ADC_ChannelConfTypeDef ConfigChannel = {0};
100435aa:	003b      	movs	r3, r7
100435ac:	0018      	movs	r0, r3
100435ae:	2318      	movs	r3, #24
100435b0:	001a      	movs	r2, r3
100435b2:	2100      	movs	r1, #0
100435b4:	f005 ffc8 	bl	10049548 <memset>

  /* USER CODE END ADC1_Init 1 */

  /** Common config
  */
  hadc1.Instance = ADC1;
100435b8:	4b29      	ldr	r3, [pc, #164]	@ (10043660 <MX_ADC1_Init+0xbc>)
100435ba:	4a2a      	ldr	r2, [pc, #168]	@ (10043664 <MX_ADC1_Init+0xc0>)
100435bc:	601a      	str	r2, [r3, #0]
  hadc1.Init.SequenceLength = 2; // 2 channels
100435be:	4b28      	ldr	r3, [pc, #160]	@ (10043660 <MX_ADC1_Init+0xbc>)
100435c0:	2202      	movs	r2, #2
100435c2:	609a      	str	r2, [r3, #8]
  hadc1.Init.SamplingMode = ADC_SAMPLING_AT_START;
100435c4:	4b26      	ldr	r3, [pc, #152]	@ (10043660 <MX_ADC1_Init+0xbc>)
100435c6:	2200      	movs	r2, #0
100435c8:	60da      	str	r2, [r3, #12]
  hadc1.Init.SampleRate = ADC_SAMPLE_RATE_140;
100435ca:	4b25      	ldr	r3, [pc, #148]	@ (10043660 <MX_ADC1_Init+0xbc>)
100435cc:	4a26      	ldr	r2, [pc, #152]	@ (10043668 <MX_ADC1_Init+0xc4>)
100435ce:	611a      	str	r2, [r3, #16]
  hadc1.Init.InvertOutputMode = ADC_DATA_INVERT_NONE;
100435d0:	4b23      	ldr	r3, [pc, #140]	@ (10043660 <MX_ADC1_Init+0xbc>)
100435d2:	2200      	movs	r2, #0
100435d4:	61da      	str	r2, [r3, #28]
  hadc1.Init.Overrun = ADC_NEW_DATA_IS_LOST;
100435d6:	4b22      	ldr	r3, [pc, #136]	@ (10043660 <MX_ADC1_Init+0xbc>)
100435d8:	2200      	movs	r2, #0
100435da:	621a      	str	r2, [r3, #32]
  hadc1.Init.ContinuousConvMode = DISABLE;
100435dc:	4b20      	ldr	r3, [pc, #128]	@ (10043660 <MX_ADC1_Init+0xbc>)
100435de:	2200      	movs	r2, #0
100435e0:	711a      	strb	r2, [r3, #4]
  hadc1.Init.DownSamplerConfig.DataWidth = ADC_DS_DATA_WIDTH_12_BIT;
100435e2:	4b1f      	ldr	r3, [pc, #124]	@ (10043660 <MX_ADC1_Init+0xbc>)
100435e4:	2200      	movs	r2, #0
100435e6:	615a      	str	r2, [r3, #20]
  hadc1.Init.DownSamplerConfig.DataRatio = ADC_DS_RATIO_1;
100435e8:	4b1d      	ldr	r3, [pc, #116]	@ (10043660 <MX_ADC1_Init+0xbc>)
100435ea:	2200      	movs	r2, #0
100435ec:	619a      	str	r2, [r3, #24]
  if (HAL_ADC_Init(&hadc1) != HAL_OK)
100435ee:	4b1c      	ldr	r3, [pc, #112]	@ (10043660 <MX_ADC1_Init+0xbc>)
100435f0:	0018      	movs	r0, r3
100435f2:	f000 ff71 	bl	100444d8 <HAL_ADC_Init>
100435f6:	1e03      	subs	r3, r0, #0
100435f8:	d001      	beq.n	100435fe <MX_ADC1_Init+0x5a>
  {
    Error_Handler();
100435fa:	f000 f8cb 	bl	10043794 <Error_Handler>
  }

  /** Configure Regular Channel
  */
  ConfigChannel.Channel = ADC_CHANNEL_VINM1; // IA 1 - Pin 30 (PB0)
100435fe:	003b      	movs	r3, r7
10043600:	2201      	movs	r2, #1
10043602:	601a      	str	r2, [r3, #0]
  ConfigChannel.Rank = ADC_RANK_1;
10043604:	003b      	movs	r3, r7
10043606:	2200      	movs	r2, #0
10043608:	605a      	str	r2, [r3, #4]
  ConfigChannel.VoltRange = ADC_VIN_RANGE_3V6; // STM only sees 3.3V, 3.6Vref is unreachable
1004360a:	003b      	movs	r3, r7
1004360c:	2203      	movs	r2, #3
1004360e:	609a      	str	r2, [r3, #8]
  ConfigChannel.CalibrationPoint.Number = ADC_CALIB_NONE;
10043610:	003b      	movs	r3, r7
10043612:	2203      	movs	r2, #3
10043614:	60da      	str	r2, [r3, #12]
//  ConfigChannel.CalibrationPoint.Gain = 0x00;
//  ConfigChannel.CalibrationPoint.Offset = 0x00;
  // change sampling time
  // change sampling channel
  
  if (HAL_ADC_ConfigChannel(&hadc1, &ConfigChannel) != HAL_OK)
10043616:	003a      	movs	r2, r7
10043618:	4b11      	ldr	r3, [pc, #68]	@ (10043660 <MX_ADC1_Init+0xbc>)
1004361a:	0011      	movs	r1, r2
1004361c:	0018      	movs	r0, r3
1004361e:	f001 f8f1 	bl	10044804 <HAL_ADC_ConfigChannel>
10043622:	1e03      	subs	r3, r0, #0
10043624:	d001      	beq.n	1004362a <MX_ADC1_Init+0x86>
  {
    Error_Handler();
10043626:	f000 f8b5 	bl	10043794 <Error_Handler>
  }
  
  ConfigChannel.Channel = ADC_CHANNEL_VINP1; // IA 2 - Pin 31 (PB1)
1004362a:	003b      	movs	r3, r7
1004362c:	2205      	movs	r2, #5
1004362e:	601a      	str	r2, [r3, #0]
  ConfigChannel.Rank = ADC_RANK_2; // the second ADC channel
10043630:	003b      	movs	r3, r7
10043632:	2204      	movs	r2, #4
10043634:	605a      	str	r2, [r3, #4]
  ConfigChannel.VoltRange = ADC_VIN_RANGE_3V6; // STM only sees 3.3V, 3.6Vref is unreachable
10043636:	003b      	movs	r3, r7
10043638:	2203      	movs	r2, #3
1004363a:	609a      	str	r2, [r3, #8]
  ConfigChannel.CalibrationPoint.Number = ADC_CALIB_NONE;
1004363c:	003b      	movs	r3, r7
1004363e:	2203      	movs	r2, #3
10043640:	60da      	str	r2, [r3, #12]
//  ConfigChannel.CalibrationPoint.Number = ADC_CALIB_NONE;
//  ConfigChannel.CalibrationPoint.Gain = 0x00;
//  ConfigChannel.CalibrationPoint.Offset = 0x00;


  if (HAL_ADC_ConfigChannel(&hadc1, &ConfigChannel) != HAL_OK)
10043642:	003a      	movs	r2, r7
10043644:	4b06      	ldr	r3, [pc, #24]	@ (10043660 <MX_ADC1_Init+0xbc>)
10043646:	0011      	movs	r1, r2
10043648:	0018      	movs	r0, r3
1004364a:	f001 f8db 	bl	10044804 <HAL_ADC_ConfigChannel>
1004364e:	1e03      	subs	r3, r0, #0
10043650:	d001      	beq.n	10043656 <MX_ADC1_Init+0xb2>
  {
    Error_Handler();
10043652:	f000 f89f 	bl	10043794 <Error_Handler>
  }

}
10043656:	46c0      	nop			@ (mov r8, r8)
10043658:	46bd      	mov	sp, r7
1004365a:	b006      	add	sp, #24
1004365c:	bd80      	pop	{r7, pc}
1004365e:	46c0      	nop			@ (mov r8, r8)
10043660:	20000060 	.word	0x20000060
10043664:	41006000 	.word	0x41006000
10043668:	00e01800 	.word	0x00e01800

1004366c <MX_GPIO_Init>:
  * @brief GPIO Initialization Function
  * @param None
  * @retval None
  */
static void MX_GPIO_Init(void)
{
1004366c:	b580      	push	{r7, lr}
1004366e:	b086      	sub	sp, #24
10043670:	af00      	add	r7, sp, #0
  GPIO_InitTypeDef GPIO_InitStruct = {0};
10043672:	1d3b      	adds	r3, r7, #4
10043674:	0018      	movs	r0, r3
10043676:	2314      	movs	r3, #20
10043678:	001a      	movs	r2, r3
1004367a:	2100      	movs	r1, #0
1004367c:	f005 ff64 	bl	10049548 <memset>
  /* USER CODE BEGIN MX_GPIO_Init_1 */

  /* USER CODE END MX_GPIO_Init_1 */

  /* GPIO Ports Clock Enable */
  __HAL_RCC_GPIOA_CLK_ENABLE();
10043680:	2004      	movs	r0, #4
10043682:	f7ff f9ed 	bl	10042a60 <LL_AHB1_GRP1_EnableClock>
  __HAL_RCC_GPIOB_CLK_ENABLE();
10043686:	2008      	movs	r0, #8
10043688:	f7ff f9ea 	bl	10042a60 <LL_AHB1_GRP1_EnableClock>

  /*Configure GPIO pin Output Level */
  HAL_GPIO_WritePin(GPIOA, CAN1_SPI_CS_Pin|CAN2_SPI_CS_Pin|CAN1_nINT_Pin, GPIO_PIN_RESET);
1004368c:	493e      	ldr	r1, [pc, #248]	@ (10043788 <MX_GPIO_Init+0x11c>)
1004368e:	2390      	movs	r3, #144	@ 0x90
10043690:	05db      	lsls	r3, r3, #23
10043692:	2200      	movs	r2, #0
10043694:	0018      	movs	r0, r3
10043696:	f001 fca8 	bl	10044fea <HAL_GPIO_WritePin>

  /*Configure GPIO pin Output Level */
  HAL_GPIO_WritePin(GPIOB, RS485_Receiver_EN_Pin|RS485_Driver_EN_Pin|CAN2_nINT_Pin, GPIO_PIN_RESET);
1004369a:	23c2      	movs	r3, #194	@ 0xc2
1004369c:	019b      	lsls	r3, r3, #6
1004369e:	483b      	ldr	r0, [pc, #236]	@ (1004378c <MX_GPIO_Init+0x120>)
100436a0:	2200      	movs	r2, #0
100436a2:	0019      	movs	r1, r3
100436a4:	f001 fca1 	bl	10044fea <HAL_GPIO_WritePin>

  /*Configure GPIO pin : PA2 */
  GPIO_InitStruct.Pin = GPIO_PIN_2;
100436a8:	1d3b      	adds	r3, r7, #4
100436aa:	2204      	movs	r2, #4
100436ac:	601a      	str	r2, [r3, #0]
  GPIO_InitStruct.Mode = GPIO_MODE_AF_PP;
100436ae:	1d3b      	adds	r3, r7, #4
100436b0:	2202      	movs	r2, #2
100436b2:	605a      	str	r2, [r3, #4]
  GPIO_InitStruct.Pull = GPIO_PULLUP;
100436b4:	1d3b      	adds	r3, r7, #4
100436b6:	2201      	movs	r2, #1
100436b8:	609a      	str	r2, [r3, #8]
  GPIO_InitStruct.Speed = GPIO_SPEED_FREQ_LOW;
100436ba:	1d3b      	adds	r3, r7, #4
100436bc:	2200      	movs	r2, #0
100436be:	60da      	str	r2, [r3, #12]
  GPIO_InitStruct.Alternate = GPIO_AF0_SWDIO;
100436c0:	1d3b      	adds	r3, r7, #4
100436c2:	2200      	movs	r2, #0
100436c4:	611a      	str	r2, [r3, #16]
  HAL_GPIO_Init(GPIOA, &GPIO_InitStruct);
100436c6:	1d3a      	adds	r2, r7, #4
100436c8:	2390      	movs	r3, #144	@ 0x90
100436ca:	05db      	lsls	r3, r3, #23
100436cc:	0011      	movs	r1, r2
100436ce:	0018      	movs	r0, r3
100436d0:	f001 fad6 	bl	10044c80 <HAL_GPIO_Init>

  /*Configure GPIO pin : PA3 */
  GPIO_InitStruct.Pin = GPIO_PIN_3;
100436d4:	1d3b      	adds	r3, r7, #4
100436d6:	2208      	movs	r2, #8
100436d8:	601a      	str	r2, [r3, #0]
  GPIO_InitStruct.Mode = GPIO_MODE_AF_PP;
100436da:	1d3b      	adds	r3, r7, #4
100436dc:	2202      	movs	r2, #2
100436de:	605a      	str	r2, [r3, #4]
  GPIO_InitStruct.Pull = GPIO_PULLDOWN;
100436e0:	1d3b      	adds	r3, r7, #4
100436e2:	2202      	movs	r2, #2
100436e4:	609a      	str	r2, [r3, #8]
  GPIO_InitStruct.Speed = GPIO_SPEED_FREQ_VERY_HIGH;
100436e6:	1d3b      	adds	r3, r7, #4
100436e8:	2203      	movs	r2, #3
100436ea:	60da      	str	r2, [r3, #12]
  GPIO_InitStruct.Alternate = GPIO_AF0_SWCLK;
100436ec:	1d3b      	adds	r3, r7, #4
100436ee:	2200      	movs	r2, #0
100436f0:	611a      	str	r2, [r3, #16]
  HAL_GPIO_Init(GPIOA, &GPIO_InitStruct);
100436f2:	1d3a      	adds	r2, r7, #4
100436f4:	2390      	movs	r3, #144	@ 0x90
100436f6:	05db      	lsls	r3, r3, #23
100436f8:	0011      	movs	r1, r2
100436fa:	0018      	movs	r0, r3
100436fc:	f001 fac0 	bl	10044c80 <HAL_GPIO_Init>

  /*Configure GPIO pins : CAN1_SPI_CS_Pin CAN2_SPI_CS_Pin CAN1_nINT_Pin */
  GPIO_InitStruct.Pin = CAN1_SPI_CS_Pin|CAN2_SPI_CS_Pin|CAN1_nINT_Pin;
10043700:	1d3b      	adds	r3, r7, #4
10043702:	4a21      	ldr	r2, [pc, #132]	@ (10043788 <MX_GPIO_Init+0x11c>)
10043704:	601a      	str	r2, [r3, #0]
  GPIO_InitStruct.Mode = GPIO_MODE_OUTPUT_PP;
10043706:	1d3b      	adds	r3, r7, #4
10043708:	2201      	movs	r2, #1
1004370a:	605a      	str	r2, [r3, #4]
  GPIO_InitStruct.Pull = GPIO_NOPULL;
1004370c:	1d3b      	adds	r3, r7, #4
1004370e:	2200      	movs	r2, #0
10043710:	609a      	str	r2, [r3, #8]
  GPIO_InitStruct.Speed = GPIO_SPEED_FREQ_LOW;
10043712:	1d3b      	adds	r3, r7, #4
10043714:	2200      	movs	r2, #0
10043716:	60da      	str	r2, [r3, #12]
  HAL_GPIO_Init(GPIOA, &GPIO_InitStruct);
10043718:	1d3a      	adds	r2, r7, #4
1004371a:	2390      	movs	r3, #144	@ 0x90
1004371c:	05db      	lsls	r3, r3, #23
1004371e:	0011      	movs	r1, r2
10043720:	0018      	movs	r0, r3
10043722:	f001 faad 	bl	10044c80 <HAL_GPIO_Init>

  /*Configure GPIO pins : RS485_Receiver_EN_Pin RS485_Driver_EN_Pin CAN2_nINT_Pin */
  GPIO_InitStruct.Pin = RS485_Receiver_EN_Pin|RS485_Driver_EN_Pin|CAN2_nINT_Pin;
10043726:	1d3b      	adds	r3, r7, #4
10043728:	22c2      	movs	r2, #194	@ 0xc2
1004372a:	0192      	lsls	r2, r2, #6
1004372c:	601a      	str	r2, [r3, #0]
  GPIO_InitStruct.Mode = GPIO_MODE_OUTPUT_PP;
1004372e:	1d3b      	adds	r3, r7, #4
10043730:	2201      	movs	r2, #1
10043732:	605a      	str	r2, [r3, #4]
  GPIO_InitStruct.Pull = GPIO_NOPULL;
10043734:	1d3b      	adds	r3, r7, #4
10043736:	2200      	movs	r2, #0
10043738:	609a      	str	r2, [r3, #8]
  GPIO_InitStruct.Speed = GPIO_SPEED_FREQ_LOW;
1004373a:	1d3b      	adds	r3, r7, #4
1004373c:	2200      	movs	r2, #0
1004373e:	60da      	str	r2, [r3, #12]
  HAL_GPIO_Init(GPIOB, &GPIO_InitStruct);
10043740:	1d3b      	adds	r3, r7, #4
10043742:	4a12      	ldr	r2, [pc, #72]	@ (1004378c <MX_GPIO_Init+0x120>)
10043744:	0019      	movs	r1, r3
10043746:	0010      	movs	r0, r2
10043748:	f001 fa9a 	bl	10044c80 <HAL_GPIO_Init>

  /**/
  HAL_PWREx_EnableGPIOPullUp(PWR_GPIO_A, PWR_GPIO_BIT_2);
1004374c:	2104      	movs	r1, #4
1004374e:	2000      	movs	r0, #0
10043750:	f002 fe1e 	bl	10046390 <HAL_PWREx_EnableGPIOPullUp>

  /**/
  HAL_PWREx_DisableGPIOPullUp(PWR_GPIO_A, PWR_GPIO_BIT_3|PWR_GPIO_BIT_0|PWR_GPIO_BIT_9|PWR_GPIO_BIT_1);
10043754:	4b0e      	ldr	r3, [pc, #56]	@ (10043790 <MX_GPIO_Init+0x124>)
10043756:	0019      	movs	r1, r3
10043758:	2000      	movs	r0, #0
1004375a:	f002 fe53 	bl	10046404 <HAL_PWREx_DisableGPIOPullUp>

  /**/
  HAL_PWREx_DisableGPIOPullUp(PWR_GPIO_B, PWR_GPIO_BIT_12|PWR_GPIO_BIT_13|PWR_GPIO_BIT_7);
1004375e:	23c2      	movs	r3, #194	@ 0xc2
10043760:	019b      	lsls	r3, r3, #6
10043762:	0019      	movs	r1, r3
10043764:	2001      	movs	r0, #1
10043766:	f002 fe4d 	bl	10046404 <HAL_PWREx_DisableGPIOPullUp>

  /**/
  HAL_PWREx_DisableGPIOPullDown(PWR_GPIO_A, PWR_GPIO_BIT_3|PWR_GPIO_BIT_0|PWR_GPIO_BIT_9|PWR_GPIO_BIT_1);
1004376a:	4b09      	ldr	r3, [pc, #36]	@ (10043790 <MX_GPIO_Init+0x124>)
1004376c:	0019      	movs	r1, r3
1004376e:	2000      	movs	r0, #0
10043770:	f002 fe76 	bl	10046460 <HAL_PWREx_DisableGPIOPullDown>

  /**/
  HAL_PWREx_DisableGPIOPullDown(PWR_GPIO_B, PWR_GPIO_BIT_12|PWR_GPIO_BIT_13|PWR_GPIO_BIT_7);
10043774:	23c2      	movs	r3, #194	@ 0xc2
10043776:	019b      	lsls	r3, r3, #6
10043778:	0019      	movs	r1, r3
1004377a:	2001      	movs	r0, #1
1004377c:	f002 fe70 	bl	10046460 <HAL_PWREx_DisableGPIOPullDown>

  /* USER CODE BEGIN MX_GPIO_Init_2 */

  /* USER CODE END MX_GPIO_Init_2 */
}
10043780:	46c0      	nop			@ (mov r8, r8)
10043782:	46bd      	mov	sp, r7
10043784:	b006      	add	sp, #24
10043786:	bd80      	pop	{r7, pc}
10043788:	00000203 	.word	0x00000203
1004378c:	48100000 	.word	0x48100000
10043790:	0000020b 	.word	0x0000020b

10043794 <Error_Handler>:
/**
  * @brief  This function is executed in case of error occurrence.
  * @retval None
  */
void Error_Handler(void)
{
10043794:	b580      	push	{r7, lr}
10043796:	af00      	add	r7, sp, #0
  \details Disables IRQ interrupts by setting special-purpose register PRIMASK.
           Can only be executed in Privileged modes.
 */
__STATIC_FORCEINLINE void __disable_irq(void)
{
  __ASM volatile ("cpsid i" : : : "memory");
10043798:	b672      	cpsid	i
}
1004379a:	46c0      	nop			@ (mov r8, r8)
  /* USER CODE BEGIN Error_Handler_Debug */
  /* User can add his own implementation to report the HAL error return state */
  __disable_irq();
  while (1)
1004379c:	46c0      	nop			@ (mov r8, r8)
1004379e:	e7fd      	b.n	1004379c <Error_Handler+0x8>

100437a0 <LL_AHB1_GRP1_EnableClock>:
{
100437a0:	b580      	push	{r7, lr}
100437a2:	b084      	sub	sp, #16
100437a4:	af00      	add	r7, sp, #0
100437a6:	6078      	str	r0, [r7, #4]
  SET_BIT(RCC->AHBENR, Periphs);
100437a8:	4b07      	ldr	r3, [pc, #28]	@ (100437c8 <LL_AHB1_GRP1_EnableClock+0x28>)
100437aa:	6d19      	ldr	r1, [r3, #80]	@ 0x50
100437ac:	4b06      	ldr	r3, [pc, #24]	@ (100437c8 <LL_AHB1_GRP1_EnableClock+0x28>)
100437ae:	687a      	ldr	r2, [r7, #4]
100437b0:	430a      	orrs	r2, r1
100437b2:	651a      	str	r2, [r3, #80]	@ 0x50
  tmpreg = READ_BIT(RCC->AHBENR, Periphs);
100437b4:	4b04      	ldr	r3, [pc, #16]	@ (100437c8 <LL_AHB1_GRP1_EnableClock+0x28>)
100437b6:	6d1b      	ldr	r3, [r3, #80]	@ 0x50
100437b8:	687a      	ldr	r2, [r7, #4]
100437ba:	4013      	ands	r3, r2
100437bc:	60fb      	str	r3, [r7, #12]
  (void)tmpreg;
100437be:	68fb      	ldr	r3, [r7, #12]
}
100437c0:	46c0      	nop			@ (mov r8, r8)
100437c2:	46bd      	mov	sp, r7
100437c4:	b004      	add	sp, #16
100437c6:	bd80      	pop	{r7, pc}
100437c8:	48400000 	.word	0x48400000

100437cc <LL_APB0_GRP1_EnableClock>:
  * @arg LL_APB0_GRP1_PERIPH_WDG
  * @arg LL_APB0_GRP1_PERIPH_DBGMCU
  * @retval None
  */
__STATIC_INLINE void LL_APB0_GRP1_EnableClock(uint32_t Periphs)
{
100437cc:	b580      	push	{r7, lr}
100437ce:	b084      	sub	sp, #16
100437d0:	af00      	add	r7, sp, #0
100437d2:	6078      	str	r0, [r7, #4]
  __IO uint32_t tmpreg;
  SET_BIT(RCC->APB0ENR, Periphs);
100437d4:	4b07      	ldr	r3, [pc, #28]	@ (100437f4 <LL_APB0_GRP1_EnableClock+0x28>)
100437d6:	6d59      	ldr	r1, [r3, #84]	@ 0x54
100437d8:	4b06      	ldr	r3, [pc, #24]	@ (100437f4 <LL_APB0_GRP1_EnableClock+0x28>)
100437da:	687a      	ldr	r2, [r7, #4]
100437dc:	430a      	orrs	r2, r1
100437de:	655a      	str	r2, [r3, #84]	@ 0x54
  /* Delay after an RCC peripheral clock enabling */
  tmpreg = READ_BIT(RCC->APB0ENR, Periphs);
100437e0:	4b04      	ldr	r3, [pc, #16]	@ (100437f4 <LL_APB0_GRP1_EnableClock+0x28>)
100437e2:	6d5b      	ldr	r3, [r3, #84]	@ 0x54
100437e4:	687a      	ldr	r2, [r7, #4]
100437e6:	4013      	ands	r3, r2
100437e8:	60fb      	str	r3, [r7, #12]
  (void)tmpreg;
100437ea:	68fb      	ldr	r3, [r7, #12]
}
100437ec:	46c0      	nop			@ (mov r8, r8)
100437ee:	46bd      	mov	sp, r7
100437f0:	b004      	add	sp, #16
100437f2:	bd80      	pop	{r7, pc}
100437f4:	48400000 	.word	0x48400000

100437f8 <LL_APB1_GRP1_EnableClock>:
  * @arg LL_APB1_GRP1_PERIPH_I2C1
  * @arg LL_APB1_GRP1_PERIPH_I2C2
  * @retval None
  */
__STATIC_INLINE void LL_APB1_GRP1_EnableClock(uint32_t Periphs)
{
100437f8:	b580      	push	{r7, lr}
100437fa:	b084      	sub	sp, #16
100437fc:	af00      	add	r7, sp, #0
100437fe:	6078      	str	r0, [r7, #4]
  __IO uint32_t tmpreg;
  SET_BIT(RCC->APB1ENR, Periphs);
10043800:	4b07      	ldr	r3, [pc, #28]	@ (10043820 <LL_APB1_GRP1_EnableClock+0x28>)
10043802:	6d99      	ldr	r1, [r3, #88]	@ 0x58
10043804:	4b06      	ldr	r3, [pc, #24]	@ (10043820 <LL_APB1_GRP1_EnableClock+0x28>)
10043806:	687a      	ldr	r2, [r7, #4]
10043808:	430a      	orrs	r2, r1
1004380a:	659a      	str	r2, [r3, #88]	@ 0x58
  /* Delay after an RCC peripheral clock enabling */
  tmpreg = READ_BIT(RCC->APB1ENR, Periphs);
1004380c:	4b04      	ldr	r3, [pc, #16]	@ (10043820 <LL_APB1_GRP1_EnableClock+0x28>)
1004380e:	6d9b      	ldr	r3, [r3, #88]	@ 0x58
10043810:	687a      	ldr	r2, [r7, #4]
10043812:	4013      	ands	r3, r2
10043814:	60fb      	str	r3, [r7, #12]
  (void)tmpreg;
10043816:	68fb      	ldr	r3, [r7, #12]
}
10043818:	46c0      	nop			@ (mov r8, r8)
1004381a:	46bd      	mov	sp, r7
1004381c:	b004      	add	sp, #16
1004381e:	bd80      	pop	{r7, pc}
10043820:	48400000 	.word	0x48400000

10043824 <LL_APB2_GRP1_EnableClock>:
  * @arg LL_APB2_GRP1_PERIPH_MRSUBG
  * @arg LL_APB2_GRP1_PERIPH_LPAWUR
  * @retval None
  */
__STATIC_INLINE void LL_APB2_GRP1_EnableClock(uint32_t Periphs)
{
10043824:	b580      	push	{r7, lr}
10043826:	b084      	sub	sp, #16
10043828:	af00      	add	r7, sp, #0
1004382a:	6078      	str	r0, [r7, #4]
  __IO uint32_t tmpreg;
  SET_BIT(RCC->APB2ENR, Periphs);
1004382c:	4b07      	ldr	r3, [pc, #28]	@ (1004384c <LL_APB2_GRP1_EnableClock+0x28>)
1004382e:	6e19      	ldr	r1, [r3, #96]	@ 0x60
10043830:	4b06      	ldr	r3, [pc, #24]	@ (1004384c <LL_APB2_GRP1_EnableClock+0x28>)
10043832:	687a      	ldr	r2, [r7, #4]
10043834:	430a      	orrs	r2, r1
10043836:	661a      	str	r2, [r3, #96]	@ 0x60
  /* Delay after an RCC peripheral clock enabling */
  tmpreg = READ_BIT(RCC->APB2ENR, Periphs);
10043838:	4b04      	ldr	r3, [pc, #16]	@ (1004384c <LL_APB2_GRP1_EnableClock+0x28>)
1004383a:	6e1b      	ldr	r3, [r3, #96]	@ 0x60
1004383c:	687a      	ldr	r2, [r7, #4]
1004383e:	4013      	ands	r3, r2
10043840:	60fb      	str	r3, [r7, #12]
  (void)tmpreg;
10043842:	68fb      	ldr	r3, [r7, #12]
}
10043844:	46c0      	nop			@ (mov r8, r8)
10043846:	46bd      	mov	sp, r7
10043848:	b004      	add	sp, #16
1004384a:	bd80      	pop	{r7, pc}
1004384c:	48400000 	.word	0x48400000

10043850 <LL_APB2_GRP1_IsEnabledClock>:
  * @arg LL_APB2_GRP1_PERIPH_MRSUBG
  * @arg LL_APB2_GRP1_PERIPH_LPAWUR
  * @retval uint32_t
  */
__STATIC_INLINE uint32_t LL_APB2_GRP1_IsEnabledClock(uint32_t Periphs)
{
10043850:	b580      	push	{r7, lr}
10043852:	b082      	sub	sp, #8
10043854:	af00      	add	r7, sp, #0
10043856:	6078      	str	r0, [r7, #4]
  return ((READ_BIT(RCC->APB2ENR, Periphs) == (Periphs)) ? 1UL : 0UL);
10043858:	4b06      	ldr	r3, [pc, #24]	@ (10043874 <LL_APB2_GRP1_IsEnabledClock+0x24>)
1004385a:	6e1b      	ldr	r3, [r3, #96]	@ 0x60
1004385c:	687a      	ldr	r2, [r7, #4]
1004385e:	4013      	ands	r3, r2
10043860:	687a      	ldr	r2, [r7, #4]
10043862:	429a      	cmp	r2, r3
10043864:	d101      	bne.n	1004386a <LL_APB2_GRP1_IsEnabledClock+0x1a>
10043866:	2301      	movs	r3, #1
10043868:	e000      	b.n	1004386c <LL_APB2_GRP1_IsEnabledClock+0x1c>
1004386a:	2300      	movs	r3, #0
}
1004386c:	0018      	movs	r0, r3
1004386e:	46bd      	mov	sp, r7
10043870:	b002      	add	sp, #8
10043872:	bd80      	pop	{r7, pc}
10043874:	48400000 	.word	0x48400000

10043878 <LL_APB2_GRP1_ForceReset>:
  * @arg LL_APB2_GRP1_PERIPH_MRSUBG
  * @arg LL_APB2_GRP1_PERIPH_LPAWUR
  * @retval None
  */
__STATIC_INLINE void LL_APB2_GRP1_ForceReset(uint32_t Periphs)
{
10043878:	b580      	push	{r7, lr}
1004387a:	b082      	sub	sp, #8
1004387c:	af00      	add	r7, sp, #0
1004387e:	6078      	str	r0, [r7, #4]
  SET_BIT(RCC->APB2RSTR, Periphs);
10043880:	4b04      	ldr	r3, [pc, #16]	@ (10043894 <LL_APB2_GRP1_ForceReset+0x1c>)
10043882:	6c19      	ldr	r1, [r3, #64]	@ 0x40
10043884:	4b03      	ldr	r3, [pc, #12]	@ (10043894 <LL_APB2_GRP1_ForceReset+0x1c>)
10043886:	687a      	ldr	r2, [r7, #4]
10043888:	430a      	orrs	r2, r1
1004388a:	641a      	str	r2, [r3, #64]	@ 0x40
}
1004388c:	46c0      	nop			@ (mov r8, r8)
1004388e:	46bd      	mov	sp, r7
10043890:	b002      	add	sp, #8
10043892:	bd80      	pop	{r7, pc}
10043894:	48400000 	.word	0x48400000

10043898 <LL_APB2_GRP1_ReleaseReset>:
  * @arg LL_APB2_GRP1_PERIPH_MRSUBG
  * @arg LL_APB2_GRP1_PERIPH_LPAWUR
  * @retval None
  */
__STATIC_INLINE void LL_APB2_GRP1_ReleaseReset(uint32_t Periphs)
{
10043898:	b580      	push	{r7, lr}
1004389a:	b082      	sub	sp, #8
1004389c:	af00      	add	r7, sp, #0
1004389e:	6078      	str	r0, [r7, #4]
  CLEAR_BIT(RCC->APB2RSTR, Periphs);
100438a0:	4b05      	ldr	r3, [pc, #20]	@ (100438b8 <LL_APB2_GRP1_ReleaseReset+0x20>)
100438a2:	6c1a      	ldr	r2, [r3, #64]	@ 0x40
100438a4:	687b      	ldr	r3, [r7, #4]
100438a6:	43d9      	mvns	r1, r3
100438a8:	4b03      	ldr	r3, [pc, #12]	@ (100438b8 <LL_APB2_GRP1_ReleaseReset+0x20>)
100438aa:	400a      	ands	r2, r1
100438ac:	641a      	str	r2, [r3, #64]	@ 0x40
}
100438ae:	46c0      	nop			@ (mov r8, r8)
100438b0:	46bd      	mov	sp, r7
100438b2:	b002      	add	sp, #8
100438b4:	bd80      	pop	{r7, pc}
100438b6:	46c0      	nop			@ (mov r8, r8)
100438b8:	48400000 	.word	0x48400000

100438bc <HAL_MspInit>:
/* USER CODE END 0 */
/**
  * Initializes the Global MSP.
  */
void HAL_MspInit(void)
{
100438bc:	b580      	push	{r7, lr}
100438be:	af00      	add	r7, sp, #0

  /* USER CODE BEGIN MspInit 0 */

  /* USER CODE END MspInit 0 */

  __HAL_RCC_SYSCFG_CLK_ENABLE();
100438c0:	2380      	movs	r3, #128	@ 0x80
100438c2:	005b      	lsls	r3, r3, #1
100438c4:	0018      	movs	r0, r3
100438c6:	f7ff ff81 	bl	100437cc <LL_APB0_GRP1_EnableClock>
  /* System interrupt init*/

  /* USER CODE BEGIN MspInit 1 */

  /* USER CODE END MspInit 1 */
}
100438ca:	46c0      	nop			@ (mov r8, r8)
100438cc:	46bd      	mov	sp, r7
100438ce:	bd80      	pop	{r7, pc}

100438d0 <HAL_ADC_MspInit>:
  * This function configures the hardware resources used in this example
  * @param hadc: ADC handle pointer
  * @retval None
  */
void HAL_ADC_MspInit(ADC_HandleTypeDef* hadc)
{
100438d0:	b590      	push	{r4, r7, lr}
100438d2:	b089      	sub	sp, #36	@ 0x24
100438d4:	af00      	add	r7, sp, #0
100438d6:	6078      	str	r0, [r7, #4]
  GPIO_InitTypeDef GPIO_InitStruct = {0};
100438d8:	240c      	movs	r4, #12
100438da:	193b      	adds	r3, r7, r4
100438dc:	0018      	movs	r0, r3
100438de:	2314      	movs	r3, #20
100438e0:	001a      	movs	r2, r3
100438e2:	2100      	movs	r1, #0
100438e4:	f005 fe30 	bl	10049548 <memset>
  if(hadc->Instance==ADC1)
100438e8:	687b      	ldr	r3, [r7, #4]
100438ea:	681b      	ldr	r3, [r3, #0]
100438ec:	4a13      	ldr	r2, [pc, #76]	@ (1004393c <HAL_ADC_MspInit+0x6c>)
100438ee:	4293      	cmp	r3, r2
100438f0:	d11f      	bne.n	10043932 <HAL_ADC_MspInit+0x62>
  {
    /* USER CODE BEGIN ADC1_MspInit 0 */

    /* USER CODE END ADC1_MspInit 0 */
    /* Peripheral clock enable */
    __HAL_RCC_ADCDIG_CLK_ENABLE();
100438f2:	2010      	movs	r0, #16
100438f4:	f7ff ff80 	bl	100437f8 <LL_APB1_GRP1_EnableClock>
    __HAL_RCC_ADCANA_CLK_ENABLE();
100438f8:	2020      	movs	r0, #32
100438fa:	f7ff ff7d 	bl	100437f8 <LL_APB1_GRP1_EnableClock>

    __HAL_RCC_GPIOB_CLK_ENABLE();
100438fe:	2008      	movs	r0, #8
10043900:	f7ff ff4e 	bl	100437a0 <LL_AHB1_GRP1_EnableClock>
    /**ADC1 GPIO Configuration
    PB0     ------> ADC1_VINM1
    PB1     ------> ADC1_VINP1
    PB2     ------> ADC1_VINM0
    */
    GPIO_InitStruct.Pin = Instrumentation_Amp_1_Pin|Instrumentation_Amp_2_Pin|Battery_Switch_Pin;
10043904:	193b      	adds	r3, r7, r4
10043906:	2207      	movs	r2, #7
10043908:	601a      	str	r2, [r3, #0]
    GPIO_InitStruct.Mode = GPIO_MODE_ANALOG;
1004390a:	193b      	adds	r3, r7, r4
1004390c:	2203      	movs	r2, #3
1004390e:	605a      	str	r2, [r3, #4]
    GPIO_InitStruct.Pull = GPIO_NOPULL;
10043910:	193b      	adds	r3, r7, r4
10043912:	2200      	movs	r2, #0
10043914:	609a      	str	r2, [r3, #8]
    HAL_GPIO_Init(GPIOB, &GPIO_InitStruct);
10043916:	193b      	adds	r3, r7, r4
10043918:	4a09      	ldr	r2, [pc, #36]	@ (10043940 <HAL_ADC_MspInit+0x70>)
1004391a:	0019      	movs	r1, r3
1004391c:	0010      	movs	r0, r2
1004391e:	f001 f9af 	bl	10044c80 <HAL_GPIO_Init>

    HAL_PWREx_DisableGPIOPullUp(PWR_GPIO_B, PWR_GPIO_BIT_0|PWR_GPIO_BIT_1|PWR_GPIO_BIT_2);
10043922:	2107      	movs	r1, #7
10043924:	2001      	movs	r0, #1
10043926:	f002 fd6d 	bl	10046404 <HAL_PWREx_DisableGPIOPullUp>

    HAL_PWREx_DisableGPIOPullDown(PWR_GPIO_B, PWR_GPIO_BIT_0|PWR_GPIO_BIT_1|PWR_GPIO_BIT_2);
1004392a:	2107      	movs	r1, #7
1004392c:	2001      	movs	r0, #1
1004392e:	f002 fd97 	bl	10046460 <HAL_PWREx_DisableGPIOPullDown>

    /* USER CODE END ADC1_MspInit 1 */

  }

}
10043932:	46c0      	nop			@ (mov r8, r8)
10043934:	46bd      	mov	sp, r7
10043936:	b009      	add	sp, #36	@ 0x24
10043938:	bd90      	pop	{r4, r7, pc}
1004393a:	46c0      	nop			@ (mov r8, r8)
1004393c:	41006000 	.word	0x41006000
10043940:	48100000 	.word	0x48100000

10043944 <HAL_MRSubG_MspInit>:
  * This function configures the hardware resources used in this example
  * @param hmrsubg: MRSubG handle pointer
  * @retval None
  */
void HAL_MRSubG_MspInit(void)
{
10043944:	b580      	push	{r7, lr}
10043946:	b086      	sub	sp, #24
10043948:	af00      	add	r7, sp, #0
  RCC_PeriphCLKInitTypeDef PeriphClkInitStruct = {0};
1004394a:	003b      	movs	r3, r7
1004394c:	0018      	movs	r0, r3
1004394e:	2318      	movs	r3, #24
10043950:	001a      	movs	r2, r3
10043952:	2100      	movs	r1, #0
10043954:	f005 fdf8 	bl	10049548 <memset>

    /* USER CODE END MRSubG_MspInit 0 */

  /** Initializes the peripherals clock
  */
    PeriphClkInitStruct.PeriphClockSelection = RCC_PERIPHCLK_RTC_WDG_SUBG_LPAWUR_LCD_LCSC;
10043958:	003b      	movs	r3, r7
1004395a:	2220      	movs	r2, #32
1004395c:	601a      	str	r2, [r3, #0]
    PeriphClkInitStruct.RTCWDGSUBGLPAWURLCDLCSCClockSelection = RCC_RTC_WDG_SUBG_LPAWUR_LCD_LCSC_CLKSOURCE_LSI;
1004395e:	003b      	movs	r3, r7
10043960:	2280      	movs	r2, #128	@ 0x80
10043962:	0252      	lsls	r2, r2, #9
10043964:	609a      	str	r2, [r3, #8]
    if (HAL_RCCEx_PeriphCLKConfig(&PeriphClkInitStruct) != HAL_OK)
10043966:	003b      	movs	r3, r7
10043968:	0018      	movs	r0, r3
1004396a:	f003 fa73 	bl	10046e54 <HAL_RCCEx_PeriphCLKConfig>
1004396e:	1e03      	subs	r3, r0, #0
10043970:	d001      	beq.n	10043976 <HAL_MRSubG_MspInit+0x32>
    {
      Error_Handler();
10043972:	f7ff ff0f 	bl	10043794 <Error_Handler>
    }

    /* Peripheral clock enable */
    if (__HAL_RCC_MRSUBG_IS_CLK_DISABLED())
10043976:	2001      	movs	r0, #1
10043978:	f7ff ff6a 	bl	10043850 <LL_APB2_GRP1_IsEnabledClock>
1004397c:	1e03      	subs	r3, r0, #0
1004397e:	d108      	bne.n	10043992 <HAL_MRSubG_MspInit+0x4e>
    {
      /* MRSUBG Peripheral reset */
      __HAL_RCC_MRSUBG_FORCE_RESET();
10043980:	2001      	movs	r0, #1
10043982:	f7ff ff79 	bl	10043878 <LL_APB2_GRP1_ForceReset>
      __HAL_RCC_MRSUBG_RELEASE_RESET();
10043986:	2001      	movs	r0, #1
10043988:	f7ff ff86 	bl	10043898 <LL_APB2_GRP1_ReleaseReset>

      /* Enable MRSUBG peripheral clock */
      __HAL_RCC_MRSUBG_CLK_ENABLE();
1004398c:	2001      	movs	r0, #1
1004398e:	f7ff ff49 	bl	10043824 <LL_APB2_GRP1_EnableClock>

    /* USER CODE BEGIN MRSubG_MspInit 1 */

    /* USER CODE END MRSubG_MspInit 1 */

}
10043992:	46c0      	nop			@ (mov r8, r8)
10043994:	46bd      	mov	sp, r7
10043996:	b006      	add	sp, #24
10043998:	bd80      	pop	{r7, pc}
	...

1004399c <HAL_SPI_MspInit>:
  * This function configures the hardware resources used in this example
  * @param hspi: SPI handle pointer
  * @retval None
  */
void HAL_SPI_MspInit(SPI_HandleTypeDef* hspi)
{
1004399c:	b590      	push	{r4, r7, lr}
1004399e:	b08f      	sub	sp, #60	@ 0x3c
100439a0:	af00      	add	r7, sp, #0
100439a2:	6078      	str	r0, [r7, #4]
  GPIO_InitTypeDef GPIO_InitStruct = {0};
100439a4:	2324      	movs	r3, #36	@ 0x24
100439a6:	18fb      	adds	r3, r7, r3
100439a8:	0018      	movs	r0, r3
100439aa:	2314      	movs	r3, #20
100439ac:	001a      	movs	r2, r3
100439ae:	2100      	movs	r1, #0
100439b0:	f005 fdca 	bl	10049548 <memset>
  RCC_PeriphCLKInitTypeDef PeriphClkInitStruct = {0};
100439b4:	240c      	movs	r4, #12
100439b6:	193b      	adds	r3, r7, r4
100439b8:	0018      	movs	r0, r3
100439ba:	2318      	movs	r3, #24
100439bc:	001a      	movs	r2, r3
100439be:	2100      	movs	r1, #0
100439c0:	f005 fdc2 	bl	10049548 <memset>
  if(hspi->Instance==SPI3)
100439c4:	687b      	ldr	r3, [r7, #4]
100439c6:	681b      	ldr	r3, [r3, #0]
100439c8:	4a31      	ldr	r2, [pc, #196]	@ (10043a90 <HAL_SPI_MspInit+0xf4>)
100439ca:	4293      	cmp	r3, r2
100439cc:	d15c      	bne.n	10043a88 <HAL_SPI_MspInit+0xec>

    /* USER CODE END SPI3_MspInit 0 */

  /** Initializes the peripherals clock
  */
    PeriphClkInitStruct.PeriphClockSelection = RCC_PERIPHCLK_SPI3_I2S;
100439ce:	193b      	adds	r3, r7, r4
100439d0:	2208      	movs	r2, #8
100439d2:	601a      	str	r2, [r3, #0]
    PeriphClkInitStruct.SPI3I2SClockSelection = RCC_SPI3I2S_CLKSOURCE_CLK_RC64MPLL;
100439d4:	193b      	adds	r3, r7, r4
100439d6:	2280      	movs	r2, #128	@ 0x80
100439d8:	0412      	lsls	r2, r2, #16
100439da:	605a      	str	r2, [r3, #4]
    if (HAL_RCCEx_PeriphCLKConfig(&PeriphClkInitStruct) != HAL_OK)
100439dc:	193b      	adds	r3, r7, r4
100439de:	0018      	movs	r0, r3
100439e0:	f003 fa38 	bl	10046e54 <HAL_RCCEx_PeriphCLKConfig>
100439e4:	1e03      	subs	r3, r0, #0
100439e6:	d001      	beq.n	100439ec <HAL_SPI_MspInit+0x50>
    {
      Error_Handler();
100439e8:	f7ff fed4 	bl	10043794 <Error_Handler>
    }

    /* Peripheral clock enable */
    __HAL_RCC_SPI3_CLK_ENABLE();
100439ec:	2380      	movs	r3, #128	@ 0x80
100439ee:	01db      	lsls	r3, r3, #7
100439f0:	0018      	movs	r0, r3
100439f2:	f7ff ff01 	bl	100437f8 <LL_APB1_GRP1_EnableClock>

    __HAL_RCC_GPIOA_CLK_ENABLE();
100439f6:	2004      	movs	r0, #4
100439f8:	f7ff fed2 	bl	100437a0 <LL_AHB1_GRP1_EnableClock>
    __HAL_RCC_GPIOB_CLK_ENABLE();
100439fc:	2008      	movs	r0, #8
100439fe:	f7ff fecf 	bl	100437a0 <LL_AHB1_GRP1_EnableClock>
    /**SPI3 GPIO Configuration
    PA11     ------> SPI3_MOSI
    PA8     ------> SPI3_MISO
    PB6     ------> SPI3_SCK
    */
    GPIO_InitStruct.Pin = GPIO_PIN_11|GPIO_PIN_8;
10043a02:	2124      	movs	r1, #36	@ 0x24
10043a04:	187b      	adds	r3, r7, r1
10043a06:	2290      	movs	r2, #144	@ 0x90
10043a08:	0112      	lsls	r2, r2, #4
10043a0a:	601a      	str	r2, [r3, #0]
    GPIO_InitStruct.Mode = GPIO_MODE_AF_PP;
10043a0c:	000c      	movs	r4, r1
10043a0e:	193b      	adds	r3, r7, r4
10043a10:	2202      	movs	r2, #2
10043a12:	605a      	str	r2, [r3, #4]
    GPIO_InitStruct.Pull = GPIO_NOPULL;
10043a14:	193b      	adds	r3, r7, r4
10043a16:	2200      	movs	r2, #0
10043a18:	609a      	str	r2, [r3, #8]
    GPIO_InitStruct.Speed = GPIO_SPEED_FREQ_LOW;
10043a1a:	193b      	adds	r3, r7, r4
10043a1c:	2200      	movs	r2, #0
10043a1e:	60da      	str	r2, [r3, #12]
    GPIO_InitStruct.Alternate = GPIO_AF3_SPI3;
10043a20:	193b      	adds	r3, r7, r4
10043a22:	2203      	movs	r2, #3
10043a24:	611a      	str	r2, [r3, #16]
    HAL_GPIO_Init(GPIOA, &GPIO_InitStruct);
10043a26:	193a      	adds	r2, r7, r4
10043a28:	2390      	movs	r3, #144	@ 0x90
10043a2a:	05db      	lsls	r3, r3, #23
10043a2c:	0011      	movs	r1, r2
10043a2e:	0018      	movs	r0, r3
10043a30:	f001 f926 	bl	10044c80 <HAL_GPIO_Init>

    GPIO_InitStruct.Pin = GPIO_PIN_6;
10043a34:	0021      	movs	r1, r4
10043a36:	187b      	adds	r3, r7, r1
10043a38:	2240      	movs	r2, #64	@ 0x40
10043a3a:	601a      	str	r2, [r3, #0]
    GPIO_InitStruct.Mode = GPIO_MODE_AF_PP;
10043a3c:	187b      	adds	r3, r7, r1
10043a3e:	2202      	movs	r2, #2
10043a40:	605a      	str	r2, [r3, #4]
    GPIO_InitStruct.Pull = GPIO_NOPULL;
10043a42:	187b      	adds	r3, r7, r1
10043a44:	2200      	movs	r2, #0
10043a46:	609a      	str	r2, [r3, #8]
    GPIO_InitStruct.Speed = GPIO_SPEED_FREQ_LOW;
10043a48:	187b      	adds	r3, r7, r1
10043a4a:	2200      	movs	r2, #0
10043a4c:	60da      	str	r2, [r3, #12]
    GPIO_InitStruct.Alternate = GPIO_AF3_SPI3;
10043a4e:	187b      	adds	r3, r7, r1
10043a50:	2203      	movs	r2, #3
10043a52:	611a      	str	r2, [r3, #16]
    HAL_GPIO_Init(GPIOB, &GPIO_InitStruct);
10043a54:	187b      	adds	r3, r7, r1
10043a56:	4a0f      	ldr	r2, [pc, #60]	@ (10043a94 <HAL_SPI_MspInit+0xf8>)
10043a58:	0019      	movs	r1, r3
10043a5a:	0010      	movs	r0, r2
10043a5c:	f001 f910 	bl	10044c80 <HAL_GPIO_Init>

    HAL_PWREx_DisableGPIOPullUp(PWR_GPIO_A, PWR_GPIO_BIT_11|PWR_GPIO_BIT_8);
10043a60:	2390      	movs	r3, #144	@ 0x90
10043a62:	011b      	lsls	r3, r3, #4
10043a64:	0019      	movs	r1, r3
10043a66:	2000      	movs	r0, #0
10043a68:	f002 fccc 	bl	10046404 <HAL_PWREx_DisableGPIOPullUp>

    HAL_PWREx_DisableGPIOPullUp(PWR_GPIO_B, PWR_GPIO_BIT_6);
10043a6c:	2140      	movs	r1, #64	@ 0x40
10043a6e:	2001      	movs	r0, #1
10043a70:	f002 fcc8 	bl	10046404 <HAL_PWREx_DisableGPIOPullUp>

    HAL_PWREx_DisableGPIOPullDown(PWR_GPIO_A, PWR_GPIO_BIT_11|PWR_GPIO_BIT_8);
10043a74:	2390      	movs	r3, #144	@ 0x90
10043a76:	011b      	lsls	r3, r3, #4
10043a78:	0019      	movs	r1, r3
10043a7a:	2000      	movs	r0, #0
10043a7c:	f002 fcf0 	bl	10046460 <HAL_PWREx_DisableGPIOPullDown>

    HAL_PWREx_DisableGPIOPullDown(PWR_GPIO_B, PWR_GPIO_BIT_6);
10043a80:	2140      	movs	r1, #64	@ 0x40
10043a82:	2001      	movs	r0, #1
10043a84:	f002 fcec 	bl	10046460 <HAL_PWREx_DisableGPIOPullDown>

    /* USER CODE END SPI3_MspInit 1 */

  }

}
10043a88:	46c0      	nop			@ (mov r8, r8)
10043a8a:	46bd      	mov	sp, r7
10043a8c:	b00f      	add	sp, #60	@ 0x3c
10043a8e:	bd90      	pop	{r4, r7, pc}
10043a90:	41007000 	.word	0x41007000
10043a94:	48100000 	.word	0x48100000

10043a98 <HAL_UART_MspInit>:
  * This function configures the hardware resources used in this example
  * @param huart: UART handle pointer
  * @retval None
  */
void HAL_UART_MspInit(UART_HandleTypeDef* huart)
{
10043a98:	b590      	push	{r4, r7, lr}
10043a9a:	b089      	sub	sp, #36	@ 0x24
10043a9c:	af00      	add	r7, sp, #0
10043a9e:	6078      	str	r0, [r7, #4]
  GPIO_InitTypeDef GPIO_InitStruct = {0};
10043aa0:	240c      	movs	r4, #12
10043aa2:	193b      	adds	r3, r7, r4
10043aa4:	0018      	movs	r0, r3
10043aa6:	2314      	movs	r3, #20
10043aa8:	001a      	movs	r2, r3
10043aaa:	2100      	movs	r1, #0
10043aac:	f005 fd4c 	bl	10049548 <memset>
  if(huart->Instance==USART1)
10043ab0:	687b      	ldr	r3, [r7, #4]
10043ab2:	681b      	ldr	r3, [r3, #0]
10043ab4:	4a18      	ldr	r2, [pc, #96]	@ (10043b18 <HAL_UART_MspInit+0x80>)
10043ab6:	4293      	cmp	r3, r2
10043ab8:	d12a      	bne.n	10043b10 <HAL_UART_MspInit+0x78>
  {
    /* USER CODE BEGIN USART1_MspInit 0 */

    /* USER CODE END USART1_MspInit 0 */
    /* Peripheral clock enable */
    __HAL_RCC_USART1_CLK_ENABLE();
10043aba:	2380      	movs	r3, #128	@ 0x80
10043abc:	00db      	lsls	r3, r3, #3
10043abe:	0018      	movs	r0, r3
10043ac0:	f7ff fe9a 	bl	100437f8 <LL_APB1_GRP1_EnableClock>

    __HAL_RCC_GPIOB_CLK_ENABLE();
10043ac4:	2008      	movs	r0, #8
10043ac6:	f7ff fe6b 	bl	100437a0 <LL_AHB1_GRP1_EnableClock>
    /**USART1 GPIO Configuration
    PB14     ------> USART1_RX
    PB15     ------> USART1_TX
    */
    GPIO_InitStruct.Pin = GPIO_PIN_14|GPIO_PIN_15;
10043aca:	193b      	adds	r3, r7, r4
10043acc:	22c0      	movs	r2, #192	@ 0xc0
10043ace:	0212      	lsls	r2, r2, #8
10043ad0:	601a      	str	r2, [r3, #0]
    GPIO_InitStruct.Mode = GPIO_MODE_AF_PP;
10043ad2:	0021      	movs	r1, r4
10043ad4:	187b      	adds	r3, r7, r1
10043ad6:	2202      	movs	r2, #2
10043ad8:	605a      	str	r2, [r3, #4]
    GPIO_InitStruct.Pull = GPIO_NOPULL;
10043ada:	187b      	adds	r3, r7, r1
10043adc:	2200      	movs	r2, #0
10043ade:	609a      	str	r2, [r3, #8]
    GPIO_InitStruct.Speed = GPIO_SPEED_FREQ_LOW;
10043ae0:	187b      	adds	r3, r7, r1
10043ae2:	2200      	movs	r2, #0
10043ae4:	60da      	str	r2, [r3, #12]
    GPIO_InitStruct.Alternate = GPIO_AF1_USART1;
10043ae6:	187b      	adds	r3, r7, r1
10043ae8:	2201      	movs	r2, #1
10043aea:	611a      	str	r2, [r3, #16]
    HAL_GPIO_Init(GPIOB, &GPIO_InitStruct);
10043aec:	187b      	adds	r3, r7, r1
10043aee:	4a0b      	ldr	r2, [pc, #44]	@ (10043b1c <HAL_UART_MspInit+0x84>)
10043af0:	0019      	movs	r1, r3
10043af2:	0010      	movs	r0, r2
10043af4:	f001 f8c4 	bl	10044c80 <HAL_GPIO_Init>

    HAL_PWREx_DisableGPIOPullUp(PWR_GPIO_B, PWR_GPIO_BIT_14|PWR_GPIO_BIT_15);
10043af8:	23c0      	movs	r3, #192	@ 0xc0
10043afa:	021b      	lsls	r3, r3, #8
10043afc:	0019      	movs	r1, r3
10043afe:	2001      	movs	r0, #1
10043b00:	f002 fc80 	bl	10046404 <HAL_PWREx_DisableGPIOPullUp>

    HAL_PWREx_DisableGPIOPullDown(PWR_GPIO_B, PWR_GPIO_BIT_14|PWR_GPIO_BIT_15);
10043b04:	23c0      	movs	r3, #192	@ 0xc0
10043b06:	021b      	lsls	r3, r3, #8
10043b08:	0019      	movs	r1, r3
10043b0a:	2001      	movs	r0, #1
10043b0c:	f002 fca8 	bl	10046460 <HAL_PWREx_DisableGPIOPullDown>

    /* USER CODE END USART1_MspInit 1 */

  }

}
10043b10:	46c0      	nop			@ (mov r8, r8)
10043b12:	46bd      	mov	sp, r7
10043b14:	b009      	add	sp, #36	@ 0x24
10043b16:	bd90      	pop	{r4, r7, pc}
10043b18:	41004000 	.word	0x41004000
10043b1c:	48100000 	.word	0x48100000

10043b20 <NMI_Handler>:
/******************************************************************************/
/**
  * @brief This function handles Non maskable interrupt.
  */
void NMI_Handler(void)
{
10043b20:	b580      	push	{r7, lr}
10043b22:	af00      	add	r7, sp, #0
  /* USER CODE BEGIN NonMaskableInt_IRQn 0 */

  /* USER CODE END NonMaskableInt_IRQn 0 */
  /* USER CODE BEGIN NonMaskableInt_IRQn 1 */
   while (1)
10043b24:	46c0      	nop			@ (mov r8, r8)
10043b26:	e7fd      	b.n	10043b24 <NMI_Handler+0x4>

10043b28 <HardFault_Handler>:

/**
  * @brief This function handles Hard fault interrupt.
  */
void HardFault_Handler(void)
{
10043b28:	b580      	push	{r7, lr}
10043b2a:	af00      	add	r7, sp, #0
  /* USER CODE BEGIN HardFault_IRQn 0 */

  /* USER CODE END HardFault_IRQn 0 */
  while (1)
10043b2c:	46c0      	nop			@ (mov r8, r8)
10043b2e:	e7fd      	b.n	10043b2c <HardFault_Handler+0x4>

10043b30 <SVC_Handler>:

/**
  * @brief This function handles System service call via SWI instruction.
  */
void SVC_Handler(void)
{
10043b30:	b580      	push	{r7, lr}
10043b32:	af00      	add	r7, sp, #0

  /* USER CODE END SVCall_IRQn 0 */
  /* USER CODE BEGIN SVCall_IRQn 1 */

  /* USER CODE END SVCall_IRQn 1 */
}
10043b34:	46c0      	nop			@ (mov r8, r8)
10043b36:	46bd      	mov	sp, r7
10043b38:	bd80      	pop	{r7, pc}

10043b3a <PendSV_Handler>:

/**
  * @brief This function handles Pendable request for system service.
  */
void PendSV_Handler(void)
{
10043b3a:	b580      	push	{r7, lr}
10043b3c:	af00      	add	r7, sp, #0

  /* USER CODE END PendSV_IRQn 0 */
  /* USER CODE BEGIN PendSV_IRQn 1 */

  /* USER CODE END PendSV_IRQn 1 */
}
10043b3e:	46c0      	nop			@ (mov r8, r8)
10043b40:	46bd      	mov	sp, r7
10043b42:	bd80      	pop	{r7, pc}

10043b44 <SysTick_Handler>:

/**
  * @brief This function handles System tick timer.
  */
void SysTick_Handler(void)
{
10043b44:	b580      	push	{r7, lr}
10043b46:	af00      	add	r7, sp, #0
  /* USER CODE BEGIN SysTick_IRQn 0 */

  /* USER CODE END SysTick_IRQn 0 */
  HAL_IncTick();
10043b48:	f000 fa32 	bl	10043fb0 <HAL_IncTick>
  /* USER CODE BEGIN SysTick_IRQn 1 */

  /* USER CODE END SysTick_IRQn 1 */
}
10043b4c:	46c0      	nop			@ (mov r8, r8)
10043b4e:	46bd      	mov	sp, r7
10043b50:	bd80      	pop	{r7, pc}
	...

10043b54 <Reset_Handler>:

	.section  .text.Reset_Handler
  .weak  Reset_Handler
  .type  Reset_Handler, %function
Reset_Handler:  
   ldr   r0, =_estack
10043b54:	480c      	ldr	r0, [pc, #48]	@ (10043b88 <LoopForever+0x2>)
   mov   sp, r0          /* set stack pointer */
10043b56:	4685      	mov	sp, r0
/* Call the clock system initialization function.*/
  bl  SystemInit
10043b58:	f000 f8a4 	bl	10043ca4 <SystemInit>

/* Copy the data segment initializers from flash to SRAM */
  movs  r1, #0
10043b5c:	2100      	movs	r1, #0
  b  LoopCopyDataInit
10043b5e:	e003      	b.n	10043b68 <LoopCopyDataInit>

10043b60 <CopyDataInit>:

CopyDataInit:
  ldr  r3, =_sidata
10043b60:	4b0a      	ldr	r3, [pc, #40]	@ (10043b8c <LoopForever+0x6>)
  ldr  r3, [r3, r1]
10043b62:	585b      	ldr	r3, [r3, r1]
  str  r3, [r0, r1]
10043b64:	5043      	str	r3, [r0, r1]
  adds  r1, r1, #4
10043b66:	3104      	adds	r1, #4

10043b68 <LoopCopyDataInit>:

LoopCopyDataInit:
  ldr  r0, =_sdata
10043b68:	4809      	ldr	r0, [pc, #36]	@ (10043b90 <LoopForever+0xa>)
  ldr  r3, =_edata
10043b6a:	4b0a      	ldr	r3, [pc, #40]	@ (10043b94 <LoopForever+0xe>)
  adds  r2, r0, r1
10043b6c:	1842      	adds	r2, r0, r1
  cmp  r2, r3
10043b6e:	429a      	cmp	r2, r3
  bcc  CopyDataInit
10043b70:	d3f6      	bcc.n	10043b60 <CopyDataInit>
  ldr  r2, =_sbss
10043b72:	4a09      	ldr	r2, [pc, #36]	@ (10043b98 <LoopForever+0x12>)
  b  LoopFillZerobss
10043b74:	e002      	b.n	10043b7c <LoopFillZerobss>

10043b76 <FillZerobss>:
/* Zero fill the bss segment. */
FillZerobss:
  movs  r3, #0
10043b76:	2300      	movs	r3, #0
  str  r3, [r2]
10043b78:	6013      	str	r3, [r2, #0]
  adds r2, r2, #4
10043b7a:	3204      	adds	r2, #4

10043b7c <LoopFillZerobss>:


LoopFillZerobss:
  ldr  r3, = _ebss
10043b7c:	4b07      	ldr	r3, [pc, #28]	@ (10043b9c <LoopForever+0x16>)
  cmp  r2, r3
10043b7e:	429a      	cmp	r2, r3
  bcc  FillZerobss
10043b80:	d3f9      	bcc.n	10043b76 <FillZerobss>

/* Call the application's entry point.*/
  bl  main
10043b82:	f7ff fb51 	bl	10043228 <main>

10043b86 <LoopForever>:

LoopForever:
    b LoopForever
10043b86:	e7fe      	b.n	10043b86 <LoopForever>
   ldr   r0, =_estack
10043b88:	20008000 	.word	0x20008000
  ldr  r3, =_sidata
10043b8c:	1004982c 	.word	0x1004982c
  ldr  r0, =_sdata
10043b90:	200001f8 	.word	0x200001f8
  ldr  r3, =_edata
10043b94:	20000210 	.word	0x20000210
  ldr  r2, =_sbss
10043b98:	20000034 	.word	0x20000034
  ldr  r3, = _ebss
10043b9c:	200001f8 	.word	0x200001f8

10043ba0 <ADC_IRQHandler>:
 * @retval : None
*/
    .section  .text.Default_Handler,"ax",%progbits
Default_Handler:
Infinite_Loop:
  b  Infinite_Loop
10043ba0:	e7fe      	b.n	10043ba0 <ADC_IRQHandler>
	...

10043ba4 <__NVIC_SetPriority>:
  \param [in]      IRQn  Interrupt number.
  \param [in]  priority  Priority to set.
  \note    The priority cannot be set for every processor exception.
 */
__STATIC_INLINE void __NVIC_SetPriority(IRQn_Type IRQn, uint32_t priority)
{
10043ba4:	b590      	push	{r4, r7, lr}
10043ba6:	b083      	sub	sp, #12
10043ba8:	af00      	add	r7, sp, #0
10043baa:	0002      	movs	r2, r0
10043bac:	6039      	str	r1, [r7, #0]
10043bae:	1dfb      	adds	r3, r7, #7
10043bb0:	701a      	strb	r2, [r3, #0]
  if ((int32_t)(IRQn) >= 0)
10043bb2:	1dfb      	adds	r3, r7, #7
10043bb4:	781b      	ldrb	r3, [r3, #0]
10043bb6:	2b7f      	cmp	r3, #127	@ 0x7f
10043bb8:	d828      	bhi.n	10043c0c <__NVIC_SetPriority+0x68>
  {
    NVIC->IP[_IP_IDX(IRQn)]  = ((uint32_t)(NVIC->IP[_IP_IDX(IRQn)]  & ~(0xFFUL << _BIT_SHIFT(IRQn))) |
10043bba:	4a2f      	ldr	r2, [pc, #188]	@ (10043c78 <__NVIC_SetPriority+0xd4>)
10043bbc:	1dfb      	adds	r3, r7, #7
10043bbe:	781b      	ldrb	r3, [r3, #0]
10043bc0:	b25b      	sxtb	r3, r3
10043bc2:	089b      	lsrs	r3, r3, #2
10043bc4:	33c0      	adds	r3, #192	@ 0xc0
10043bc6:	009b      	lsls	r3, r3, #2
10043bc8:	589b      	ldr	r3, [r3, r2]
10043bca:	1dfa      	adds	r2, r7, #7
10043bcc:	7812      	ldrb	r2, [r2, #0]
10043bce:	0011      	movs	r1, r2
10043bd0:	2203      	movs	r2, #3
10043bd2:	400a      	ands	r2, r1
10043bd4:	00d2      	lsls	r2, r2, #3
10043bd6:	21ff      	movs	r1, #255	@ 0xff
10043bd8:	4091      	lsls	r1, r2
10043bda:	000a      	movs	r2, r1
10043bdc:	43d2      	mvns	r2, r2
10043bde:	401a      	ands	r2, r3
10043be0:	0011      	movs	r1, r2
       (((priority << (8U - __NVIC_PRIO_BITS)) & (uint32_t)0xFFUL) << _BIT_SHIFT(IRQn)));
10043be2:	683b      	ldr	r3, [r7, #0]
10043be4:	019b      	lsls	r3, r3, #6
10043be6:	22ff      	movs	r2, #255	@ 0xff
10043be8:	401a      	ands	r2, r3
10043bea:	1dfb      	adds	r3, r7, #7
10043bec:	781b      	ldrb	r3, [r3, #0]
10043bee:	0018      	movs	r0, r3
10043bf0:	2303      	movs	r3, #3
10043bf2:	4003      	ands	r3, r0
10043bf4:	00db      	lsls	r3, r3, #3
10043bf6:	409a      	lsls	r2, r3
    NVIC->IP[_IP_IDX(IRQn)]  = ((uint32_t)(NVIC->IP[_IP_IDX(IRQn)]  & ~(0xFFUL << _BIT_SHIFT(IRQn))) |
10043bf8:	481f      	ldr	r0, [pc, #124]	@ (10043c78 <__NVIC_SetPriority+0xd4>)
10043bfa:	1dfb      	adds	r3, r7, #7
10043bfc:	781b      	ldrb	r3, [r3, #0]
10043bfe:	b25b      	sxtb	r3, r3
10043c00:	089b      	lsrs	r3, r3, #2
10043c02:	430a      	orrs	r2, r1
10043c04:	33c0      	adds	r3, #192	@ 0xc0
10043c06:	009b      	lsls	r3, r3, #2
10043c08:	501a      	str	r2, [r3, r0]
  else
  {
    SCB->SHP[_SHP_IDX(IRQn)] = ((uint32_t)(SCB->SHP[_SHP_IDX(IRQn)] & ~(0xFFUL << _BIT_SHIFT(IRQn))) |
       (((priority << (8U - __NVIC_PRIO_BITS)) & (uint32_t)0xFFUL) << _BIT_SHIFT(IRQn)));
  }
}
10043c0a:	e031      	b.n	10043c70 <__NVIC_SetPriority+0xcc>
    SCB->SHP[_SHP_IDX(IRQn)] = ((uint32_t)(SCB->SHP[_SHP_IDX(IRQn)] & ~(0xFFUL << _BIT_SHIFT(IRQn))) |
10043c0c:	4a1b      	ldr	r2, [pc, #108]	@ (10043c7c <__NVIC_SetPriority+0xd8>)
10043c0e:	1dfb      	adds	r3, r7, #7
10043c10:	781b      	ldrb	r3, [r3, #0]
10043c12:	0019      	movs	r1, r3
10043c14:	230f      	movs	r3, #15
10043c16:	400b      	ands	r3, r1
10043c18:	3b08      	subs	r3, #8
10043c1a:	089b      	lsrs	r3, r3, #2
10043c1c:	3306      	adds	r3, #6
10043c1e:	009b      	lsls	r3, r3, #2
10043c20:	18d3      	adds	r3, r2, r3
10043c22:	3304      	adds	r3, #4
10043c24:	681b      	ldr	r3, [r3, #0]
10043c26:	1dfa      	adds	r2, r7, #7
10043c28:	7812      	ldrb	r2, [r2, #0]
10043c2a:	0011      	movs	r1, r2
10043c2c:	2203      	movs	r2, #3
10043c2e:	400a      	ands	r2, r1
10043c30:	00d2      	lsls	r2, r2, #3
10043c32:	21ff      	movs	r1, #255	@ 0xff
10043c34:	4091      	lsls	r1, r2
10043c36:	000a      	movs	r2, r1
10043c38:	43d2      	mvns	r2, r2
10043c3a:	401a      	ands	r2, r3
10043c3c:	0011      	movs	r1, r2
       (((priority << (8U - __NVIC_PRIO_BITS)) & (uint32_t)0xFFUL) << _BIT_SHIFT(IRQn)));
10043c3e:	683b      	ldr	r3, [r7, #0]
10043c40:	019b      	lsls	r3, r3, #6
10043c42:	22ff      	movs	r2, #255	@ 0xff
10043c44:	401a      	ands	r2, r3
10043c46:	1dfb      	adds	r3, r7, #7
10043c48:	781b      	ldrb	r3, [r3, #0]
10043c4a:	0018      	movs	r0, r3
10043c4c:	2303      	movs	r3, #3
10043c4e:	4003      	ands	r3, r0
10043c50:	00db      	lsls	r3, r3, #3
10043c52:	409a      	lsls	r2, r3
    SCB->SHP[_SHP_IDX(IRQn)] = ((uint32_t)(SCB->SHP[_SHP_IDX(IRQn)] & ~(0xFFUL << _BIT_SHIFT(IRQn))) |
10043c54:	4809      	ldr	r0, [pc, #36]	@ (10043c7c <__NVIC_SetPriority+0xd8>)
10043c56:	1dfb      	adds	r3, r7, #7
10043c58:	781b      	ldrb	r3, [r3, #0]
10043c5a:	001c      	movs	r4, r3
10043c5c:	230f      	movs	r3, #15
10043c5e:	4023      	ands	r3, r4
10043c60:	3b08      	subs	r3, #8
10043c62:	089b      	lsrs	r3, r3, #2
10043c64:	430a      	orrs	r2, r1
10043c66:	3306      	adds	r3, #6
10043c68:	009b      	lsls	r3, r3, #2
10043c6a:	18c3      	adds	r3, r0, r3
10043c6c:	3304      	adds	r3, #4
10043c6e:	601a      	str	r2, [r3, #0]
}
10043c70:	46c0      	nop			@ (mov r8, r8)
10043c72:	46bd      	mov	sp, r7
10043c74:	b003      	add	sp, #12
10043c76:	bd90      	pop	{r4, r7, pc}
10043c78:	e000e100 	.word	0xe000e100
10043c7c:	e000ed00 	.word	0xe000ed00

10043c80 <__NVIC_SystemReset>:
/**
  \brief   System Reset
  \details Initiates a system reset request to reset the MCU.
 */
__NO_RETURN __STATIC_INLINE void __NVIC_SystemReset(void)
{
10043c80:	b580      	push	{r7, lr}
10043c82:	af00      	add	r7, sp, #0
  __ASM volatile ("dsb 0xF":::"memory");
10043c84:	f3bf 8f4f 	dsb	sy
}
10043c88:	46c0      	nop			@ (mov r8, r8)
  __DSB();                                                          /* Ensure all outstanding memory accesses included
                                                                       buffered write are completed before reset */
  SCB->AIRCR  = ((0x5FAUL << SCB_AIRCR_VECTKEY_Pos) |
10043c8a:	4b04      	ldr	r3, [pc, #16]	@ (10043c9c <__NVIC_SystemReset+0x1c>)
10043c8c:	4a04      	ldr	r2, [pc, #16]	@ (10043ca0 <__NVIC_SystemReset+0x20>)
10043c8e:	60da      	str	r2, [r3, #12]
  __ASM volatile ("dsb 0xF":::"memory");
10043c90:	f3bf 8f4f 	dsb	sy
}
10043c94:	46c0      	nop			@ (mov r8, r8)
                 SCB_AIRCR_SYSRESETREQ_Msk);
  __DSB();                                                          /* Ensure completion of memory access */

  for(;;)                                                           /* wait until reset */
  {
    __NOP();
10043c96:	46c0      	nop			@ (mov r8, r8)
10043c98:	e7fd      	b.n	10043c96 <__NVIC_SystemReset+0x16>
10043c9a:	46c0      	nop			@ (mov r8, r8)
10043c9c:	e000ed00 	.word	0xe000ed00
10043ca0:	05fa0004 	.word	0x05fa0004

10043ca4 <SystemInit>:
  * @brief  Setup the microcontroller system.
  * @param  None
  * @retval None
  */
void SystemInit(void)
{
10043ca4:	b580      	push	{r7, lr}
10043ca6:	b086      	sub	sp, #24
10043ca8:	af00      	add	r7, sp, #0
  uint32_t mainRegulator, smpsOutVoltage, lsiBw, hsiCalib;
  uint8_t i;

  /* If the reset reason is a wakeup from power save restore the context */
  if ((RCC->CSR == 0) && ((PWR->IWUF != 0) || (PWR->WUFA != 0) || (PWR->WUFB != 0)))
10043caa:	4a5e      	ldr	r2, [pc, #376]	@ (10043e24 <SystemInit+0x180>)
10043cac:	2394      	movs	r3, #148	@ 0x94
10043cae:	58d3      	ldr	r3, [r2, r3]
10043cb0:	2b00      	cmp	r3, #0
10043cb2:	d112      	bne.n	10043cda <SystemInit+0x36>
10043cb4:	4b5c      	ldr	r3, [pc, #368]	@ (10043e28 <SystemInit+0x184>)
10043cb6:	691b      	ldr	r3, [r3, #16]
10043cb8:	2b00      	cmp	r3, #0
10043cba:	d107      	bne.n	10043ccc <SystemInit+0x28>
10043cbc:	4b5a      	ldr	r3, [pc, #360]	@ (10043e28 <SystemInit+0x184>)
10043cbe:	6b9b      	ldr	r3, [r3, #56]	@ 0x38
10043cc0:	2b00      	cmp	r3, #0
10043cc2:	d103      	bne.n	10043ccc <SystemInit+0x28>
10043cc4:	4b58      	ldr	r3, [pc, #352]	@ (10043e28 <SystemInit+0x184>)
10043cc6:	6c9b      	ldr	r3, [r3, #72]	@ 0x48
10043cc8:	2b00      	cmp	r3, #0
10043cca:	d006      	beq.n	10043cda <SystemInit+0x36>
  {
    RAM_VR.WakeupFromSleepFlag = 1; /* A wakeup from power save occurred */
10043ccc:	4b57      	ldr	r3, [pc, #348]	@ (10043e2c <SystemInit+0x188>)
10043cce:	2201      	movs	r2, #1
10043cd0:	609a      	str	r2, [r3, #8]
    CPUcontextRestore();            /* Restore the context */
10043cd2:	f000 f909 	bl	10043ee8 <CPUcontextRestore>
    /* if the context restore worked properly, we should never return here */
    while(1)
    {
      NVIC_SystemReset();
10043cd6:	f7ff ffd3 	bl	10043c80 <__NVIC_SystemReset>

  /* Configure the Vector Table location */
#if defined(USER_VECT_TAB_ADDRESS)
  SCB->VTOR = VECT_TAB_BASE_ADDRESS | VECT_TAB_OFFSET; /* Vector Table Relocation */
#else
  SCB->VTOR = (uint32_t) (__vector_table);
10043cda:	4b55      	ldr	r3, [pc, #340]	@ (10043e30 <SystemInit+0x18c>)
10043cdc:	4a55      	ldr	r2, [pc, #340]	@ (10043e34 <SystemInit+0x190>)
10043cde:	609a      	str	r2, [r3, #8]
#endif /* USER_VECT_TAB_ADDRESS */

  /* Store in RAM the AppBase information */
  RAM_VR.AppBase = (uint32_t) SCB->VTOR;
10043ce0:	4b53      	ldr	r3, [pc, #332]	@ (10043e30 <SystemInit+0x18c>)
10043ce2:	689a      	ldr	r2, [r3, #8]
10043ce4:	4b51      	ldr	r3, [pc, #324]	@ (10043e2c <SystemInit+0x188>)
10043ce6:	611a      	str	r2, [r3, #16]

  /* Enable all the RAM banks in retention during power save */
  SET_BIT(PWR->CR2, PWR_CR2_RAMRET1);
10043ce8:	4b4f      	ldr	r3, [pc, #316]	@ (10043e28 <SystemInit+0x184>)
10043cea:	685a      	ldr	r2, [r3, #4]
10043cec:	4b4e      	ldr	r3, [pc, #312]	@ (10043e28 <SystemInit+0x184>)
10043cee:	2120      	movs	r1, #32
10043cf0:	430a      	orrs	r2, r1
10043cf2:	605a      	str	r2, [r3, #4]

  /* Disable the GPIO retention in power save configuration */
  CLEAR_BIT(PWR->CR2, PWR_CR2_GPIORET);
10043cf4:	4b4c      	ldr	r3, [pc, #304]	@ (10043e28 <SystemInit+0x184>)
10043cf6:	685a      	ldr	r2, [r3, #4]
10043cf8:	4b4b      	ldr	r3, [pc, #300]	@ (10043e28 <SystemInit+0x184>)
10043cfa:	494f      	ldr	r1, [pc, #316]	@ (10043e38 <SystemInit+0x194>)
10043cfc:	400a      	ands	r2, r1
10043cfe:	605a      	str	r2, [r3, #4]

  /* SMPS setup */
  if ((CFG_HW_SMPS == SMPS_ON) || (CFG_HW_SMPS == SMPS_STATIC_BOF) || (CFG_HW_SMPS == SMPS_DYNAMIC_BOF))
  {
    while(READ_BIT(PWR->SR2, PWR_SR2_SMPSRDY) != PWR_SR2_SMPSRDY); // Wait until SMPS is ready
10043d00:	46c0      	nop			@ (mov r8, r8)
10043d02:	4b49      	ldr	r3, [pc, #292]	@ (10043e28 <SystemInit+0x184>)
10043d04:	695b      	ldr	r3, [r3, #20]
10043d06:	2204      	movs	r2, #4
10043d08:	4013      	ands	r3, r2
10043d0a:	2b04      	cmp	r3, #4
10043d0c:	d1f9      	bne.n	10043d02 <SystemInit+0x5e>
    MODIFY_REG(PWR->CR5, PWR_CR5_SMPSBOMSEL, (CFG_HW_SMPS_BOM<<PWR_CR5_SMPSBOMSEL_Pos)); // Configure the SMPS BOM
10043d0e:	4b46      	ldr	r3, [pc, #280]	@ (10043e28 <SystemInit+0x184>)
10043d10:	69db      	ldr	r3, [r3, #28]
10043d12:	2230      	movs	r2, #48	@ 0x30
10043d14:	4393      	bics	r3, r2
10043d16:	001a      	movs	r2, r3
10043d18:	4b43      	ldr	r3, [pc, #268]	@ (10043e28 <SystemInit+0x184>)
10043d1a:	2120      	movs	r1, #32
10043d1c:	430a      	orrs	r2, r1
10043d1e:	61da      	str	r2, [r3, #28]
  }
  if ((CFG_HW_SMPS == SMPS_ON) || (CFG_HW_SMPS == SMPS_OFF))
  {
    MODIFY_REG(PWR->CR5, PWR_CR5_NOSMPS, (CFG_HW_SMPS<<PWR_CR5_NOSMPS_Pos)); // SMPS ON/OFF Configuration
10043d20:	4b41      	ldr	r3, [pc, #260]	@ (10043e28 <SystemInit+0x184>)
10043d22:	69da      	ldr	r2, [r3, #28]
10043d24:	4b40      	ldr	r3, [pc, #256]	@ (10043e28 <SystemInit+0x184>)
10043d26:	4945      	ldr	r1, [pc, #276]	@ (10043e3c <SystemInit+0x198>)
10043d28:	400a      	ands	r2, r1
10043d2a:	61da      	str	r2, [r3, #28]
    /* The SMPS output voltage level and SMPS BOF tuning are set to 1.4V by default */
    SET_BIT(PWR->CR5, PWR_CR5_NOSMPS_BOF);
    CLEAR_BIT(PWR->CR5, PWR_CR5_SMPS_BOF_STATIC);
    SET_BIT(PWR->CR5, PWR_CR5_SMPS_BOF_DYN);
  }
  MODIFY_REG(PWR->CR5, PWR_CR5_SMPSLPOPEN, (CFG_HW_SMPS_LOW_POWER<<PWR_CR5_SMPSLPOPEN_Pos)); // SMPS configuration during power save
10043d2c:	4b3e      	ldr	r3, [pc, #248]	@ (10043e28 <SystemInit+0x184>)
10043d2e:	69da      	ldr	r2, [r3, #28]
10043d30:	4b3d      	ldr	r3, [pc, #244]	@ (10043e28 <SystemInit+0x184>)
10043d32:	2180      	movs	r1, #128	@ 0x80
10043d34:	0049      	lsls	r1, r1, #1
10043d36:	430a      	orrs	r2, r1
10043d38:	61da      	str	r2, [r3, #28]

  /* If Trimming values from engineering in flash locations are not present load default values */
  if (*(volatile uint32_t*)VALIDITY_LOCATION != VALIDITY_TAG)
10043d3a:	4b41      	ldr	r3, [pc, #260]	@ (10043e40 <SystemInit+0x19c>)
10043d3c:	681b      	ldr	r3, [r3, #0]
10043d3e:	4a41      	ldr	r2, [pc, #260]	@ (10043e44 <SystemInit+0x1a0>)
10043d40:	4293      	cmp	r3, r2
10043d42:	d055      	beq.n	10043df0 <SystemInit+0x14c>
  {
    hsiCalib       = 0x21;
10043d44:	2321      	movs	r3, #33	@ 0x21
10043d46:	617b      	str	r3, [r7, #20]
    lsiBw          = 8;
10043d48:	2308      	movs	r3, #8
10043d4a:	613b      	str	r3, [r7, #16]
    mainRegulator  = 0x03;
10043d4c:	2303      	movs	r3, #3
10043d4e:	60fb      	str	r3, [r7, #12]
    smpsOutVoltage = 0x03;
10043d50:	2303      	movs	r3, #3
10043d52:	60bb      	str	r3, [r7, #8]

    /* Set HSI Calibration Trimming value */
    MODIFY_REG(RCC->CSSWCR, RCC_CSSWCR_HSITRIMSW, hsiCalib << RCC_CSSWCR_HSITRIMSW_Pos);
10043d54:	4b33      	ldr	r3, [pc, #204]	@ (10043e24 <SystemInit+0x180>)
10043d56:	68db      	ldr	r3, [r3, #12]
10043d58:	4a3b      	ldr	r2, [pc, #236]	@ (10043e48 <SystemInit+0x1a4>)
10043d5a:	4013      	ands	r3, r2
10043d5c:	0019      	movs	r1, r3
10043d5e:	697b      	ldr	r3, [r7, #20]
10043d60:	061a      	lsls	r2, r3, #24
10043d62:	4b30      	ldr	r3, [pc, #192]	@ (10043e24 <SystemInit+0x180>)
10043d64:	430a      	orrs	r2, r1
10043d66:	60da      	str	r2, [r3, #12]
    SET_BIT(RCC->CSSWCR, RCC_CSSWCR_HSISWTRIMEN);
10043d68:	4b2e      	ldr	r3, [pc, #184]	@ (10043e24 <SystemInit+0x180>)
10043d6a:	68da      	ldr	r2, [r3, #12]
10043d6c:	4b2d      	ldr	r3, [pc, #180]	@ (10043e24 <SystemInit+0x180>)
10043d6e:	2180      	movs	r1, #128	@ 0x80
10043d70:	0409      	lsls	r1, r1, #16
10043d72:	430a      	orrs	r2, r1
10043d74:	60da      	str	r2, [r3, #12]

    /* Low speed internal RC trimming value set by software */
    MODIFY_REG(RCC->CSSWCR, RCC_CSSWCR_LSISWBW, lsiBw << RCC_CSSWCR_LSISWBW_Pos);
10043d76:	4b2b      	ldr	r3, [pc, #172]	@ (10043e24 <SystemInit+0x180>)
10043d78:	68db      	ldr	r3, [r3, #12]
10043d7a:	221e      	movs	r2, #30
10043d7c:	4393      	bics	r3, r2
10043d7e:	0019      	movs	r1, r3
10043d80:	693b      	ldr	r3, [r7, #16]
10043d82:	005a      	lsls	r2, r3, #1
10043d84:	4b27      	ldr	r3, [pc, #156]	@ (10043e24 <SystemInit+0x180>)
10043d86:	430a      	orrs	r2, r1
10043d88:	60da      	str	r2, [r3, #12]
    SET_BIT(RCC->CSSWCR, RCC_CSSWCR_LSISWTRIMEN);
10043d8a:	4b26      	ldr	r3, [pc, #152]	@ (10043e24 <SystemInit+0x180>)
10043d8c:	68da      	ldr	r2, [r3, #12]
10043d8e:	4b25      	ldr	r3, [pc, #148]	@ (10043e24 <SystemInit+0x180>)
10043d90:	2101      	movs	r1, #1
10043d92:	430a      	orrs	r2, r1
10043d94:	60da      	str	r2, [r3, #12]

    /* Set Main Regulator voltage Trimming value */
    MODIFY_REG(PWR->ENGTRIM, PWR_ENGTRIM_TRIM_MR, ((mainRegulator << PWR_ENGTRIM_TRIM_MR_Pos) & PWR_ENGTRIM_TRIM_MR));
10043d96:	4a24      	ldr	r2, [pc, #144]	@ (10043e28 <SystemInit+0x184>)
10043d98:	2394      	movs	r3, #148	@ 0x94
10043d9a:	58d3      	ldr	r3, [r2, r3]
10043d9c:	4a2b      	ldr	r2, [pc, #172]	@ (10043e4c <SystemInit+0x1a8>)
10043d9e:	401a      	ands	r2, r3
10043da0:	68fb      	ldr	r3, [r7, #12]
10043da2:	0199      	lsls	r1, r3, #6
10043da4:	23f0      	movs	r3, #240	@ 0xf0
10043da6:	009b      	lsls	r3, r3, #2
10043da8:	400b      	ands	r3, r1
10043daa:	491f      	ldr	r1, [pc, #124]	@ (10043e28 <SystemInit+0x184>)
10043dac:	4313      	orrs	r3, r2
10043dae:	2294      	movs	r2, #148	@ 0x94
10043db0:	508b      	str	r3, [r1, r2]
    SET_BIT(PWR->ENGTRIM, PWR_ENGTRIM_TRIMMREN);
10043db2:	4a1d      	ldr	r2, [pc, #116]	@ (10043e28 <SystemInit+0x184>)
10043db4:	2394      	movs	r3, #148	@ 0x94
10043db6:	58d3      	ldr	r3, [r2, r3]
10043db8:	491b      	ldr	r1, [pc, #108]	@ (10043e28 <SystemInit+0x184>)
10043dba:	2220      	movs	r2, #32
10043dbc:	4313      	orrs	r3, r2
10043dbe:	2294      	movs	r2, #148	@ 0x94
10043dc0:	508b      	str	r3, [r1, r2]

    /* Set SMPS output voltage Trimming value */
    MODIFY_REG(PWR->ENGTRIM, PWR_ENGTRIM_SMPS_TRIM, ((smpsOutVoltage << PWR_ENGTRIM_SMPS_TRIM_Pos) & PWR_ENGTRIM_SMPS_TRIM));
10043dc2:	4a19      	ldr	r2, [pc, #100]	@ (10043e28 <SystemInit+0x184>)
10043dc4:	2394      	movs	r3, #148	@ 0x94
10043dc6:	58d3      	ldr	r3, [r2, r3]
10043dc8:	4a21      	ldr	r2, [pc, #132]	@ (10043e50 <SystemInit+0x1ac>)
10043dca:	401a      	ands	r2, r3
10043dcc:	68bb      	ldr	r3, [r7, #8]
10043dce:	02d9      	lsls	r1, r3, #11
10043dd0:	23e0      	movs	r3, #224	@ 0xe0
10043dd2:	019b      	lsls	r3, r3, #6
10043dd4:	400b      	ands	r3, r1
10043dd6:	4914      	ldr	r1, [pc, #80]	@ (10043e28 <SystemInit+0x184>)
10043dd8:	4313      	orrs	r3, r2
10043dda:	2294      	movs	r2, #148	@ 0x94
10043ddc:	508b      	str	r3, [r1, r2]
    SET_BIT(PWR->ENGTRIM, PWR_ENGTRIM_SMPSTRIMEN);
10043dde:	4a12      	ldr	r2, [pc, #72]	@ (10043e28 <SystemInit+0x184>)
10043de0:	2394      	movs	r3, #148	@ 0x94
10043de2:	58d3      	ldr	r3, [r2, r3]
10043de4:	4910      	ldr	r1, [pc, #64]	@ (10043e28 <SystemInit+0x184>)
10043de6:	2280      	movs	r2, #128	@ 0x80
10043de8:	00d2      	lsls	r2, r2, #3
10043dea:	4313      	orrs	r3, r2
10043dec:	2294      	movs	r2, #148	@ 0x94
10043dee:	508b      	str	r3, [r1, r2]
  }

  /* Set all the interrupt with low priprity */
  for (i=0; i<32; i++)
10043df0:	1dfb      	adds	r3, r7, #7
10043df2:	2200      	movs	r2, #0
10043df4:	701a      	strb	r2, [r3, #0]
10043df6:	e00b      	b.n	10043e10 <SystemInit+0x16c>
  {
    NVIC_SetPriority((IRQn_Type)i, IRQ_LOW_PRIORITY);
10043df8:	1dfb      	adds	r3, r7, #7
10043dfa:	781b      	ldrb	r3, [r3, #0]
10043dfc:	b25b      	sxtb	r3, r3
10043dfe:	2103      	movs	r1, #3
10043e00:	0018      	movs	r0, r3
10043e02:	f7ff fecf 	bl	10043ba4 <__NVIC_SetPriority>
  for (i=0; i<32; i++)
10043e06:	1dfb      	adds	r3, r7, #7
10043e08:	781a      	ldrb	r2, [r3, #0]
10043e0a:	1dfb      	adds	r3, r7, #7
10043e0c:	3201      	adds	r2, #1
10043e0e:	701a      	strb	r2, [r3, #0]
10043e10:	1dfb      	adds	r3, r7, #7
10043e12:	781b      	ldrb	r3, [r3, #0]
10043e14:	2b1f      	cmp	r3, #31
10043e16:	d9ef      	bls.n	10043df8 <SystemInit+0x154>
  __ASM volatile ("cpsie i" : : : "memory");
10043e18:	b662      	cpsie	i
}
10043e1a:	46c0      	nop			@ (mov r8, r8)
  }

  /* Enable all the irqs */
  __enable_irq();
}
10043e1c:	46c0      	nop			@ (mov r8, r8)
10043e1e:	46bd      	mov	sp, r7
10043e20:	b006      	add	sp, #24
10043e22:	bd80      	pop	{r7, pc}
10043e24:	48400000 	.word	0x48400000
10043e28:	48500000 	.word	0x48500000
10043e2c:	20000004 	.word	0x20000004
10043e30:	e000ed00 	.word	0xe000ed00
10043e34:	10040000 	.word	0x10040000
10043e38:	fffffeff 	.word	0xfffffeff
10043e3c:	fffffbff 	.word	0xfffffbff
10043e40:	10001ef8 	.word	0x10001ef8
10043e44:	fcbceccc 	.word	0xfcbceccc
10043e48:	c0ffffff 	.word	0xc0ffffff
10043e4c:	fffffc3f 	.word	0xfffffc3f
10043e50:	ffffc7ff 	.word	0xffffc7ff

10043e54 <SystemCoreClockUpdate>:
  *
  * @param  None
  * @retval None
  */
void SystemCoreClockUpdate(void)
{
10043e54:	b580      	push	{r7, lr}
10043e56:	b082      	sub	sp, #8
10043e58:	af00      	add	r7, sp, #0
  uint8_t directHSE_enabled;
  uint8_t divPrescaler;

  /* Get SYSCLK source HSE or HSI+PLL64MHz */
  directHSE_enabled = (RCC->CFGR & RCC_CFGR_HSESEL) >> RCC_CFGR_HSESEL_Pos;
10043e5a:	4b1e      	ldr	r3, [pc, #120]	@ (10043ed4 <SystemCoreClockUpdate+0x80>)
10043e5c:	689b      	ldr	r3, [r3, #8]
10043e5e:	085b      	lsrs	r3, r3, #1
10043e60:	b2da      	uxtb	r2, r3
10043e62:	1dfb      	adds	r3, r7, #7
10043e64:	2101      	movs	r1, #1
10043e66:	400a      	ands	r2, r1
10043e68:	701a      	strb	r2, [r3, #0]

  /* Get the clock divider */
  divPrescaler = (RCC->CFGR & RCC_CFGR_CLKSYSDIV_STATUS) >> RCC_CFGR_CLKSYSDIV_STATUS_Pos;
10043e6a:	4b1a      	ldr	r3, [pc, #104]	@ (10043ed4 <SystemCoreClockUpdate+0x80>)
10043e6c:	689b      	ldr	r3, [r3, #8]
10043e6e:	0a1b      	lsrs	r3, r3, #8
10043e70:	b2da      	uxtb	r2, r3
10043e72:	1dbb      	adds	r3, r7, #6
10043e74:	2107      	movs	r1, #7
10043e76:	400a      	ands	r2, r1
10043e78:	701a      	strb	r2, [r3, #0]

  if (directHSE_enabled)
10043e7a:	1dfb      	adds	r3, r7, #7
10043e7c:	781b      	ldrb	r3, [r3, #0]
10043e7e:	2b00      	cmp	r3, #0
10043e80:	d01d      	beq.n	10043ebe <SystemCoreClockUpdate+0x6a>
  {
    switch(divPrescaler)
10043e82:	1dbb      	adds	r3, r7, #6
10043e84:	781b      	ldrb	r3, [r3, #0]
10043e86:	2b00      	cmp	r3, #0
10043e88:	d002      	beq.n	10043e90 <SystemCoreClockUpdate+0x3c>
10043e8a:	2b01      	cmp	r3, #1
10043e8c:	d004      	beq.n	10043e98 <SystemCoreClockUpdate+0x44>
10043e8e:	e007      	b.n	10043ea0 <SystemCoreClockUpdate+0x4c>
    {
    case 0:
      SystemCoreClock = HSE_VALUE;
10043e90:	4b11      	ldr	r3, [pc, #68]	@ (10043ed8 <SystemCoreClockUpdate+0x84>)
10043e92:	4a12      	ldr	r2, [pc, #72]	@ (10043edc <SystemCoreClockUpdate+0x88>)
10043e94:	601a      	str	r2, [r3, #0]
      break;
10043e96:	e019      	b.n	10043ecc <SystemCoreClockUpdate+0x78>
    case 1:
      SystemCoreClock = HSE_VALUE/2;
10043e98:	4b0f      	ldr	r3, [pc, #60]	@ (10043ed8 <SystemCoreClockUpdate+0x84>)
10043e9a:	4a11      	ldr	r2, [pc, #68]	@ (10043ee0 <SystemCoreClockUpdate+0x8c>)
10043e9c:	601a      	str	r2, [r3, #0]
      break;
10043e9e:	e015      	b.n	10043ecc <SystemCoreClockUpdate+0x78>
    default:
      SystemCoreClock = HSE_VALUE/(3*(1<<(divPrescaler-2)));
10043ea0:	1dbb      	adds	r3, r7, #6
10043ea2:	781b      	ldrb	r3, [r3, #0]
10043ea4:	3b02      	subs	r3, #2
10043ea6:	2203      	movs	r2, #3
10043ea8:	409a      	lsls	r2, r3
10043eaa:	0013      	movs	r3, r2
10043eac:	0019      	movs	r1, r3
10043eae:	480b      	ldr	r0, [pc, #44]	@ (10043edc <SystemCoreClockUpdate+0x88>)
10043eb0:	f7fc f906 	bl	100400c0 <__udivsi3>
10043eb4:	0003      	movs	r3, r0
10043eb6:	001a      	movs	r2, r3
10043eb8:	4b07      	ldr	r3, [pc, #28]	@ (10043ed8 <SystemCoreClockUpdate+0x84>)
10043eba:	601a      	str	r2, [r3, #0]
      break;
10043ebc:	e006      	b.n	10043ecc <SystemCoreClockUpdate+0x78>
    }
  }
  else
  {
    SystemCoreClock = HSI_VALUE >> divPrescaler;
10043ebe:	1dbb      	adds	r3, r7, #6
10043ec0:	781b      	ldrb	r3, [r3, #0]
10043ec2:	4a08      	ldr	r2, [pc, #32]	@ (10043ee4 <SystemCoreClockUpdate+0x90>)
10043ec4:	40da      	lsrs	r2, r3
10043ec6:	4b04      	ldr	r3, [pc, #16]	@ (10043ed8 <SystemCoreClockUpdate+0x84>)
10043ec8:	601a      	str	r2, [r3, #0]
  }
}
10043eca:	46c0      	nop			@ (mov r8, r8)
10043ecc:	46c0      	nop			@ (mov r8, r8)
10043ece:	46bd      	mov	sp, r7
10043ed0:	b002      	add	sp, #8
10043ed2:	bd80      	pop	{r7, pc}
10043ed4:	48400000 	.word	0x48400000
10043ed8:	20000200 	.word	0x20000200
10043edc:	02dc6c00 	.word	0x02dc6c00
10043ee0:	016e3600 	.word	0x016e3600
10043ee4:	03d09000 	.word	0x03d09000

10043ee8 <CPUcontextRestore>:
  *         by popping it from the stack 
  * @param  None
  * @retval None
  */
__WEAK void CPUcontextRestore(void)
{
10043ee8:	b580      	push	{r7, lr}
10043eea:	af00      	add	r7, sp, #0
}
10043eec:	46c0      	nop			@ (mov r8, r8)
10043eee:	46bd      	mov	sp, r7
10043ef0:	bd80      	pop	{r7, pc}

10043ef2 <HAL_Init>:
  *         need to ensure that the SysTick time base is always set to 1 millisecond
  *         to have correct HAL operation.
  * @retval HAL status
  */
HAL_StatusTypeDef HAL_Init(void)
{
10043ef2:	b580      	push	{r7, lr}
10043ef4:	b082      	sub	sp, #8
10043ef6:	af00      	add	r7, sp, #0
  HAL_StatusTypeDef  status = HAL_OK;
10043ef8:	1dfb      	adds	r3, r7, #7
10043efa:	2200      	movs	r2, #0
10043efc:	701a      	strb	r2, [r3, #0]

  /* Use SysTick as time base source and configure 1ms tick (default clock after Reset is MSI) */
  if (HAL_InitTick(TICK_INT_PRIORITY) != HAL_OK)
10043efe:	2003      	movs	r0, #3
10043f00:	f000 f80e 	bl	10043f20 <HAL_InitTick>
10043f04:	1e03      	subs	r3, r0, #0
10043f06:	d003      	beq.n	10043f10 <HAL_Init+0x1e>
  {
    status = HAL_ERROR;
10043f08:	1dfb      	adds	r3, r7, #7
10043f0a:	2201      	movs	r2, #1
10043f0c:	701a      	strb	r2, [r3, #0]
10043f0e:	e001      	b.n	10043f14 <HAL_Init+0x22>
  }
  else
  {
    /* Init the low level hardware */
    HAL_MspInit();
10043f10:	f7ff fcd4 	bl	100438bc <HAL_MspInit>
  }

  /* Return function status */
  return status;
10043f14:	1dfb      	adds	r3, r7, #7
10043f16:	781b      	ldrb	r3, [r3, #0]
}
10043f18:	0018      	movs	r0, r3
10043f1a:	46bd      	mov	sp, r7
10043f1c:	b002      	add	sp, #8
10043f1e:	bd80      	pop	{r7, pc}

10043f20 <HAL_InitTick>:
  *       implementation  in user file.
  * @param TickPriority Tick interrupt priority.
  * @retval HAL status
  */
__weak HAL_StatusTypeDef HAL_InitTick(uint32_t TickPriority)
{
10043f20:	b590      	push	{r4, r7, lr}
10043f22:	b085      	sub	sp, #20
10043f24:	af00      	add	r7, sp, #0
10043f26:	6078      	str	r0, [r7, #4]
  HAL_StatusTypeDef  status = HAL_OK;
10043f28:	230f      	movs	r3, #15
10043f2a:	18fb      	adds	r3, r7, r3
10043f2c:	2200      	movs	r2, #0
10043f2e:	701a      	strb	r2, [r3, #0]

  if (uwTickFreq != 0U)
10043f30:	4b1d      	ldr	r3, [pc, #116]	@ (10043fa8 <HAL_InitTick+0x88>)
10043f32:	781b      	ldrb	r3, [r3, #0]
10043f34:	2b00      	cmp	r3, #0
10043f36:	d02c      	beq.n	10043f92 <HAL_InitTick+0x72>
  {
    /*Configure the SysTick to have interrupt in 1ms time basis*/
    if (HAL_SYSTICK_Config(HAL_RCC_GetSysClockFreq() / (1000U / uwTickFreq)) == 0U)
10043f38:	f002 fec4 	bl	10046cc4 <HAL_RCC_GetSysClockFreq>
10043f3c:	0004      	movs	r4, r0
10043f3e:	4b1a      	ldr	r3, [pc, #104]	@ (10043fa8 <HAL_InitTick+0x88>)
10043f40:	781b      	ldrb	r3, [r3, #0]
10043f42:	0019      	movs	r1, r3
10043f44:	23fa      	movs	r3, #250	@ 0xfa
10043f46:	0098      	lsls	r0, r3, #2
10043f48:	f7fc f8ba 	bl	100400c0 <__udivsi3>
10043f4c:	0003      	movs	r3, r0
10043f4e:	0019      	movs	r1, r3
10043f50:	0020      	movs	r0, r4
10043f52:	f7fc f8b5 	bl	100400c0 <__udivsi3>
10043f56:	0003      	movs	r3, r0
10043f58:	0018      	movs	r0, r3
10043f5a:	f000 fdfe 	bl	10044b5a <HAL_SYSTICK_Config>
10043f5e:	1e03      	subs	r3, r0, #0
10043f60:	d112      	bne.n	10043f88 <HAL_InitTick+0x68>
    {
      /* Configure the SysTick IRQ priority */
      if (TickPriority < (1UL << __NVIC_PRIO_BITS))
10043f62:	687b      	ldr	r3, [r7, #4]
10043f64:	2b03      	cmp	r3, #3
10043f66:	d80a      	bhi.n	10043f7e <HAL_InitTick+0x5e>
      {
        HAL_NVIC_SetPriority(SysTick_IRQn, TickPriority, 0);
10043f68:	6879      	ldr	r1, [r7, #4]
10043f6a:	2301      	movs	r3, #1
10043f6c:	425b      	negs	r3, r3
10043f6e:	2200      	movs	r2, #0
10043f70:	0018      	movs	r0, r3
10043f72:	f000 fddd 	bl	10044b30 <HAL_NVIC_SetPriority>
        uwTickPrio = TickPriority;
10043f76:	4b0d      	ldr	r3, [pc, #52]	@ (10043fac <HAL_InitTick+0x8c>)
10043f78:	687a      	ldr	r2, [r7, #4]
10043f7a:	601a      	str	r2, [r3, #0]
10043f7c:	e00d      	b.n	10043f9a <HAL_InitTick+0x7a>
      }
      else
      {
        status = HAL_ERROR;
10043f7e:	230f      	movs	r3, #15
10043f80:	18fb      	adds	r3, r7, r3
10043f82:	2201      	movs	r2, #1
10043f84:	701a      	strb	r2, [r3, #0]
10043f86:	e008      	b.n	10043f9a <HAL_InitTick+0x7a>
      }
    }
    else
    {
      status = HAL_ERROR;
10043f88:	230f      	movs	r3, #15
10043f8a:	18fb      	adds	r3, r7, r3
10043f8c:	2201      	movs	r2, #1
10043f8e:	701a      	strb	r2, [r3, #0]
10043f90:	e003      	b.n	10043f9a <HAL_InitTick+0x7a>
    }
  }
  else
  {
    status = HAL_ERROR;
10043f92:	230f      	movs	r3, #15
10043f94:	18fb      	adds	r3, r7, r3
10043f96:	2201      	movs	r2, #1
10043f98:	701a      	strb	r2, [r3, #0]
  }

  /* Return function status */
  return status;
10043f9a:	230f      	movs	r3, #15
10043f9c:	18fb      	adds	r3, r7, r3
10043f9e:	781b      	ldrb	r3, [r3, #0]
}
10043fa0:	0018      	movs	r0, r3
10043fa2:	46bd      	mov	sp, r7
10043fa4:	b005      	add	sp, #20
10043fa6:	bd90      	pop	{r4, r7, pc}
10043fa8:	2000020c 	.word	0x2000020c
10043fac:	20000208 	.word	0x20000208

10043fb0 <HAL_IncTick>:
  * @note This function is declared as __weak to be overwritten in case of other
  *      implementations in user file.
  * @retval None
  */
__weak void HAL_IncTick(void)
{
10043fb0:	b580      	push	{r7, lr}
10043fb2:	af00      	add	r7, sp, #0
  uwTick += (uint32_t)uwTickFreq;
10043fb4:	4b05      	ldr	r3, [pc, #20]	@ (10043fcc <HAL_IncTick+0x1c>)
10043fb6:	781b      	ldrb	r3, [r3, #0]
10043fb8:	001a      	movs	r2, r3
10043fba:	4b05      	ldr	r3, [pc, #20]	@ (10043fd0 <HAL_IncTick+0x20>)
10043fbc:	681b      	ldr	r3, [r3, #0]
10043fbe:	18d2      	adds	r2, r2, r3
10043fc0:	4b03      	ldr	r3, [pc, #12]	@ (10043fd0 <HAL_IncTick+0x20>)
10043fc2:	601a      	str	r2, [r3, #0]
}
10043fc4:	46c0      	nop			@ (mov r8, r8)
10043fc6:	46bd      	mov	sp, r7
10043fc8:	bd80      	pop	{r7, pc}
10043fca:	46c0      	nop			@ (mov r8, r8)
10043fcc:	2000020c 	.word	0x2000020c
10043fd0:	200001f4 	.word	0x200001f4

10043fd4 <HAL_GetTick>:
  * @note This function is declared as __weak to be overwritten in case of other
  *       implementations in user file.
  * @retval tick value
  */
__weak uint32_t HAL_GetTick(void)
{
10043fd4:	b580      	push	{r7, lr}
10043fd6:	af00      	add	r7, sp, #0
  return uwTick;
10043fd8:	4b02      	ldr	r3, [pc, #8]	@ (10043fe4 <HAL_GetTick+0x10>)
10043fda:	681b      	ldr	r3, [r3, #0]
}
10043fdc:	0018      	movs	r0, r3
10043fde:	46bd      	mov	sp, r7
10043fe0:	bd80      	pop	{r7, pc}
10043fe2:	46c0      	nop			@ (mov r8, r8)
10043fe4:	200001f4 	.word	0x200001f4

10043fe8 <HAL_GetTickPrio>:
/**
  * @brief This function returns a tick priority.
  * @retval tick priority
  */
uint32_t HAL_GetTickPrio(void)
{
10043fe8:	b580      	push	{r7, lr}
10043fea:	af00      	add	r7, sp, #0
  return uwTickPrio;
10043fec:	4b02      	ldr	r3, [pc, #8]	@ (10043ff8 <HAL_GetTickPrio+0x10>)
10043fee:	681b      	ldr	r3, [r3, #0]
}
10043ff0:	0018      	movs	r0, r3
10043ff2:	46bd      	mov	sp, r7
10043ff4:	bd80      	pop	{r7, pc}
10043ff6:	46c0      	nop			@ (mov r8, r8)
10043ff8:	20000208 	.word	0x20000208

10043ffc <HAL_Delay>:
  *       implementations in user file.
  * @param Delay  specifies the delay time length, in milliseconds.
  * @retval None
  */
__weak void HAL_Delay(uint32_t Delay)
{
10043ffc:	b580      	push	{r7, lr}
10043ffe:	b084      	sub	sp, #16
10044000:	af00      	add	r7, sp, #0
10044002:	6078      	str	r0, [r7, #4]
  uint32_t tickstart = HAL_GetTick();
10044004:	f7ff ffe6 	bl	10043fd4 <HAL_GetTick>
10044008:	0003      	movs	r3, r0
1004400a:	60bb      	str	r3, [r7, #8]
  uint32_t wait = Delay;
1004400c:	687b      	ldr	r3, [r7, #4]
1004400e:	60fb      	str	r3, [r7, #12]

  /* Add a freq to guarantee minimum wait */
  if (wait < HAL_MAX_DELAY)
10044010:	68fb      	ldr	r3, [r7, #12]
10044012:	3301      	adds	r3, #1
10044014:	d005      	beq.n	10044022 <HAL_Delay+0x26>
  {
    wait += (uint32_t)(uwTickFreq);
10044016:	4b0a      	ldr	r3, [pc, #40]	@ (10044040 <HAL_Delay+0x44>)
10044018:	781b      	ldrb	r3, [r3, #0]
1004401a:	001a      	movs	r2, r3
1004401c:	68fb      	ldr	r3, [r7, #12]
1004401e:	189b      	adds	r3, r3, r2
10044020:	60fb      	str	r3, [r7, #12]
  }

  while ((HAL_GetTick() - tickstart) < wait)
10044022:	46c0      	nop			@ (mov r8, r8)
10044024:	f7ff ffd6 	bl	10043fd4 <HAL_GetTick>
10044028:	0002      	movs	r2, r0
1004402a:	68bb      	ldr	r3, [r7, #8]
1004402c:	1ad3      	subs	r3, r2, r3
1004402e:	68fa      	ldr	r2, [r7, #12]
10044030:	429a      	cmp	r2, r3
10044032:	d8f7      	bhi.n	10044024 <HAL_Delay+0x28>
  {
  }
}
10044034:	46c0      	nop			@ (mov r8, r8)
10044036:	46c0      	nop			@ (mov r8, r8)
10044038:	46bd      	mov	sp, r7
1004403a:	b004      	add	sp, #16
1004403c:	bd80      	pop	{r7, pc}
1004403e:	46c0      	nop			@ (mov r8, r8)
10044040:	2000020c 	.word	0x2000020c

10044044 <LL_ADC_SetInputSamplingMode>:
  *         @arg @ref LL_ADC_SAMPLING_AT_START
  *         @arg @ref LL_ADC_SAMPLING_AT_END
  * @retval None
  */
__STATIC_INLINE void LL_ADC_SetInputSamplingMode(ADC_TypeDef *ADCx, uint32_t SamplingMode)
{
10044044:	b580      	push	{r7, lr}
10044046:	b082      	sub	sp, #8
10044048:	af00      	add	r7, sp, #0
1004404a:	6078      	str	r0, [r7, #4]
1004404c:	6039      	str	r1, [r7, #0]
  MODIFY_REG(ADCx->CONF, ADC_CONF_ADC_CONT_1V2, SamplingMode);
1004404e:	687b      	ldr	r3, [r7, #4]
10044050:	685b      	ldr	r3, [r3, #4]
10044052:	4a05      	ldr	r2, [pc, #20]	@ (10044068 <LL_ADC_SetInputSamplingMode+0x24>)
10044054:	401a      	ands	r2, r3
10044056:	683b      	ldr	r3, [r7, #0]
10044058:	431a      	orrs	r2, r3
1004405a:	687b      	ldr	r3, [r7, #4]
1004405c:	605a      	str	r2, [r3, #4]
}
1004405e:	46c0      	nop			@ (mov r8, r8)
10044060:	46bd      	mov	sp, r7
10044062:	b002      	add	sp, #8
10044064:	bd80      	pop	{r7, pc}
10044066:	46c0      	nop			@ (mov r8, r8)
10044068:	fff7ffff 	.word	0xfff7ffff

1004406c <LL_ADC_InvertOutputDiffModeEnable>:
  * @rmtoll CONF     BIT_INVERT_DIFF     LL_ADC_InvertOutputDiffModeEnable
  * @param  ADCx ADC instance
  * @retval None
  */
__STATIC_INLINE void LL_ADC_InvertOutputDiffModeEnable(ADC_TypeDef *ADCx)
{
1004406c:	b580      	push	{r7, lr}
1004406e:	b082      	sub	sp, #8
10044070:	af00      	add	r7, sp, #0
10044072:	6078      	str	r0, [r7, #4]
  SET_BIT(ADCx->CONF, ADC_CONF_BIT_INVERT_DIFF);
10044074:	687b      	ldr	r3, [r7, #4]
10044076:	685b      	ldr	r3, [r3, #4]
10044078:	2280      	movs	r2, #128	@ 0x80
1004407a:	02d2      	lsls	r2, r2, #11
1004407c:	431a      	orrs	r2, r3
1004407e:	687b      	ldr	r3, [r7, #4]
10044080:	605a      	str	r2, [r3, #4]
}
10044082:	46c0      	nop			@ (mov r8, r8)
10044084:	46bd      	mov	sp, r7
10044086:	b002      	add	sp, #8
10044088:	bd80      	pop	{r7, pc}
	...

1004408c <LL_ADC_InvertOutputDiffModeDisable>:
  * @rmtoll CONF     BIT_INVERT_DIFF     LL_ADC_InvertOutputDiffModeDisable
  * @param  ADCx ADC instance
  * @retval None
  */
__STATIC_INLINE void LL_ADC_InvertOutputDiffModeDisable(ADC_TypeDef *ADCx)
{
1004408c:	b580      	push	{r7, lr}
1004408e:	b082      	sub	sp, #8
10044090:	af00      	add	r7, sp, #0
10044092:	6078      	str	r0, [r7, #4]
  CLEAR_BIT(ADCx->CONF, ADC_CONF_BIT_INVERT_DIFF);
10044094:	687b      	ldr	r3, [r7, #4]
10044096:	685b      	ldr	r3, [r3, #4]
10044098:	4a03      	ldr	r2, [pc, #12]	@ (100440a8 <LL_ADC_InvertOutputDiffModeDisable+0x1c>)
1004409a:	401a      	ands	r2, r3
1004409c:	687b      	ldr	r3, [r7, #4]
1004409e:	605a      	str	r2, [r3, #4]
}
100440a0:	46c0      	nop			@ (mov r8, r8)
100440a2:	46bd      	mov	sp, r7
100440a4:	b002      	add	sp, #8
100440a6:	bd80      	pop	{r7, pc}
100440a8:	fffbffff 	.word	0xfffbffff

100440ac <LL_ADC_InvertOutputSingleNegModeEnable>:
  * @rmtoll CONF     BIT_INVERT_SN     LL_ADC_InvertOutputSingleNegModeEnable
  * @param  ADCx ADC instance
  * @retval None
  */
__STATIC_INLINE void LL_ADC_InvertOutputSingleNegModeEnable(ADC_TypeDef *ADCx)
{
100440ac:	b580      	push	{r7, lr}
100440ae:	b082      	sub	sp, #8
100440b0:	af00      	add	r7, sp, #0
100440b2:	6078      	str	r0, [r7, #4]
  SET_BIT(ADCx->CONF, ADC_CONF_BIT_INVERT_SN);
100440b4:	687b      	ldr	r3, [r7, #4]
100440b6:	685b      	ldr	r3, [r3, #4]
100440b8:	2280      	movs	r2, #128	@ 0x80
100440ba:	0292      	lsls	r2, r2, #10
100440bc:	431a      	orrs	r2, r3
100440be:	687b      	ldr	r3, [r7, #4]
100440c0:	605a      	str	r2, [r3, #4]
}
100440c2:	46c0      	nop			@ (mov r8, r8)
100440c4:	46bd      	mov	sp, r7
100440c6:	b002      	add	sp, #8
100440c8:	bd80      	pop	{r7, pc}
	...

100440cc <LL_ADC_InvertOutputSingleNegModeDisable>:
  * @rmtoll CONF     BIT_INVERT_SN     LL_ADC_InvertOutputSingleNegModeDisable
  * @param  ADCx ADC instance
  * @retval None
  */
__STATIC_INLINE void LL_ADC_InvertOutputSingleNegModeDisable(ADC_TypeDef *ADCx)
{
100440cc:	b580      	push	{r7, lr}
100440ce:	b082      	sub	sp, #8
100440d0:	af00      	add	r7, sp, #0
100440d2:	6078      	str	r0, [r7, #4]
  CLEAR_BIT(ADCx->CONF, ADC_CONF_BIT_INVERT_SN);
100440d4:	687b      	ldr	r3, [r7, #4]
100440d6:	685b      	ldr	r3, [r3, #4]
100440d8:	4a03      	ldr	r2, [pc, #12]	@ (100440e8 <LL_ADC_InvertOutputSingleNegModeDisable+0x1c>)
100440da:	401a      	ands	r2, r3
100440dc:	687b      	ldr	r3, [r7, #4]
100440de:	605a      	str	r2, [r3, #4]
}
100440e0:	46c0      	nop			@ (mov r8, r8)
100440e2:	46bd      	mov	sp, r7
100440e4:	b002      	add	sp, #8
100440e6:	bd80      	pop	{r7, pc}
100440e8:	fffdffff 	.word	0xfffdffff

100440ec <LL_ADC_SetOverrunDS>:
  *         @arg @ref LL_ADC_NEW_DATA_IS_LOST
  *         @arg @ref LL_ADC_NEW_DATA_IS_KEPT
  * @retval None
  */
__STATIC_INLINE void LL_ADC_SetOverrunDS(ADC_TypeDef *ADCx, uint32_t Overrun)
{
100440ec:	b580      	push	{r7, lr}
100440ee:	b082      	sub	sp, #8
100440f0:	af00      	add	r7, sp, #0
100440f2:	6078      	str	r0, [r7, #4]
100440f4:	6039      	str	r1, [r7, #0]
  MODIFY_REG(ADCx->CONF, ADC_CONF_OVR_DS_CFG, Overrun);
100440f6:	687b      	ldr	r3, [r7, #4]
100440f8:	685b      	ldr	r3, [r3, #4]
100440fa:	4a05      	ldr	r2, [pc, #20]	@ (10044110 <LL_ADC_SetOverrunDS+0x24>)
100440fc:	401a      	ands	r2, r3
100440fe:	683b      	ldr	r3, [r7, #0]
10044100:	431a      	orrs	r2, r3
10044102:	687b      	ldr	r3, [r7, #4]
10044104:	605a      	str	r2, [r3, #4]
}
10044106:	46c0      	nop			@ (mov r8, r8)
10044108:	46bd      	mov	sp, r7
1004410a:	b002      	add	sp, #8
1004410c:	bd80      	pop	{r7, pc}
1004410e:	46c0      	nop			@ (mov r8, r8)
10044110:	ffff7fff 	.word	0xffff7fff

10044114 <LL_ADC_SetSampleRate>:
  *         @arg @ref LL_ADC_SAMPLE_RATE_136 (1)
  *         @arg @ref LL_ADC_SAMPLE_RATE_140 (1)
  * @retval None
  */
__STATIC_INLINE void LL_ADC_SetSampleRate(ADC_TypeDef *ADCx, uint32_t SampleRate)
{
10044114:	b580      	push	{r7, lr}
10044116:	b082      	sub	sp, #8
10044118:	af00      	add	r7, sp, #0
1004411a:	6078      	str	r0, [r7, #4]
1004411c:	6039      	str	r1, [r7, #0]
  MODIFY_REG(ADCx->CONF, ADC_CONF_SAMPLE_RATE | ADC_CONF_SAMPLE_RATE_MSB, SampleRate);
1004411e:	687b      	ldr	r3, [r7, #4]
10044120:	685b      	ldr	r3, [r3, #4]
10044122:	4a05      	ldr	r2, [pc, #20]	@ (10044138 <LL_ADC_SetSampleRate+0x24>)
10044124:	401a      	ands	r2, r3
10044126:	683b      	ldr	r3, [r7, #0]
10044128:	431a      	orrs	r2, r3
1004412a:	687b      	ldr	r3, [r7, #4]
1004412c:	605a      	str	r2, [r3, #4]
}
1004412e:	46c0      	nop			@ (mov r8, r8)
10044130:	46bd      	mov	sp, r7
10044132:	b002      	add	sp, #8
10044134:	bd80      	pop	{r7, pc}
10044136:	46c0      	nop			@ (mov r8, r8)
10044138:	ff1fe7ff 	.word	0xff1fe7ff

1004413c <LL_ADC_SetSequenceLength>:
  * @param  ADCx ADC instance
  * @param  SequenceLength This parameter must be a number between Min_Data = 1 and Max_Data = 16.
  * @retval None
  */
__STATIC_INLINE void LL_ADC_SetSequenceLength(ADC_TypeDef *ADCx, uint32_t SequenceLength)
{
1004413c:	b580      	push	{r7, lr}
1004413e:	b082      	sub	sp, #8
10044140:	af00      	add	r7, sp, #0
10044142:	6078      	str	r0, [r7, #4]
10044144:	6039      	str	r1, [r7, #0]
  MODIFY_REG(ADCx->CONF, ADC_CONF_SEQ_LEN, (SequenceLength - 1UL) << ADC_CONF_SEQ_LEN_Pos);
10044146:	687b      	ldr	r3, [r7, #4]
10044148:	685b      	ldr	r3, [r3, #4]
1004414a:	223c      	movs	r2, #60	@ 0x3c
1004414c:	4393      	bics	r3, r2
1004414e:	001a      	movs	r2, r3
10044150:	683b      	ldr	r3, [r7, #0]
10044152:	3b01      	subs	r3, #1
10044154:	009b      	lsls	r3, r3, #2
10044156:	431a      	orrs	r2, r3
10044158:	687b      	ldr	r3, [r7, #4]
1004415a:	605a      	str	r2, [r3, #4]
}
1004415c:	46c0      	nop			@ (mov r8, r8)
1004415e:	46bd      	mov	sp, r7
10044160:	b002      	add	sp, #8
10044162:	bd80      	pop	{r7, pc}

10044164 <LL_ADC_ContinuousModeEnable>:
  * @rmtoll CONF     CONT     LL_ADC_ContinuousModeEnable
  * @param  ADCx ADC instance
  * @retval None
  */
__STATIC_INLINE void LL_ADC_ContinuousModeEnable(ADC_TypeDef *ADCx)
{
10044164:	b580      	push	{r7, lr}
10044166:	b082      	sub	sp, #8
10044168:	af00      	add	r7, sp, #0
1004416a:	6078      	str	r0, [r7, #4]
  SET_BIT(ADCx->CONF, ADC_CONF_CONT);
1004416c:	687b      	ldr	r3, [r7, #4]
1004416e:	685b      	ldr	r3, [r3, #4]
10044170:	2201      	movs	r2, #1
10044172:	431a      	orrs	r2, r3
10044174:	687b      	ldr	r3, [r7, #4]
10044176:	605a      	str	r2, [r3, #4]
}
10044178:	46c0      	nop			@ (mov r8, r8)
1004417a:	46bd      	mov	sp, r7
1004417c:	b002      	add	sp, #8
1004417e:	bd80      	pop	{r7, pc}

10044180 <LL_ADC_ContinuousModeDisable>:
  * @rmtoll CONF     CONT     LL_ADC_ContinuousModeDisable
  * @param  ADCx ADC instance
  * @retval None
  */
__STATIC_INLINE void LL_ADC_ContinuousModeDisable(ADC_TypeDef *ADCx)
{
10044180:	b580      	push	{r7, lr}
10044182:	b082      	sub	sp, #8
10044184:	af00      	add	r7, sp, #0
10044186:	6078      	str	r0, [r7, #4]
  CLEAR_BIT(ADCx->CONF, ADC_CONF_CONT);
10044188:	687b      	ldr	r3, [r7, #4]
1004418a:	685b      	ldr	r3, [r3, #4]
1004418c:	2201      	movs	r2, #1
1004418e:	4393      	bics	r3, r2
10044190:	001a      	movs	r2, r3
10044192:	687b      	ldr	r3, [r7, #4]
10044194:	605a      	str	r2, [r3, #4]
}
10044196:	46c0      	nop			@ (mov r8, r8)
10044198:	46bd      	mov	sp, r7
1004419a:	b002      	add	sp, #8
1004419c:	bd80      	pop	{r7, pc}

1004419e <LL_ADC_StopConversion>:
  * @rmtoll CTRL     STOP_OP_MODE     LL_ADC_StopConversion
  * @param  ADCx ADC instance
  * @retval None
  */
__STATIC_INLINE void LL_ADC_StopConversion(ADC_TypeDef *ADCx)
{
1004419e:	b580      	push	{r7, lr}
100441a0:	b082      	sub	sp, #8
100441a2:	af00      	add	r7, sp, #0
100441a4:	6078      	str	r0, [r7, #4]
  SET_BIT(ADCx->CTRL, ADC_CTRL_STOP_OP_MODE);
100441a6:	687b      	ldr	r3, [r7, #4]
100441a8:	689b      	ldr	r3, [r3, #8]
100441aa:	2204      	movs	r2, #4
100441ac:	431a      	orrs	r2, r3
100441ae:	687b      	ldr	r3, [r7, #4]
100441b0:	609a      	str	r2, [r3, #8]
}
100441b2:	46c0      	nop			@ (mov r8, r8)
100441b4:	46bd      	mov	sp, r7
100441b6:	b002      	add	sp, #8
100441b8:	bd80      	pop	{r7, pc}

100441ba <LL_ADC_StartConversion>:
  * @rmtoll CTRL     START_CONV     LL_ADC_StartConversion
  * @param  ADCx ADC instance
  * @retval None
  */
__STATIC_INLINE void LL_ADC_StartConversion(ADC_TypeDef *ADCx)
{
100441ba:	b580      	push	{r7, lr}
100441bc:	b082      	sub	sp, #8
100441be:	af00      	add	r7, sp, #0
100441c0:	6078      	str	r0, [r7, #4]
  SET_BIT(ADCx->CTRL, ADC_CTRL_START_CONV);
100441c2:	687b      	ldr	r3, [r7, #4]
100441c4:	689b      	ldr	r3, [r3, #8]
100441c6:	2202      	movs	r2, #2
100441c8:	431a      	orrs	r2, r3
100441ca:	687b      	ldr	r3, [r7, #4]
100441cc:	609a      	str	r2, [r3, #8]
}
100441ce:	46c0      	nop			@ (mov r8, r8)
100441d0:	46bd      	mov	sp, r7
100441d2:	b002      	add	sp, #8
100441d4:	bd80      	pop	{r7, pc}

100441d6 <LL_ADC_IsConversionOngoing>:
  * @rmtoll CTRL     ADC_ON_OFF     LL_ADC_IsConversionOngoing
  * @param  ADCx ADC instance
  * @retval 0: ADC conversion is not ongoing, 1: ADC conversion is ongoing.
  */
__STATIC_INLINE uint32_t LL_ADC_IsConversionOngoing(const ADC_TypeDef *ADCx)
{
100441d6:	b580      	push	{r7, lr}
100441d8:	b082      	sub	sp, #8
100441da:	af00      	add	r7, sp, #0
100441dc:	6078      	str	r0, [r7, #4]
  return ((READ_BIT(ADCx->CTRL, ADC_CTRL_ADC_ON_OFF) == (ADC_CTRL_ADC_ON_OFF)) ? 1UL : 0UL);
100441de:	687b      	ldr	r3, [r7, #4]
100441e0:	689b      	ldr	r3, [r3, #8]
100441e2:	2201      	movs	r2, #1
100441e4:	4013      	ands	r3, r2
100441e6:	2b01      	cmp	r3, #1
100441e8:	d101      	bne.n	100441ee <LL_ADC_IsConversionOngoing+0x18>
100441ea:	2301      	movs	r3, #1
100441ec:	e000      	b.n	100441f0 <LL_ADC_IsConversionOngoing+0x1a>
100441ee:	2300      	movs	r3, #0
}
100441f0:	0018      	movs	r0, r3
100441f2:	46bd      	mov	sp, r7
100441f4:	b002      	add	sp, #8
100441f6:	bd80      	pop	{r7, pc}

100441f8 <LL_ADC_Enable>:
  * @rmtoll CTRL     ADC_ON_OFF     LL_ADC_Enable
  * @param  ADCx ADC instance
  * @retval None
  */
__STATIC_INLINE void LL_ADC_Enable(ADC_TypeDef *ADCx)
{
100441f8:	b580      	push	{r7, lr}
100441fa:	b082      	sub	sp, #8
100441fc:	af00      	add	r7, sp, #0
100441fe:	6078      	str	r0, [r7, #4]
  SET_BIT(ADCx->CTRL, ADC_CTRL_ADC_ON_OFF);
10044200:	687b      	ldr	r3, [r7, #4]
10044202:	689b      	ldr	r3, [r3, #8]
10044204:	2201      	movs	r2, #1
10044206:	431a      	orrs	r2, r3
10044208:	687b      	ldr	r3, [r7, #4]
1004420a:	609a      	str	r2, [r3, #8]
}
1004420c:	46c0      	nop			@ (mov r8, r8)
1004420e:	46bd      	mov	sp, r7
10044210:	b002      	add	sp, #8
10044212:	bd80      	pop	{r7, pc}

10044214 <LL_ADC_Disable>:
  * @rmtoll CTRL     ADC_ON_OFF     LL_ADC_Disable
  * @param  ADCx ADC instance
  * @retval None
  */
__STATIC_INLINE void LL_ADC_Disable(ADC_TypeDef *ADCx)
{
10044214:	b580      	push	{r7, lr}
10044216:	b082      	sub	sp, #8
10044218:	af00      	add	r7, sp, #0
1004421a:	6078      	str	r0, [r7, #4]
  CLEAR_BIT(ADCx->CTRL, ADC_CTRL_ADC_ON_OFF);
1004421c:	687b      	ldr	r3, [r7, #4]
1004421e:	689b      	ldr	r3, [r3, #8]
10044220:	2201      	movs	r2, #1
10044222:	4393      	bics	r3, r2
10044224:	001a      	movs	r2, r3
10044226:	687b      	ldr	r3, [r7, #4]
10044228:	609a      	str	r2, [r3, #8]
}
1004422a:	46c0      	nop			@ (mov r8, r8)
1004422c:	46bd      	mov	sp, r7
1004422e:	b002      	add	sp, #8
10044230:	bd80      	pop	{r7, pc}

10044232 <LL_ADC_IsEnabled>:
  * @rmtoll CTRL     ADC_ON_OFF     LL_ADC_IsEnabled
  * @param  ADCx ADC instance
  * @retval 0: ADC is off, 1: ADC is on.
  */
__STATIC_INLINE uint32_t LL_ADC_IsEnabled(const ADC_TypeDef *ADCx)
{
10044232:	b580      	push	{r7, lr}
10044234:	b082      	sub	sp, #8
10044236:	af00      	add	r7, sp, #0
10044238:	6078      	str	r0, [r7, #4]
  return ((READ_BIT(ADCx->CTRL, ADC_CTRL_ADC_ON_OFF) == (ADC_CTRL_ADC_ON_OFF)) ? 1UL : 0UL);
1004423a:	687b      	ldr	r3, [r7, #4]
1004423c:	689b      	ldr	r3, [r3, #8]
1004423e:	2201      	movs	r2, #1
10044240:	4013      	ands	r3, r2
10044242:	2b01      	cmp	r3, #1
10044244:	d101      	bne.n	1004424a <LL_ADC_IsEnabled+0x18>
10044246:	2301      	movs	r3, #1
10044248:	e000      	b.n	1004424c <LL_ADC_IsEnabled+0x1a>
1004424a:	2300      	movs	r3, #0
}
1004424c:	0018      	movs	r0, r3
1004424e:	46bd      	mov	sp, r7
10044250:	b002      	add	sp, #8
10044252:	bd80      	pop	{r7, pc}

10044254 <LL_ADC_SetChannelVoltageRange>:
  *         @arg @ref LL_ADC_VIN_RANGE_2V4
  *         @arg @ref LL_ADC_VIN_RANGE_3V6
  * @retval None
  */
__STATIC_INLINE void LL_ADC_SetChannelVoltageRange(ADC_TypeDef *ADCx, uint32_t Channel, uint32_t Range)
{
10044254:	b580      	push	{r7, lr}
10044256:	b084      	sub	sp, #16
10044258:	af00      	add	r7, sp, #0
1004425a:	60f8      	str	r0, [r7, #12]
1004425c:	60b9      	str	r1, [r7, #8]
1004425e:	607a      	str	r2, [r7, #4]
  MODIFY_REG(ADCx->SWITCH, (ADC_SWITCH_SE_VIN_0 << ADC_CHANNEL_SWITCH_POS_LUT[Channel]),
10044260:	68fb      	ldr	r3, [r7, #12]
10044262:	695b      	ldr	r3, [r3, #20]
10044264:	490b      	ldr	r1, [pc, #44]	@ (10044294 <LL_ADC_SetChannelVoltageRange+0x40>)
10044266:	68ba      	ldr	r2, [r7, #8]
10044268:	188a      	adds	r2, r1, r2
1004426a:	7812      	ldrb	r2, [r2, #0]
1004426c:	0011      	movs	r1, r2
1004426e:	2203      	movs	r2, #3
10044270:	408a      	lsls	r2, r1
10044272:	43d2      	mvns	r2, r2
10044274:	401a      	ands	r2, r3
10044276:	4907      	ldr	r1, [pc, #28]	@ (10044294 <LL_ADC_SetChannelVoltageRange+0x40>)
10044278:	68bb      	ldr	r3, [r7, #8]
1004427a:	18cb      	adds	r3, r1, r3
1004427c:	781b      	ldrb	r3, [r3, #0]
1004427e:	0019      	movs	r1, r3
10044280:	687b      	ldr	r3, [r7, #4]
10044282:	408b      	lsls	r3, r1
10044284:	431a      	orrs	r2, r3
10044286:	68fb      	ldr	r3, [r7, #12]
10044288:	615a      	str	r2, [r3, #20]
             (Range << ADC_CHANNEL_SWITCH_POS_LUT[Channel]));
}
1004428a:	46c0      	nop			@ (mov r8, r8)
1004428c:	46bd      	mov	sp, r7
1004428e:	b004      	add	sp, #16
10044290:	bd80      	pop	{r7, pc}
10044292:	46c0      	nop			@ (mov r8, r8)
10044294:	10049614 	.word	0x10049614

10044298 <LL_ADC_ConfigureDSDataOutput>:
  *         @arg @ref LL_ADC_DS_RATIO_64
  *         @arg @ref LL_ADC_DS_RATIO_128
  * @retval None
  */
__STATIC_INLINE void LL_ADC_ConfigureDSDataOutput(ADC_TypeDef *ADCx, uint32_t Width, uint32_t Ratio)
{
10044298:	b580      	push	{r7, lr}
1004429a:	b084      	sub	sp, #16
1004429c:	af00      	add	r7, sp, #0
1004429e:	60f8      	str	r0, [r7, #12]
100442a0:	60b9      	str	r1, [r7, #8]
100442a2:	607a      	str	r2, [r7, #4]
  MODIFY_REG(ADCx->DS_CONF, (ADC_DS_CONF_DS_WIDTH | ADC_DS_CONF_DS_RATIO),
100442a4:	68fb      	ldr	r3, [r7, #12]
100442a6:	69db      	ldr	r3, [r3, #28]
100442a8:	223f      	movs	r2, #63	@ 0x3f
100442aa:	4393      	bics	r3, r2
100442ac:	001a      	movs	r2, r3
100442ae:	68bb      	ldr	r3, [r7, #8]
100442b0:	00d9      	lsls	r1, r3, #3
100442b2:	687b      	ldr	r3, [r7, #4]
100442b4:	430b      	orrs	r3, r1
100442b6:	431a      	orrs	r2, r3
100442b8:	68fb      	ldr	r3, [r7, #12]
100442ba:	61da      	str	r2, [r3, #28]
             ((Width << ADC_DS_CONF_DS_WIDTH_Pos) | Ratio));
}
100442bc:	46c0      	nop			@ (mov r8, r8)
100442be:	46bd      	mov	sp, r7
100442c0:	b004      	add	sp, #16
100442c2:	bd80      	pop	{r7, pc}

100442c4 <LL_ADC_SetSequencerRanks>:
  *         @arg @ref LL_ADC_CHANNEL_VBAT
  *         @arg @ref LL_ADC_CHANNEL_TEMPSENSOR
  * @retval None
  */
__STATIC_INLINE void LL_ADC_SetSequencerRanks(ADC_TypeDef *ADCx, uint32_t Rank, uint32_t Channel)
{
100442c4:	b580      	push	{r7, lr}
100442c6:	b086      	sub	sp, #24
100442c8:	af00      	add	r7, sp, #0
100442ca:	60f8      	str	r0, [r7, #12]
100442cc:	60b9      	str	r1, [r7, #8]
100442ce:	607a      	str	r2, [r7, #4]
  /* Set bits with content of parameter "Channel" with bits position          */
  /* in register and register position depending on parameter "Rank".         */
  /* Parameters "Rank" and "Channel" are used with masks because containing   */
  /* other bits reserved for other purpose.                                   */
  __IO uint32_t *preg = __ADC_PTR_REG_OFFSET(ADCx->SEQ_1,
100442d0:	68fb      	ldr	r3, [r7, #12]
100442d2:	3320      	adds	r3, #32
100442d4:	0019      	movs	r1, r3
100442d6:	68bb      	ldr	r3, [r7, #8]
100442d8:	0a1b      	lsrs	r3, r3, #8
100442da:	009b      	lsls	r3, r3, #2
100442dc:	2204      	movs	r2, #4
100442de:	4013      	ands	r3, r2
100442e0:	18cb      	adds	r3, r1, r3
100442e2:	617b      	str	r3, [r7, #20]
                                             ((Rank & ADC_SEQ_X_REGOFFSET_MASK) >> ADC_SEQ_X_REGOFFSET_POS));

  MODIFY_REG(*preg,
100442e4:	697b      	ldr	r3, [r7, #20]
100442e6:	681b      	ldr	r3, [r3, #0]
100442e8:	68ba      	ldr	r2, [r7, #8]
100442ea:	21ff      	movs	r1, #255	@ 0xff
100442ec:	400a      	ands	r2, r1
100442ee:	210f      	movs	r1, #15
100442f0:	4091      	lsls	r1, r2
100442f2:	000a      	movs	r2, r1
100442f4:	43d2      	mvns	r2, r2
100442f6:	401a      	ands	r2, r3
100442f8:	68bb      	ldr	r3, [r7, #8]
100442fa:	21ff      	movs	r1, #255	@ 0xff
100442fc:	400b      	ands	r3, r1
100442fe:	6879      	ldr	r1, [r7, #4]
10044300:	4099      	lsls	r1, r3
10044302:	000b      	movs	r3, r1
10044304:	431a      	orrs	r2, r3
10044306:	697b      	ldr	r3, [r7, #20]
10044308:	601a      	str	r2, [r3, #0]
             ADC_SEQ_1_SEQ0 << (Rank & ADC_RANK_ID_SEQ_X_MASK),
             (Channel) << (Rank & ADC_RANK_ID_SEQ_X_MASK));
}
1004430a:	46c0      	nop			@ (mov r8, r8)
1004430c:	46bd      	mov	sp, r7
1004430e:	b006      	add	sp, #24
10044310:	bd80      	pop	{r7, pc}

10044312 <LL_ADC_ConfigureCalibPoint>:
  *         @arg @ref LL_ADC_CALIB_POINT_3
  *         @arg @ref LL_ADC_CALIB_POINT_4
  * @retval None
  */
__STATIC_INLINE void LL_ADC_ConfigureCalibPoint(ADC_TypeDef *ADCx, uint32_t Point, uint32_t Gain, uint32_t Offset)
{
10044312:	b580      	push	{r7, lr}
10044314:	b086      	sub	sp, #24
10044316:	af00      	add	r7, sp, #0
10044318:	60f8      	str	r0, [r7, #12]
1004431a:	60b9      	str	r1, [r7, #8]
1004431c:	607a      	str	r2, [r7, #4]
1004431e:	603b      	str	r3, [r7, #0]
  __IO uint32_t *preg = __ADC_PTR_REG_OFFSET(ADCx->COMP_1, Point);
10044320:	68fb      	ldr	r3, [r7, #12]
10044322:	3328      	adds	r3, #40	@ 0x28
10044324:	001a      	movs	r2, r3
10044326:	68bb      	ldr	r3, [r7, #8]
10044328:	009b      	lsls	r3, r3, #2
1004432a:	18d3      	adds	r3, r2, r3
1004432c:	617b      	str	r3, [r7, #20]

  MODIFY_REG(*preg, (ADC_COMP_1_GAIN1 | ADC_COMP_1_OFFSET1),
1004432e:	697b      	ldr	r3, [r7, #20]
10044330:	681b      	ldr	r3, [r3, #0]
10044332:	0d1b      	lsrs	r3, r3, #20
10044334:	051a      	lsls	r2, r3, #20
10044336:	687b      	ldr	r3, [r7, #4]
10044338:	051b      	lsls	r3, r3, #20
1004433a:	0d19      	lsrs	r1, r3, #20
1004433c:	683b      	ldr	r3, [r7, #0]
1004433e:	0318      	lsls	r0, r3, #12
10044340:	23ff      	movs	r3, #255	@ 0xff
10044342:	031b      	lsls	r3, r3, #12
10044344:	4003      	ands	r3, r0
10044346:	430b      	orrs	r3, r1
10044348:	431a      	orrs	r2, r3
1004434a:	697b      	ldr	r3, [r7, #20]
1004434c:	601a      	str	r2, [r3, #0]
             ((Gain & ADC_COMP_1_GAIN1) | ((Offset << ADC_COMP_1_OFFSET1_Pos) & ADC_COMP_1_OFFSET1)));
}
1004434e:	46c0      	nop			@ (mov r8, r8)
10044350:	46bd      	mov	sp, r7
10044352:	b006      	add	sp, #24
10044354:	bd80      	pop	{r7, pc}
	...

10044358 <LL_ADC_SetCalibPointForDiff>:
  *         @arg @ref LL_ADC_VIN_RANGE_2V4
  *         @arg @ref LL_ADC_VIN_RANGE_3V6
  * @retval None
  */
__STATIC_INLINE void LL_ADC_SetCalibPointForDiff(ADC_TypeDef *ADCx, uint32_t Point, uint32_t Range)
{
10044358:	b580      	push	{r7, lr}
1004435a:	b084      	sub	sp, #16
1004435c:	af00      	add	r7, sp, #0
1004435e:	60f8      	str	r0, [r7, #12]
10044360:	60b9      	str	r1, [r7, #8]
10044362:	607a      	str	r2, [r7, #4]
  if (Range == LL_ADC_VIN_RANGE_1V2)
10044364:	687b      	ldr	r3, [r7, #4]
10044366:	2b00      	cmp	r3, #0
10044368:	d10a      	bne.n	10044380 <LL_ADC_SetCalibPointForDiff+0x28>
  {
    MODIFY_REG(ADCx->COMP_SEL, (ADC_COMP_SEL_OFFSET_GAIN2 << ADC_COMP_SEL_OFFSET_GAIN0_Pos),
1004436a:	68fb      	ldr	r3, [r7, #12]
1004436c:	6b9b      	ldr	r3, [r3, #56]	@ 0x38
1004436e:	2230      	movs	r2, #48	@ 0x30
10044370:	4393      	bics	r3, r2
10044372:	001a      	movs	r2, r3
10044374:	68bb      	ldr	r3, [r7, #8]
10044376:	011b      	lsls	r3, r3, #4
10044378:	431a      	orrs	r2, r3
1004437a:	68fb      	ldr	r3, [r7, #12]
1004437c:	639a      	str	r2, [r3, #56]	@ 0x38
  else
  {
    MODIFY_REG(ADCx->COMP_SEL, (ADC_COMP_SEL_OFFSET_GAIN2 << ADC_COMP_SEL_OFFSET_GAIN6_Pos),
               (Point << (ADC_COMP_SEL_OFFSET_GAIN2_Pos + ADC_COMP_SEL_OFFSET_GAIN6_Pos)));
  }
}
1004437e:	e015      	b.n	100443ac <LL_ADC_SetCalibPointForDiff+0x54>
  else if (Range == LL_ADC_VIN_RANGE_2V4)
10044380:	687b      	ldr	r3, [r7, #4]
10044382:	2b02      	cmp	r3, #2
10044384:	d109      	bne.n	1004439a <LL_ADC_SetCalibPointForDiff+0x42>
    MODIFY_REG(ADCx->COMP_SEL, (ADC_COMP_SEL_OFFSET_GAIN2 << ADC_COMP_SEL_OFFSET_GAIN3_Pos),
10044386:	68fb      	ldr	r3, [r7, #12]
10044388:	6b9b      	ldr	r3, [r3, #56]	@ 0x38
1004438a:	4a0a      	ldr	r2, [pc, #40]	@ (100443b4 <LL_ADC_SetCalibPointForDiff+0x5c>)
1004438c:	401a      	ands	r2, r3
1004438e:	68bb      	ldr	r3, [r7, #8]
10044390:	029b      	lsls	r3, r3, #10
10044392:	431a      	orrs	r2, r3
10044394:	68fb      	ldr	r3, [r7, #12]
10044396:	639a      	str	r2, [r3, #56]	@ 0x38
}
10044398:	e008      	b.n	100443ac <LL_ADC_SetCalibPointForDiff+0x54>
    MODIFY_REG(ADCx->COMP_SEL, (ADC_COMP_SEL_OFFSET_GAIN2 << ADC_COMP_SEL_OFFSET_GAIN6_Pos),
1004439a:	68fb      	ldr	r3, [r7, #12]
1004439c:	6b9b      	ldr	r3, [r3, #56]	@ 0x38
1004439e:	4a06      	ldr	r2, [pc, #24]	@ (100443b8 <LL_ADC_SetCalibPointForDiff+0x60>)
100443a0:	401a      	ands	r2, r3
100443a2:	68bb      	ldr	r3, [r7, #8]
100443a4:	041b      	lsls	r3, r3, #16
100443a6:	431a      	orrs	r2, r3
100443a8:	68fb      	ldr	r3, [r7, #12]
100443aa:	639a      	str	r2, [r3, #56]	@ 0x38
}
100443ac:	46c0      	nop			@ (mov r8, r8)
100443ae:	46bd      	mov	sp, r7
100443b0:	b004      	add	sp, #16
100443b2:	bd80      	pop	{r7, pc}
100443b4:	fffff3ff 	.word	0xfffff3ff
100443b8:	fffcffff 	.word	0xfffcffff

100443bc <LL_ADC_SetCalibPointForSinglePos>:
  *         @arg @ref LL_ADC_VIN_RANGE_2V4
  *         @arg @ref LL_ADC_VIN_RANGE_3V6
  * @retval None
  */
__STATIC_INLINE void LL_ADC_SetCalibPointForSinglePos(ADC_TypeDef *ADCx, uint32_t Point, uint32_t Range)
{
100443bc:	b580      	push	{r7, lr}
100443be:	b084      	sub	sp, #16
100443c0:	af00      	add	r7, sp, #0
100443c2:	60f8      	str	r0, [r7, #12]
100443c4:	60b9      	str	r1, [r7, #8]
100443c6:	607a      	str	r2, [r7, #4]
  if (Range == LL_ADC_VIN_RANGE_1V2)
100443c8:	687b      	ldr	r3, [r7, #4]
100443ca:	2b00      	cmp	r3, #0
100443cc:	d10a      	bne.n	100443e4 <LL_ADC_SetCalibPointForSinglePos+0x28>
  {
    MODIFY_REG(ADCx->COMP_SEL, (ADC_COMP_SEL_OFFSET_GAIN1 << ADC_COMP_SEL_OFFSET_GAIN0_Pos),
100443ce:	68fb      	ldr	r3, [r7, #12]
100443d0:	6b9b      	ldr	r3, [r3, #56]	@ 0x38
100443d2:	220c      	movs	r2, #12
100443d4:	4393      	bics	r3, r2
100443d6:	001a      	movs	r2, r3
100443d8:	68bb      	ldr	r3, [r7, #8]
100443da:	009b      	lsls	r3, r3, #2
100443dc:	431a      	orrs	r2, r3
100443de:	68fb      	ldr	r3, [r7, #12]
100443e0:	639a      	str	r2, [r3, #56]	@ 0x38
  else
  {
    MODIFY_REG(ADCx->COMP_SEL, (ADC_COMP_SEL_OFFSET_GAIN1 << ADC_COMP_SEL_OFFSET_GAIN6_Pos),
               (Point << (ADC_COMP_SEL_OFFSET_GAIN1_Pos + ADC_COMP_SEL_OFFSET_GAIN6_Pos)));
  }
}
100443e2:	e015      	b.n	10044410 <LL_ADC_SetCalibPointForSinglePos+0x54>
  else if (Range == LL_ADC_VIN_RANGE_2V4)
100443e4:	687b      	ldr	r3, [r7, #4]
100443e6:	2b02      	cmp	r3, #2
100443e8:	d109      	bne.n	100443fe <LL_ADC_SetCalibPointForSinglePos+0x42>
    MODIFY_REG(ADCx->COMP_SEL, (ADC_COMP_SEL_OFFSET_GAIN1 << ADC_COMP_SEL_OFFSET_GAIN3_Pos),
100443ea:	68fb      	ldr	r3, [r7, #12]
100443ec:	6b9b      	ldr	r3, [r3, #56]	@ 0x38
100443ee:	4a0a      	ldr	r2, [pc, #40]	@ (10044418 <LL_ADC_SetCalibPointForSinglePos+0x5c>)
100443f0:	401a      	ands	r2, r3
100443f2:	68bb      	ldr	r3, [r7, #8]
100443f4:	021b      	lsls	r3, r3, #8
100443f6:	431a      	orrs	r2, r3
100443f8:	68fb      	ldr	r3, [r7, #12]
100443fa:	639a      	str	r2, [r3, #56]	@ 0x38
}
100443fc:	e008      	b.n	10044410 <LL_ADC_SetCalibPointForSinglePos+0x54>
    MODIFY_REG(ADCx->COMP_SEL, (ADC_COMP_SEL_OFFSET_GAIN1 << ADC_COMP_SEL_OFFSET_GAIN6_Pos),
100443fe:	68fb      	ldr	r3, [r7, #12]
10044400:	6b9b      	ldr	r3, [r3, #56]	@ 0x38
10044402:	4a06      	ldr	r2, [pc, #24]	@ (1004441c <LL_ADC_SetCalibPointForSinglePos+0x60>)
10044404:	401a      	ands	r2, r3
10044406:	68bb      	ldr	r3, [r7, #8]
10044408:	039b      	lsls	r3, r3, #14
1004440a:	431a      	orrs	r2, r3
1004440c:	68fb      	ldr	r3, [r7, #12]
1004440e:	639a      	str	r2, [r3, #56]	@ 0x38
}
10044410:	46c0      	nop			@ (mov r8, r8)
10044412:	46bd      	mov	sp, r7
10044414:	b004      	add	sp, #16
10044416:	bd80      	pop	{r7, pc}
10044418:	fffffcff 	.word	0xfffffcff
1004441c:	ffff3fff 	.word	0xffff3fff

10044420 <LL_ADC_SetCalibPointForSingleNeg>:
  *         @arg @ref LL_ADC_VIN_RANGE_2V4
  *         @arg @ref LL_ADC_VIN_RANGE_3V6
  * @retval None
  */
__STATIC_INLINE void LL_ADC_SetCalibPointForSingleNeg(ADC_TypeDef *ADCx, uint32_t Point, uint32_t Range)
{
10044420:	b580      	push	{r7, lr}
10044422:	b084      	sub	sp, #16
10044424:	af00      	add	r7, sp, #0
10044426:	60f8      	str	r0, [r7, #12]
10044428:	60b9      	str	r1, [r7, #8]
1004442a:	607a      	str	r2, [r7, #4]
  if (Range == LL_ADC_VIN_RANGE_1V2)
1004442c:	687b      	ldr	r3, [r7, #4]
1004442e:	2b00      	cmp	r3, #0
10044430:	d109      	bne.n	10044446 <LL_ADC_SetCalibPointForSingleNeg+0x26>
  {
    MODIFY_REG(ADCx->COMP_SEL, (ADC_COMP_SEL_OFFSET_GAIN0 << ADC_COMP_SEL_OFFSET_GAIN0_Pos),
10044432:	68fb      	ldr	r3, [r7, #12]
10044434:	6b9b      	ldr	r3, [r3, #56]	@ 0x38
10044436:	2203      	movs	r2, #3
10044438:	4393      	bics	r3, r2
1004443a:	001a      	movs	r2, r3
1004443c:	68bb      	ldr	r3, [r7, #8]
1004443e:	431a      	orrs	r2, r3
10044440:	68fb      	ldr	r3, [r7, #12]
10044442:	639a      	str	r2, [r3, #56]	@ 0x38
  else
  {
    MODIFY_REG(ADCx->COMP_SEL, (ADC_COMP_SEL_OFFSET_GAIN0 << ADC_COMP_SEL_OFFSET_GAIN6_Pos),
               (Point << (ADC_COMP_SEL_OFFSET_GAIN0_Pos + ADC_COMP_SEL_OFFSET_GAIN6_Pos)));
  }
}
10044444:	e016      	b.n	10044474 <LL_ADC_SetCalibPointForSingleNeg+0x54>
  else if (Range == LL_ADC_VIN_RANGE_2V4)
10044446:	687b      	ldr	r3, [r7, #4]
10044448:	2b02      	cmp	r3, #2
1004444a:	d10a      	bne.n	10044462 <LL_ADC_SetCalibPointForSingleNeg+0x42>
    MODIFY_REG(ADCx->COMP_SEL, (ADC_COMP_SEL_OFFSET_GAIN0 << ADC_COMP_SEL_OFFSET_GAIN3_Pos),
1004444c:	68fb      	ldr	r3, [r7, #12]
1004444e:	6b9b      	ldr	r3, [r3, #56]	@ 0x38
10044450:	22c0      	movs	r2, #192	@ 0xc0
10044452:	4393      	bics	r3, r2
10044454:	001a      	movs	r2, r3
10044456:	68bb      	ldr	r3, [r7, #8]
10044458:	019b      	lsls	r3, r3, #6
1004445a:	431a      	orrs	r2, r3
1004445c:	68fb      	ldr	r3, [r7, #12]
1004445e:	639a      	str	r2, [r3, #56]	@ 0x38
}
10044460:	e008      	b.n	10044474 <LL_ADC_SetCalibPointForSingleNeg+0x54>
    MODIFY_REG(ADCx->COMP_SEL, (ADC_COMP_SEL_OFFSET_GAIN0 << ADC_COMP_SEL_OFFSET_GAIN6_Pos),
10044462:	68fb      	ldr	r3, [r7, #12]
10044464:	6b9b      	ldr	r3, [r3, #56]	@ 0x38
10044466:	4a05      	ldr	r2, [pc, #20]	@ (1004447c <LL_ADC_SetCalibPointForSingleNeg+0x5c>)
10044468:	401a      	ands	r2, r3
1004446a:	68bb      	ldr	r3, [r7, #8]
1004446c:	031b      	lsls	r3, r3, #12
1004446e:	431a      	orrs	r2, r3
10044470:	68fb      	ldr	r3, [r7, #12]
10044472:	639a      	str	r2, [r3, #56]	@ 0x38
}
10044474:	46c0      	nop			@ (mov r8, r8)
10044476:	46bd      	mov	sp, r7
10044478:	b004      	add	sp, #16
1004447a:	bd80      	pop	{r7, pc}
1004447c:	ffffcfff 	.word	0xffffcfff

10044480 <LL_ADC_DSGetOutputData>:
  * @rmtoll DS_DATAOUT       DS_DATA          LL_ADC_DSGetOutputData
  * @param  ADCx ADC instance
  * @retval The output data from DS.
  */
__STATIC_INLINE uint32_t LL_ADC_DSGetOutputData(const ADC_TypeDef *ADCx)
{
10044480:	b580      	push	{r7, lr}
10044482:	b082      	sub	sp, #8
10044484:	af00      	add	r7, sp, #0
10044486:	6078      	str	r0, [r7, #4]
  return (uint32_t)(READ_BIT(ADCx->DS_DATAOUT, ADC_DS_DATAOUT_DS_DATA));
10044488:	687b      	ldr	r3, [r7, #4]
1004448a:	6c5b      	ldr	r3, [r3, #68]	@ 0x44
1004448c:	041b      	lsls	r3, r3, #16
1004448e:	0c1b      	lsrs	r3, r3, #16
}
10044490:	0018      	movs	r0, r3
10044492:	46bd      	mov	sp, r7
10044494:	b002      	add	sp, #8
10044496:	bd80      	pop	{r7, pc}

10044498 <LL_ADC_ClearActiveFlags>:
  *         @arg @ref LL_ADC_IRQ_FLAG_EOS
  *         @arg @ref LL_ADC_IRQ_FLAG_EODS
  * @retval None.
  */
__STATIC_INLINE void LL_ADC_ClearActiveFlags(ADC_TypeDef *ADCx, uint32_t FlagsMask)
{
10044498:	b580      	push	{r7, lr}
1004449a:	b082      	sub	sp, #8
1004449c:	af00      	add	r7, sp, #0
1004449e:	6078      	str	r0, [r7, #4]
100444a0:	6039      	str	r1, [r7, #0]
  WRITE_REG(ADCx->IRQ_STATUS, FlagsMask);
100444a2:	687b      	ldr	r3, [r7, #4]
100444a4:	683a      	ldr	r2, [r7, #0]
100444a6:	64da      	str	r2, [r3, #76]	@ 0x4c
}
100444a8:	46c0      	nop			@ (mov r8, r8)
100444aa:	46bd      	mov	sp, r7
100444ac:	b002      	add	sp, #8
100444ae:	bd80      	pop	{r7, pc}

100444b0 <LL_ADC_IsActiveFlag>:
  *         @arg @ref LL_ADC_IRQ_FLAG_EOS
  *         @arg @ref LL_ADC_IRQ_FLAG_EODS
  * @retval State of bit (1 or 0).
  */
__STATIC_INLINE uint32_t LL_ADC_IsActiveFlag(const ADC_TypeDef *ADCx, uint32_t FlagsMask)
{
100444b0:	b580      	push	{r7, lr}
100444b2:	b082      	sub	sp, #8
100444b4:	af00      	add	r7, sp, #0
100444b6:	6078      	str	r0, [r7, #4]
100444b8:	6039      	str	r1, [r7, #0]
  return ((READ_BIT(ADCx->IRQ_STATUS, FlagsMask) == (FlagsMask)) ? 1UL : 0UL);
100444ba:	687b      	ldr	r3, [r7, #4]
100444bc:	6cdb      	ldr	r3, [r3, #76]	@ 0x4c
100444be:	683a      	ldr	r2, [r7, #0]
100444c0:	4013      	ands	r3, r2
100444c2:	683a      	ldr	r2, [r7, #0]
100444c4:	429a      	cmp	r2, r3
100444c6:	d101      	bne.n	100444cc <LL_ADC_IsActiveFlag+0x1c>
100444c8:	2301      	movs	r3, #1
100444ca:	e000      	b.n	100444ce <LL_ADC_IsActiveFlag+0x1e>
100444cc:	2300      	movs	r3, #0
}
100444ce:	0018      	movs	r0, r3
100444d0:	46bd      	mov	sp, r7
100444d2:	b002      	add	sp, #8
100444d4:	bd80      	pop	{r7, pc}
	...

100444d8 <HAL_ADC_Init>:
  *         "ADC_InitTypeDef".
  * @param hadc ADC handle
  * @retval HAL status
  */
HAL_StatusTypeDef HAL_ADC_Init(ADC_HandleTypeDef *hadc)
{
100444d8:	b580      	push	{r7, lr}
100444da:	b084      	sub	sp, #16
100444dc:	af00      	add	r7, sp, #0
100444de:	6078      	str	r0, [r7, #4]
  HAL_StatusTypeDef tmp_hal_status = HAL_OK;
100444e0:	230f      	movs	r3, #15
100444e2:	18fb      	adds	r3, r7, r3
100444e4:	2200      	movs	r2, #0
100444e6:	701a      	strb	r2, [r3, #0]

  /* Check ADC handle */
  if (hadc == NULL)
100444e8:	687b      	ldr	r3, [r7, #4]
100444ea:	2b00      	cmp	r3, #0
100444ec:	d101      	bne.n	100444f2 <HAL_ADC_Init+0x1a>
  {
    return HAL_ERROR;
100444ee:	2301      	movs	r3, #1
100444f0:	e0a9      	b.n	10044646 <HAL_ADC_Init+0x16e>
  assert_param(IS_ADC_DATARATIO(hadc->Init.DownSamplerConfig.DataRatio));
  assert_param(IS_ADC_NB_CONV(hadc->Init.SequenceLength));

  /* Actions performed only if ADC is coming from state reset:                */
  /* - Initialization of ADC MSP                                              */
  if (hadc->State == HAL_ADC_STATE_RESET)
100444f2:	687b      	ldr	r3, [r7, #4]
100444f4:	6adb      	ldr	r3, [r3, #44]	@ 0x2c
100444f6:	2b00      	cmp	r3, #0
100444f8:	d10a      	bne.n	10044510 <HAL_ADC_Init+0x38>

    /* Init the low level hardware */
    hadc->MspInitCallback(hadc);
#else
    /* Init the low level hardware */
    HAL_ADC_MspInit(hadc);
100444fa:	687b      	ldr	r3, [r7, #4]
100444fc:	0018      	movs	r0, r3
100444fe:	f7ff f9e7 	bl	100438d0 <HAL_ADC_MspInit>
#endif /* USE_HAL_ADC_REGISTER_CALLBACKS */

    /* Set ADC error code to none */
    ADC_CLEAR_ERRORCODE(hadc);
10044502:	687b      	ldr	r3, [r7, #4]
10044504:	2200      	movs	r2, #0
10044506:	631a      	str	r2, [r3, #48]	@ 0x30

    /* Initialize Lock */
    hadc->Lock = HAL_UNLOCKED;
10044508:	687b      	ldr	r3, [r7, #4]
1004450a:	2228      	movs	r2, #40	@ 0x28
1004450c:	2100      	movs	r1, #0
1004450e:	5499      	strb	r1, [r3, r2]


  /* Configuration of ADC parameters if there is no conversion on going       */
  /* (ADC may already be enabled at this point if HAL_ADC_Init() is           */
  /* called to update a parameter on the fly).                                */
  if (((hadc->State & HAL_ADC_STATE_ERROR_INTERNAL) == 0UL) && (LL_ADC_IsConversionOngoing(hadc->Instance) == 0UL))
10044510:	687b      	ldr	r3, [r7, #4]
10044512:	6adb      	ldr	r3, [r3, #44]	@ 0x2c
10044514:	2210      	movs	r2, #16
10044516:	4013      	ands	r3, r2
10044518:	d000      	beq.n	1004451c <HAL_ADC_Init+0x44>
1004451a:	e087      	b.n	1004462c <HAL_ADC_Init+0x154>
1004451c:	687b      	ldr	r3, [r7, #4]
1004451e:	681b      	ldr	r3, [r3, #0]
10044520:	0018      	movs	r0, r3
10044522:	f7ff fe58 	bl	100441d6 <LL_ADC_IsConversionOngoing>
10044526:	1e03      	subs	r3, r0, #0
10044528:	d000      	beq.n	1004452c <HAL_ADC_Init+0x54>
1004452a:	e07f      	b.n	1004462c <HAL_ADC_Init+0x154>
  {
    /* Set ADC state */
    ADC_STATE_CLR_SET(hadc->State,
1004452c:	687b      	ldr	r3, [r7, #4]
1004452e:	6adb      	ldr	r3, [r3, #44]	@ 0x2c
10044530:	4a47      	ldr	r2, [pc, #284]	@ (10044650 <HAL_ADC_Init+0x178>)
10044532:	4013      	ands	r3, r2
10044534:	2202      	movs	r2, #2
10044536:	431a      	orrs	r2, r3
10044538:	687b      	ldr	r3, [r7, #4]
1004453a:	62da      	str	r2, [r3, #44]	@ 0x2c
    /*  - Overrun Mode                             Init.Overrun               */
    /*  - Invert Output Bit Mode                   Init.InvertOutputMode      */
    /*  - Conversion Type                          Init.ConversionType        */

    /* Configure the sample rate */
    LL_ADC_SetSampleRate(hadc->Instance, hadc->Init.SampleRate);
1004453c:	687b      	ldr	r3, [r7, #4]
1004453e:	681a      	ldr	r2, [r3, #0]
10044540:	687b      	ldr	r3, [r7, #4]
10044542:	691b      	ldr	r3, [r3, #16]
10044544:	0019      	movs	r1, r3
10044546:	0010      	movs	r0, r2
10044548:	f7ff fde4 	bl	10044114 <LL_ADC_SetSampleRate>

    /* Configure the input sampling mode */
    LL_ADC_SetInputSamplingMode(hadc->Instance, hadc->Init.SamplingMode);
1004454c:	687b      	ldr	r3, [r7, #4]
1004454e:	681a      	ldr	r2, [r3, #0]
10044550:	687b      	ldr	r3, [r7, #4]
10044552:	68db      	ldr	r3, [r3, #12]
10044554:	0019      	movs	r1, r3
10044556:	0010      	movs	r0, r2
10044558:	f7ff fd74 	bl	10044044 <LL_ADC_SetInputSamplingMode>

    /* Configure the continuous mode */
    if (hadc->Init.ContinuousConvMode == ENABLE)
1004455c:	687b      	ldr	r3, [r7, #4]
1004455e:	791b      	ldrb	r3, [r3, #4]
10044560:	2b01      	cmp	r3, #1
10044562:	d105      	bne.n	10044570 <HAL_ADC_Init+0x98>
    {
      LL_ADC_ContinuousModeEnable(hadc->Instance);
10044564:	687b      	ldr	r3, [r7, #4]
10044566:	681b      	ldr	r3, [r3, #0]
10044568:	0018      	movs	r0, r3
1004456a:	f7ff fdfb 	bl	10044164 <LL_ADC_ContinuousModeEnable>
1004456e:	e004      	b.n	1004457a <HAL_ADC_Init+0xa2>
    }
    else
    {
      LL_ADC_ContinuousModeDisable(hadc->Instance);
10044570:	687b      	ldr	r3, [r7, #4]
10044572:	681b      	ldr	r3, [r3, #0]
10044574:	0018      	movs	r0, r3
10044576:	f7ff fe03 	bl	10044180 <LL_ADC_ContinuousModeDisable>
    }


    /* Configure the overrun mode for the output data */
    LL_ADC_SetOverrunDS(hadc->Instance, hadc->Init.Overrun);
1004457a:	687b      	ldr	r3, [r7, #4]
1004457c:	681a      	ldr	r2, [r3, #0]
1004457e:	687b      	ldr	r3, [r7, #4]
10044580:	6a1b      	ldr	r3, [r3, #32]
10044582:	0019      	movs	r1, r3
10044584:	0010      	movs	r0, r2
10044586:	f7ff fdb1 	bl	100440ec <LL_ADC_SetOverrunDS>

    /* Configure the bit to bit inversion (1' complement) mode */
    if (hadc->Init.InvertOutputMode == ADC_DATA_INVERT_NONE)
1004458a:	687b      	ldr	r3, [r7, #4]
1004458c:	69db      	ldr	r3, [r3, #28]
1004458e:	2b00      	cmp	r3, #0
10044590:	d10a      	bne.n	100445a8 <HAL_ADC_Init+0xd0>
    {
      LL_ADC_InvertOutputDiffModeDisable(hadc->Instance);
10044592:	687b      	ldr	r3, [r7, #4]
10044594:	681b      	ldr	r3, [r3, #0]
10044596:	0018      	movs	r0, r3
10044598:	f7ff fd78 	bl	1004408c <LL_ADC_InvertOutputDiffModeDisable>
      LL_ADC_InvertOutputSingleNegModeDisable(hadc->Instance);
1004459c:	687b      	ldr	r3, [r7, #4]
1004459e:	681b      	ldr	r3, [r3, #0]
100445a0:	0018      	movs	r0, r3
100445a2:	f7ff fd93 	bl	100440cc <LL_ADC_InvertOutputSingleNegModeDisable>
100445a6:	e027      	b.n	100445f8 <HAL_ADC_Init+0x120>
    }
    else if (hadc->Init.InvertOutputMode == ADC_DATA_INVERT_DIFF)
100445a8:	687b      	ldr	r3, [r7, #4]
100445aa:	69db      	ldr	r3, [r3, #28]
100445ac:	2b01      	cmp	r3, #1
100445ae:	d10a      	bne.n	100445c6 <HAL_ADC_Init+0xee>
    {
      LL_ADC_InvertOutputDiffModeEnable(hadc->Instance);
100445b0:	687b      	ldr	r3, [r7, #4]
100445b2:	681b      	ldr	r3, [r3, #0]
100445b4:	0018      	movs	r0, r3
100445b6:	f7ff fd59 	bl	1004406c <LL_ADC_InvertOutputDiffModeEnable>
      LL_ADC_InvertOutputSingleNegModeDisable(hadc->Instance);
100445ba:	687b      	ldr	r3, [r7, #4]
100445bc:	681b      	ldr	r3, [r3, #0]
100445be:	0018      	movs	r0, r3
100445c0:	f7ff fd84 	bl	100440cc <LL_ADC_InvertOutputSingleNegModeDisable>
100445c4:	e018      	b.n	100445f8 <HAL_ADC_Init+0x120>
    }
    else if (hadc->Init.InvertOutputMode == ADC_DATA_INVERT_SING)
100445c6:	687b      	ldr	r3, [r7, #4]
100445c8:	69db      	ldr	r3, [r3, #28]
100445ca:	2b02      	cmp	r3, #2
100445cc:	d10a      	bne.n	100445e4 <HAL_ADC_Init+0x10c>
    {
      LL_ADC_InvertOutputDiffModeDisable(hadc->Instance);
100445ce:	687b      	ldr	r3, [r7, #4]
100445d0:	681b      	ldr	r3, [r3, #0]
100445d2:	0018      	movs	r0, r3
100445d4:	f7ff fd5a 	bl	1004408c <LL_ADC_InvertOutputDiffModeDisable>
      LL_ADC_InvertOutputSingleNegModeEnable(hadc->Instance);
100445d8:	687b      	ldr	r3, [r7, #4]
100445da:	681b      	ldr	r3, [r3, #0]
100445dc:	0018      	movs	r0, r3
100445de:	f7ff fd65 	bl	100440ac <LL_ADC_InvertOutputSingleNegModeEnable>
100445e2:	e009      	b.n	100445f8 <HAL_ADC_Init+0x120>
    }
    else
    {
      LL_ADC_InvertOutputDiffModeEnable(hadc->Instance);
100445e4:	687b      	ldr	r3, [r7, #4]
100445e6:	681b      	ldr	r3, [r3, #0]
100445e8:	0018      	movs	r0, r3
100445ea:	f7ff fd3f 	bl	1004406c <LL_ADC_InvertOutputDiffModeEnable>
      LL_ADC_InvertOutputSingleNegModeEnable(hadc->Instance);
100445ee:	687b      	ldr	r3, [r7, #4]
100445f0:	681b      	ldr	r3, [r3, #0]
100445f2:	0018      	movs	r0, r3
100445f4:	f7ff fd5a 	bl	100440ac <LL_ADC_InvertOutputSingleNegModeEnable>
    }

    LL_ADC_ConfigureDSDataOutput(hadc->Instance, hadc->Init.DownSamplerConfig.DataWidth,
100445f8:	687b      	ldr	r3, [r7, #4]
100445fa:	6818      	ldr	r0, [r3, #0]
100445fc:	687b      	ldr	r3, [r7, #4]
100445fe:	6959      	ldr	r1, [r3, #20]
10044600:	687b      	ldr	r3, [r7, #4]
10044602:	699b      	ldr	r3, [r3, #24]
10044604:	001a      	movs	r2, r3
10044606:	f7ff fe47 	bl	10044298 <LL_ADC_ConfigureDSDataOutput>
                                 hadc->Init.DownSamplerConfig.DataRatio);

    LL_ADC_SetSequenceLength(hadc->Instance, hadc->Init.SequenceLength);
1004460a:	687b      	ldr	r3, [r7, #4]
1004460c:	681a      	ldr	r2, [r3, #0]
1004460e:	687b      	ldr	r3, [r7, #4]
10044610:	689b      	ldr	r3, [r3, #8]
10044612:	0019      	movs	r1, r3
10044614:	0010      	movs	r0, r2
10044616:	f7ff fd91 	bl	1004413c <LL_ADC_SetSequenceLength>


    /* Initialize the ADC state */
    /* Clear HAL_ADC_STATE_BUSY_INTERNAL bit, set HAL_ADC_STATE_READY bit */
    ADC_STATE_CLR_SET(hadc->State, HAL_ADC_STATE_BUSY_INTERNAL, HAL_ADC_STATE_READY);
1004461a:	687b      	ldr	r3, [r7, #4]
1004461c:	6adb      	ldr	r3, [r3, #44]	@ 0x2c
1004461e:	2203      	movs	r2, #3
10044620:	4393      	bics	r3, r2
10044622:	2201      	movs	r2, #1
10044624:	431a      	orrs	r2, r3
10044626:	687b      	ldr	r3, [r7, #4]
10044628:	62da      	str	r2, [r3, #44]	@ 0x2c
1004462a:	e009      	b.n	10044640 <HAL_ADC_Init+0x168>
  }
  else
  {
    /* Update ADC state machine to error */
    SET_BIT(hadc->State, HAL_ADC_STATE_ERROR_INTERNAL);
1004462c:	687b      	ldr	r3, [r7, #4]
1004462e:	6adb      	ldr	r3, [r3, #44]	@ 0x2c
10044630:	2210      	movs	r2, #16
10044632:	431a      	orrs	r2, r3
10044634:	687b      	ldr	r3, [r7, #4]
10044636:	62da      	str	r2, [r3, #44]	@ 0x2c

    tmp_hal_status = HAL_ERROR;
10044638:	230f      	movs	r3, #15
1004463a:	18fb      	adds	r3, r7, r3
1004463c:	2201      	movs	r2, #1
1004463e:	701a      	strb	r2, [r3, #0]
  }

  /* Return function status */
  return tmp_hal_status;
10044640:	230f      	movs	r3, #15
10044642:	18fb      	adds	r3, r7, r3
10044644:	781b      	ldrb	r3, [r3, #0]
}
10044646:	0018      	movs	r0, r3
10044648:	46bd      	mov	sp, r7
1004464a:	b004      	add	sp, #16
1004464c:	bd80      	pop	{r7, pc}
1004464e:	46c0      	nop			@ (mov r8, r8)
10044650:	fffffefd 	.word	0xfffffefd

10044654 <HAL_ADC_Start>:
  * @note   Interruptions enabled in this function: None.
  * @param hadc ADC handle
  * @retval HAL status
  */
HAL_StatusTypeDef HAL_ADC_Start(ADC_HandleTypeDef *hadc)
{
10044654:	b5b0      	push	{r4, r5, r7, lr}
10044656:	b084      	sub	sp, #16
10044658:	af00      	add	r7, sp, #0
1004465a:	6078      	str	r0, [r7, #4]

  /* Check the parameters */
  assert_param(IS_ADC_ALL_INSTANCE(hadc->Instance));

  /* Process locked */
  __HAL_LOCK(hadc);
1004465c:	687b      	ldr	r3, [r7, #4]
1004465e:	2228      	movs	r2, #40	@ 0x28
10044660:	5c9b      	ldrb	r3, [r3, r2]
10044662:	2b01      	cmp	r3, #1
10044664:	d101      	bne.n	1004466a <HAL_ADC_Start+0x16>
10044666:	2302      	movs	r3, #2
10044668:	e02d      	b.n	100446c6 <HAL_ADC_Start+0x72>
1004466a:	687b      	ldr	r3, [r7, #4]
1004466c:	2228      	movs	r2, #40	@ 0x28
1004466e:	2101      	movs	r1, #1
10044670:	5499      	strb	r1, [r3, r2]

  /* Enable the ADC peripheral */
  tmp_hal_status = ADC_Enable(hadc);
10044672:	250f      	movs	r5, #15
10044674:	197c      	adds	r4, r7, r5
10044676:	687b      	ldr	r3, [r7, #4]
10044678:	0018      	movs	r0, r3
1004467a:	f000 f99d 	bl	100449b8 <ADC_Enable>
1004467e:	0003      	movs	r3, r0
10044680:	7023      	strb	r3, [r4, #0]

  /* Start conversion if ADC is effectively enabled */
  if (tmp_hal_status == HAL_OK)
10044682:	197b      	adds	r3, r7, r5
10044684:	781b      	ldrb	r3, [r3, #0]
10044686:	2b00      	cmp	r3, #0
10044688:	d10b      	bne.n	100446a2 <HAL_ADC_Start+0x4e>
  {
    /* Set ADC state                                                        */
    ADC_STATE_CLR_SET(hadc->State,
1004468a:	687b      	ldr	r3, [r7, #4]
1004468c:	6adb      	ldr	r3, [r3, #44]	@ 0x2c
1004468e:	4a10      	ldr	r2, [pc, #64]	@ (100446d0 <HAL_ADC_Start+0x7c>)
10044690:	4013      	ands	r3, r2
10044692:	2280      	movs	r2, #128	@ 0x80
10044694:	0052      	lsls	r2, r2, #1
10044696:	431a      	orrs	r2, r3
10044698:	687b      	ldr	r3, [r7, #4]
1004469a:	62da      	str	r2, [r3, #44]	@ 0x2c
                      HAL_ADC_STATE_READY | HAL_ADC_STATE_DS_EOC | HAL_ADC_STATE_DS_OVR,
                      HAL_ADC_STATE_DS_BUSY);

    /* Reset all ADC error code fields */
    ADC_CLEAR_ERRORCODE(hadc);
1004469c:	687b      	ldr	r3, [r7, #4]
1004469e:	2200      	movs	r2, #0
100446a0:	631a      	str	r2, [r3, #48]	@ 0x30
  }

  /* Clear ADC conversion flag and overrun flag               */
  /* (To ensure of no unknown state from potential previous ADC operations) */
  __HAL_ADC_CLEAR_FLAG(hadc, (ADC_IRQ_FLAG_EOS | ADC_IRQ_FLAG_EODS | ADC_IRQ_FLAG_OVRDS));
100446a2:	687b      	ldr	r3, [r7, #4]
100446a4:	681b      	ldr	r3, [r3, #0]
100446a6:	212a      	movs	r1, #42	@ 0x2a
100446a8:	0018      	movs	r0, r3
100446aa:	f7ff fef5 	bl	10044498 <LL_ADC_ClearActiveFlags>

  /* Process unlocked */
  /* Unlock before starting ADC conversions: in case of potential         */
  /* interruption, to let the process to ADC IRQ Handler.                 */
  __HAL_UNLOCK(hadc);
100446ae:	687b      	ldr	r3, [r7, #4]
100446b0:	2228      	movs	r2, #40	@ 0x28
100446b2:	2100      	movs	r1, #0
100446b4:	5499      	strb	r1, [r3, r2]

  /* Start ADC conversion */
  LL_ADC_StartConversion(hadc->Instance);
100446b6:	687b      	ldr	r3, [r7, #4]
100446b8:	681b      	ldr	r3, [r3, #0]
100446ba:	0018      	movs	r0, r3
100446bc:	f7ff fd7d 	bl	100441ba <LL_ADC_StartConversion>

  /* Return function status */
  return tmp_hal_status;
100446c0:	230f      	movs	r3, #15
100446c2:	18fb      	adds	r3, r7, r3
100446c4:	781b      	ldrb	r3, [r3, #0]
}
100446c6:	0018      	movs	r0, r3
100446c8:	46bd      	mov	sp, r7
100446ca:	b004      	add	sp, #16
100446cc:	bdb0      	pop	{r4, r5, r7, pc}
100446ce:	46c0      	nop			@ (mov r8, r8)
100446d0:	fffff8fe 	.word	0xfffff8fe

100446d4 <HAL_ADC_Stop>:
  * @note:  ADC peripheral disable is forcing stop of potential conversion.
  * @param hadc ADC handle
  * @retval HAL status.
  */
HAL_StatusTypeDef HAL_ADC_Stop(ADC_HandleTypeDef *hadc)
{
100446d4:	b5b0      	push	{r4, r5, r7, lr}
100446d6:	b084      	sub	sp, #16
100446d8:	af00      	add	r7, sp, #0
100446da:	6078      	str	r0, [r7, #4]

  /* Check the parameters */
  assert_param(IS_ADC_ALL_INSTANCE(hadc->Instance));

  /* Process locked */
  __HAL_LOCK(hadc);
100446dc:	687b      	ldr	r3, [r7, #4]
100446de:	2228      	movs	r2, #40	@ 0x28
100446e0:	5c9b      	ldrb	r3, [r3, r2]
100446e2:	2b01      	cmp	r3, #1
100446e4:	d101      	bne.n	100446ea <HAL_ADC_Stop+0x16>
100446e6:	2302      	movs	r3, #2
100446e8:	e029      	b.n	1004473e <HAL_ADC_Stop+0x6a>
100446ea:	687b      	ldr	r3, [r7, #4]
100446ec:	2228      	movs	r2, #40	@ 0x28
100446ee:	2101      	movs	r1, #1
100446f0:	5499      	strb	r1, [r3, r2]

  /* Stop potential conversion on going*/
  tmp_hal_status = ADC_ConversionStop(hadc);
100446f2:	250f      	movs	r5, #15
100446f4:	197c      	adds	r4, r7, r5
100446f6:	687b      	ldr	r3, [r7, #4]
100446f8:	0018      	movs	r0, r3
100446fa:	f000 f945 	bl	10044988 <ADC_ConversionStop>
100446fe:	0003      	movs	r3, r0
10044700:	7023      	strb	r3, [r4, #0]

  /* Disable ADC peripheral if conversions are effectively stopped */
  if (tmp_hal_status == HAL_OK)
10044702:	197b      	adds	r3, r7, r5
10044704:	781b      	ldrb	r3, [r3, #0]
10044706:	2b00      	cmp	r3, #0
10044708:	d112      	bne.n	10044730 <HAL_ADC_Stop+0x5c>
  {
    /* Disable the ADC peripheral */
    tmp_hal_status = ADC_Disable(hadc);
1004470a:	197c      	adds	r4, r7, r5
1004470c:	687b      	ldr	r3, [r7, #4]
1004470e:	0018      	movs	r0, r3
10044710:	f000 f967 	bl	100449e2 <ADC_Disable>
10044714:	0003      	movs	r3, r0
10044716:	7023      	strb	r3, [r4, #0]

    /* Check if ADC is effectively disabled */
    if (tmp_hal_status == HAL_OK)
10044718:	197b      	adds	r3, r7, r5
1004471a:	781b      	ldrb	r3, [r3, #0]
1004471c:	2b00      	cmp	r3, #0
1004471e:	d107      	bne.n	10044730 <HAL_ADC_Stop+0x5c>
    {
      /* Set ADC state */
      ADC_STATE_CLR_SET(hadc->State, HAL_ADC_STATE_DS_BUSY, HAL_ADC_STATE_READY);
10044720:	687b      	ldr	r3, [r7, #4]
10044722:	6adb      	ldr	r3, [r3, #44]	@ 0x2c
10044724:	4a08      	ldr	r2, [pc, #32]	@ (10044748 <HAL_ADC_Stop+0x74>)
10044726:	4013      	ands	r3, r2
10044728:	2201      	movs	r2, #1
1004472a:	431a      	orrs	r2, r3
1004472c:	687b      	ldr	r3, [r7, #4]
1004472e:	62da      	str	r2, [r3, #44]	@ 0x2c
    }
  }

  /* Process unlocked */
  __HAL_UNLOCK(hadc);
10044730:	687b      	ldr	r3, [r7, #4]
10044732:	2228      	movs	r2, #40	@ 0x28
10044734:	2100      	movs	r1, #0
10044736:	5499      	strb	r1, [r3, r2]

  /* Return function status */
  return tmp_hal_status;
10044738:	230f      	movs	r3, #15
1004473a:	18fb      	adds	r3, r7, r3
1004473c:	781b      	ldrb	r3, [r3, #0]
}
1004473e:	0018      	movs	r0, r3
10044740:	46bd      	mov	sp, r7
10044742:	b004      	add	sp, #16
10044744:	bdb0      	pop	{r4, r5, r7, pc}
10044746:	46c0      	nop			@ (mov r8, r8)
10044748:	fffffefe 	.word	0xfffffefe

1004474c <HAL_ADC_PollForConversion>:
  * @param hadc ADC handle
  * @param Timeout Timeout value in millisecond.
  * @retval HAL status
  */
HAL_StatusTypeDef HAL_ADC_PollForConversion(ADC_HandleTypeDef *hadc, uint32_t Timeout)
{
1004474c:	b580      	push	{r7, lr}
1004474e:	b084      	sub	sp, #16
10044750:	af00      	add	r7, sp, #0
10044752:	6078      	str	r0, [r7, #4]
10044754:	6039      	str	r1, [r7, #0]

  /* Check the parameters */
  assert_param(IS_ADC_ALL_INSTANCE(hadc->Instance));

  /* Get tick count */
  tickstart = HAL_GetTick();
10044756:	f7ff fc3d 	bl	10043fd4 <HAL_GetTick>
1004475a:	0003      	movs	r3, r0
1004475c:	60fb      	str	r3, [r7, #12]

  /* Wait until End of unitary conversion or sequence conversions flag is raised */
  while (__HAL_ADC_GET_FLAG(hadc, ADC_IRQ_FLAG_EODS) == 0UL)
1004475e:	e019      	b.n	10044794 <HAL_ADC_PollForConversion+0x48>
  {
    /* Check if timeout is disabled (set to infinite wait) */
    if (Timeout != HAL_MAX_DELAY)
10044760:	683b      	ldr	r3, [r7, #0]
10044762:	3301      	adds	r3, #1
10044764:	d016      	beq.n	10044794 <HAL_ADC_PollForConversion+0x48>
    {
      if (((HAL_GetTick() - tickstart) > Timeout) || (Timeout == 0UL))
10044766:	f7ff fc35 	bl	10043fd4 <HAL_GetTick>
1004476a:	0002      	movs	r2, r0
1004476c:	68fb      	ldr	r3, [r7, #12]
1004476e:	1ad3      	subs	r3, r2, r3
10044770:	683a      	ldr	r2, [r7, #0]
10044772:	429a      	cmp	r2, r3
10044774:	d302      	bcc.n	1004477c <HAL_ADC_PollForConversion+0x30>
10044776:	683b      	ldr	r3, [r7, #0]
10044778:	2b00      	cmp	r3, #0
1004477a:	d10b      	bne.n	10044794 <HAL_ADC_PollForConversion+0x48>
      {
        /* Update ADC state machine to timeout */
        SET_BIT(hadc->State, HAL_ADC_STATE_TIMEOUT);
1004477c:	687b      	ldr	r3, [r7, #4]
1004477e:	6adb      	ldr	r3, [r3, #44]	@ 0x2c
10044780:	2204      	movs	r2, #4
10044782:	431a      	orrs	r2, r3
10044784:	687b      	ldr	r3, [r7, #4]
10044786:	62da      	str	r2, [r3, #44]	@ 0x2c

        /* Process unlocked */
        __HAL_UNLOCK(hadc);
10044788:	687b      	ldr	r3, [r7, #4]
1004478a:	2228      	movs	r2, #40	@ 0x28
1004478c:	2100      	movs	r1, #0
1004478e:	5499      	strb	r1, [r3, r2]

        return HAL_TIMEOUT;
10044790:	2303      	movs	r3, #3
10044792:	e023      	b.n	100447dc <HAL_ADC_PollForConversion+0x90>
  while (__HAL_ADC_GET_FLAG(hadc, ADC_IRQ_FLAG_EODS) == 0UL)
10044794:	687b      	ldr	r3, [r7, #4]
10044796:	681b      	ldr	r3, [r3, #0]
10044798:	2102      	movs	r1, #2
1004479a:	0018      	movs	r0, r3
1004479c:	f7ff fe88 	bl	100444b0 <LL_ADC_IsActiveFlag>
100447a0:	1e03      	subs	r3, r0, #0
100447a2:	d0dd      	beq.n	10044760 <HAL_ADC_PollForConversion+0x14>
      }
    }
  }

  /* Update ADC state machine */
  SET_BIT(hadc->State, HAL_ADC_STATE_DS_EOC);
100447a4:	687b      	ldr	r3, [r7, #4]
100447a6:	6adb      	ldr	r3, [r3, #44]	@ 0x2c
100447a8:	2280      	movs	r2, #128	@ 0x80
100447aa:	0092      	lsls	r2, r2, #2
100447ac:	431a      	orrs	r2, r3
100447ae:	687b      	ldr	r3, [r7, #4]
100447b0:	62da      	str	r2, [r3, #44]	@ 0x2c

  /* Check whether end of sequence is reached */
  if (__HAL_ADC_GET_FLAG(hadc, ADC_IRQ_FLAG_EOS))
100447b2:	687b      	ldr	r3, [r7, #4]
100447b4:	681b      	ldr	r3, [r3, #0]
100447b6:	2108      	movs	r1, #8
100447b8:	0018      	movs	r0, r3
100447ba:	f7ff fe79 	bl	100444b0 <LL_ADC_IsActiveFlag>
100447be:	1e03      	subs	r3, r0, #0
100447c0:	d005      	beq.n	100447ce <HAL_ADC_PollForConversion+0x82>
  {
    /* Set ADC state */
    CLEAR_BIT(hadc->State, HAL_ADC_STATE_DS_BUSY);
100447c2:	687b      	ldr	r3, [r7, #4]
100447c4:	6adb      	ldr	r3, [r3, #44]	@ 0x2c
100447c6:	4a07      	ldr	r2, [pc, #28]	@ (100447e4 <HAL_ADC_PollForConversion+0x98>)
100447c8:	401a      	ands	r2, r3
100447ca:	687b      	ldr	r3, [r7, #4]
100447cc:	62da      	str	r2, [r3, #44]	@ 0x2c
  }

  /* Clear polled flag */
  __HAL_ADC_CLEAR_FLAG(hadc, (ADC_IRQ_FLAG_EODS | ADC_IRQ_FLAG_EOS));
100447ce:	687b      	ldr	r3, [r7, #4]
100447d0:	681b      	ldr	r3, [r3, #0]
100447d2:	210a      	movs	r1, #10
100447d4:	0018      	movs	r0, r3
100447d6:	f7ff fe5f 	bl	10044498 <LL_ADC_ClearActiveFlags>

  /* Return function status */
  return HAL_OK;
100447da:	2300      	movs	r3, #0
}
100447dc:	0018      	movs	r0, r3
100447de:	46bd      	mov	sp, r7
100447e0:	b004      	add	sp, #16
100447e2:	bd80      	pop	{r7, pc}
100447e4:	fffffeff 	.word	0xfffffeff

100447e8 <HAL_ADC_GetValue>:
  *         or @ref __HAL_ADC_CLEAR_FLAG(&hadc, ADC_IRQ_FLAG_EOS).
  * @param hadc ADC handle
  * @retval ADC conversion data
  */
uint32_t HAL_ADC_GetValue(const ADC_HandleTypeDef *hadc)
{
100447e8:	b580      	push	{r7, lr}
100447ea:	b082      	sub	sp, #8
100447ec:	af00      	add	r7, sp, #0
100447ee:	6078      	str	r0, [r7, #4]
  /* Check the parameters */
  assert_param(IS_ADC_ALL_INSTANCE(hadc->Instance));

  /* Return ADC converted value */
  return LL_ADC_DSGetOutputData(hadc->Instance);
100447f0:	687b      	ldr	r3, [r7, #4]
100447f2:	681b      	ldr	r3, [r3, #0]
100447f4:	0018      	movs	r0, r3
100447f6:	f7ff fe43 	bl	10044480 <LL_ADC_DSGetOutputData>
100447fa:	0003      	movs	r3, r0
}
100447fc:	0018      	movs	r0, r3
100447fe:	46bd      	mov	sp, r7
10044800:	b002      	add	sp, #8
10044802:	bd80      	pop	{r7, pc}

10044804 <HAL_ADC_ConfigChannel>:
  * @param sConfigChannel Structure of ADC channel configuration and position in
  *                       ADC conversion sequence.
  * @retval HAL status
  */
HAL_StatusTypeDef HAL_ADC_ConfigChannel(ADC_HandleTypeDef *hadc, const ADC_ChannelConfTypeDef *sConfigChannel)
{
10044804:	b580      	push	{r7, lr}
10044806:	b084      	sub	sp, #16
10044808:	af00      	add	r7, sp, #0
1004480a:	6078      	str	r0, [r7, #4]
1004480c:	6039      	str	r1, [r7, #0]
  HAL_StatusTypeDef tmp_hal_status = HAL_OK;
1004480e:	230f      	movs	r3, #15
10044810:	18fb      	adds	r3, r7, r3
10044812:	2200      	movs	r2, #0
10044814:	701a      	strb	r2, [r3, #0]
  assert_param(IS_ADC_CALIBRATION_POINT(sConfigChannel->CalibrationPoint.Number));
  assert_param(IS_ADC_CALIBRATION_GAIN(sConfigChannel->CalibrationPoint.Gain));
  assert_param(IS_ADC_CALIBRATION_OFFSET(sConfigChannel->CalibrationPoint.Offset));

  /* Process locked */
  __HAL_LOCK(hadc);
10044816:	687b      	ldr	r3, [r7, #4]
10044818:	2228      	movs	r2, #40	@ 0x28
1004481a:	5c9b      	ldrb	r3, [r3, r2]
1004481c:	2b01      	cmp	r3, #1
1004481e:	d101      	bne.n	10044824 <HAL_ADC_ConfigChannel+0x20>
10044820:	2302      	movs	r3, #2
10044822:	e0a4      	b.n	1004496e <HAL_ADC_ConfigChannel+0x16a>
10044824:	687b      	ldr	r3, [r7, #4]
10044826:	2228      	movs	r2, #40	@ 0x28
10044828:	2101      	movs	r1, #1
1004482a:	5499      	strb	r1, [r3, r2]

  if (LL_ADC_IsConversionOngoing(hadc->Instance) == 0UL)
1004482c:	687b      	ldr	r3, [r7, #4]
1004482e:	681b      	ldr	r3, [r3, #0]
10044830:	0018      	movs	r0, r3
10044832:	f7ff fcd0 	bl	100441d6 <LL_ADC_IsConversionOngoing>
10044836:	1e03      	subs	r3, r0, #0
10044838:	d11a      	bne.n	10044870 <HAL_ADC_ConfigChannel+0x6c>
  {
    LL_ADC_SetSequencerRanks(hadc->Instance, sConfigChannel->Rank, sConfigChannel->Channel);
1004483a:	687b      	ldr	r3, [r7, #4]
1004483c:	6818      	ldr	r0, [r3, #0]
1004483e:	683b      	ldr	r3, [r7, #0]
10044840:	6859      	ldr	r1, [r3, #4]
10044842:	683b      	ldr	r3, [r7, #0]
10044844:	681b      	ldr	r3, [r3, #0]
10044846:	001a      	movs	r2, r3
10044848:	f7ff fd3c 	bl	100442c4 <LL_ADC_SetSequencerRanks>
    if ((sConfigChannel->Channel != ADC_CHANNEL_TEMPSENSOR)
1004484c:	683b      	ldr	r3, [r7, #0]
1004484e:	681b      	ldr	r3, [r3, #0]
10044850:	2b0d      	cmp	r3, #13
10044852:	d017      	beq.n	10044884 <HAL_ADC_ConfigChannel+0x80>
        && (sConfigChannel->Channel != ADC_CHANNEL_VBAT))
10044854:	683b      	ldr	r3, [r7, #0]
10044856:	681b      	ldr	r3, [r3, #0]
10044858:	2b0c      	cmp	r3, #12
1004485a:	d013      	beq.n	10044884 <HAL_ADC_ConfigChannel+0x80>
    {
      LL_ADC_SetChannelVoltageRange(hadc->Instance, sConfigChannel->Channel, sConfigChannel->VoltRange);
1004485c:	687b      	ldr	r3, [r7, #4]
1004485e:	6818      	ldr	r0, [r3, #0]
10044860:	683b      	ldr	r3, [r7, #0]
10044862:	6819      	ldr	r1, [r3, #0]
10044864:	683b      	ldr	r3, [r7, #0]
10044866:	689b      	ldr	r3, [r3, #8]
10044868:	001a      	movs	r2, r3
1004486a:	f7ff fcf3 	bl	10044254 <LL_ADC_SetChannelVoltageRange>
1004486e:	e009      	b.n	10044884 <HAL_ADC_ConfigChannel+0x80>
  /* If a conversion is on going no update could be done on                   */
  /* neither of the channel configuration structure parameters.               */
  else
  {
    /* Update ADC state machine to error */
    SET_BIT(hadc->State, HAL_ADC_STATE_ERROR_CONFIG);
10044870:	687b      	ldr	r3, [r7, #4]
10044872:	6adb      	ldr	r3, [r3, #44]	@ 0x2c
10044874:	2220      	movs	r2, #32
10044876:	431a      	orrs	r2, r3
10044878:	687b      	ldr	r3, [r7, #4]
1004487a:	62da      	str	r2, [r3, #44]	@ 0x2c

    tmp_hal_status = HAL_ERROR;
1004487c:	230f      	movs	r3, #15
1004487e:	18fb      	adds	r3, r7, r3
10044880:	2201      	movs	r2, #1
10044882:	701a      	strb	r2, [r3, #0]
  }

  if (sConfigChannel->CalibrationPoint.Number != ADC_CALIB_NONE)
10044884:	683b      	ldr	r3, [r7, #0]
10044886:	68db      	ldr	r3, [r3, #12]
10044888:	2b03      	cmp	r3, #3
1004488a:	d068      	beq.n	1004495e <HAL_ADC_ConfigChannel+0x15a>
  {
    if (sConfigChannel->CalibrationPoint.Gain != 0UL)
1004488c:	683b      	ldr	r3, [r7, #0]
1004488e:	695b      	ldr	r3, [r3, #20]
10044890:	2b00      	cmp	r3, #0
10044892:	d003      	beq.n	1004489c <HAL_ADC_ConfigChannel+0x98>
    {
      tmp_gain = sConfigChannel->CalibrationPoint.Gain;
10044894:	683b      	ldr	r3, [r7, #0]
10044896:	695b      	ldr	r3, [r3, #20]
10044898:	60bb      	str	r3, [r7, #8]
1004489a:	e013      	b.n	100448c4 <HAL_ADC_ConfigChannel+0xc0>
    }
    else if ((sConfigChannel->VoltRange == ADC_VIN_RANGE_1V2)
1004489c:	683b      	ldr	r3, [r7, #0]
1004489e:	689b      	ldr	r3, [r3, #8]
100448a0:	2b00      	cmp	r3, #0
100448a2:	d003      	beq.n	100448ac <HAL_ADC_ConfigChannel+0xa8>
             || (sConfigChannel->Channel == ADC_CHANNEL_TEMPSENSOR))
100448a4:	683b      	ldr	r3, [r7, #0]
100448a6:	681b      	ldr	r3, [r3, #0]
100448a8:	2b0d      	cmp	r3, #13
100448aa:	d102      	bne.n	100448b2 <HAL_ADC_ConfigChannel+0xae>
    {
      /* 1.2V mode: [calibrated gain = 0.96, gain clamped at 1] */
      tmp_gain = 0xFFFUL;
100448ac:	4b32      	ldr	r3, [pc, #200]	@ (10044978 <HAL_ADC_ConfigChannel+0x174>)
100448ae:	60bb      	str	r3, [r7, #8]
100448b0:	e008      	b.n	100448c4 <HAL_ADC_ConfigChannel+0xc0>
    }
    else if (sConfigChannel->VoltRange == ADC_VIN_RANGE_2V4)
100448b2:	683b      	ldr	r3, [r7, #0]
100448b4:	689b      	ldr	r3, [r3, #8]
100448b6:	2b02      	cmp	r3, #2
100448b8:	d102      	bne.n	100448c0 <HAL_ADC_ConfigChannel+0xbc>
    {
      /* 2.4V mode: [calibrated gain = 1/2] */
      tmp_gain = 0x7FFUL;
100448ba:	4b30      	ldr	r3, [pc, #192]	@ (1004497c <HAL_ADC_ConfigChannel+0x178>)
100448bc:	60bb      	str	r3, [r7, #8]
100448be:	e001      	b.n	100448c4 <HAL_ADC_ConfigChannel+0xc0>
    }
    else /* ADC_VIN_RANGE_3V6 */
    {
      /* 3.6V mode: [calibrated gain = 1/3] */
      tmp_gain = 0x555UL;
100448c0:	4b2f      	ldr	r3, [pc, #188]	@ (10044980 <HAL_ADC_ConfigChannel+0x17c>)
100448c2:	60bb      	str	r3, [r7, #8]
    }
    LL_ADC_ConfigureCalibPoint(hadc->Instance, sConfigChannel->CalibrationPoint.Number,
100448c4:	687b      	ldr	r3, [r7, #4]
100448c6:	6818      	ldr	r0, [r3, #0]
100448c8:	683b      	ldr	r3, [r7, #0]
100448ca:	68d9      	ldr	r1, [r3, #12]
                               tmp_gain, sConfigChannel->CalibrationPoint.Offset);
100448cc:	683b      	ldr	r3, [r7, #0]
100448ce:	691b      	ldr	r3, [r3, #16]
    LL_ADC_ConfigureCalibPoint(hadc->Instance, sConfigChannel->CalibrationPoint.Number,
100448d0:	68ba      	ldr	r2, [r7, #8]
100448d2:	f7ff fd1e 	bl	10044312 <LL_ADC_ConfigureCalibPoint>

    switch (sConfigChannel->Channel)
100448d6:	683b      	ldr	r3, [r7, #0]
100448d8:	681b      	ldr	r3, [r3, #0]
100448da:	2b0d      	cmp	r3, #13
100448dc:	d834      	bhi.n	10044948 <HAL_ADC_ConfigChannel+0x144>
100448de:	009a      	lsls	r2, r3, #2
100448e0:	4b28      	ldr	r3, [pc, #160]	@ (10044984 <HAL_ADC_ConfigChannel+0x180>)
100448e2:	18d3      	adds	r3, r2, r3
100448e4:	681b      	ldr	r3, [r3, #0]
100448e6:	469f      	mov	pc, r3
      case ADC_CHANNEL_VINM0:
      case ADC_CHANNEL_VINM1:
      case ADC_CHANNEL_VINM2:
      case ADC_CHANNEL_VINM3:
      {
        LL_ADC_SetCalibPointForSingleNeg(hadc->Instance, sConfigChannel->CalibrationPoint.Number,
100448e8:	687b      	ldr	r3, [r7, #4]
100448ea:	6818      	ldr	r0, [r3, #0]
100448ec:	683b      	ldr	r3, [r7, #0]
100448ee:	68d9      	ldr	r1, [r3, #12]
                                         sConfigChannel->VoltRange);
100448f0:	683b      	ldr	r3, [r7, #0]
100448f2:	689b      	ldr	r3, [r3, #8]
        LL_ADC_SetCalibPointForSingleNeg(hadc->Instance, sConfigChannel->CalibrationPoint.Number,
100448f4:	001a      	movs	r2, r3
100448f6:	f7ff fd93 	bl	10044420 <LL_ADC_SetCalibPointForSingleNeg>
        break;
100448fa:	e031      	b.n	10044960 <HAL_ADC_ConfigChannel+0x15c>
      case ADC_CHANNEL_VINP0:
      case ADC_CHANNEL_VINP1:
      case ADC_CHANNEL_VINP2:
      case ADC_CHANNEL_VINP3:
      {
        LL_ADC_SetCalibPointForSinglePos(hadc->Instance, sConfigChannel->CalibrationPoint.Number,
100448fc:	687b      	ldr	r3, [r7, #4]
100448fe:	6818      	ldr	r0, [r3, #0]
10044900:	683b      	ldr	r3, [r7, #0]
10044902:	68d9      	ldr	r1, [r3, #12]
                                         sConfigChannel->VoltRange);
10044904:	683b      	ldr	r3, [r7, #0]
10044906:	689b      	ldr	r3, [r3, #8]
        LL_ADC_SetCalibPointForSinglePos(hadc->Instance, sConfigChannel->CalibrationPoint.Number,
10044908:	001a      	movs	r2, r3
1004490a:	f7ff fd57 	bl	100443bc <LL_ADC_SetCalibPointForSinglePos>
        break;
1004490e:	e027      	b.n	10044960 <HAL_ADC_ConfigChannel+0x15c>
      case ADC_CHANNEL_VINP0_VINM0:
      case ADC_CHANNEL_VINP1_VINM1:
      case ADC_CHANNEL_VINP2_VINM2:
      case ADC_CHANNEL_VINP3_VINM3:
      {
        LL_ADC_SetCalibPointForDiff(hadc->Instance, sConfigChannel->CalibrationPoint.Number, sConfigChannel->VoltRange);
10044910:	687b      	ldr	r3, [r7, #4]
10044912:	6818      	ldr	r0, [r3, #0]
10044914:	683b      	ldr	r3, [r7, #0]
10044916:	68d9      	ldr	r1, [r3, #12]
10044918:	683b      	ldr	r3, [r7, #0]
1004491a:	689b      	ldr	r3, [r3, #8]
1004491c:	001a      	movs	r2, r3
1004491e:	f7ff fd1b 	bl	10044358 <LL_ADC_SetCalibPointForDiff>
        break;
10044922:	e01d      	b.n	10044960 <HAL_ADC_ConfigChannel+0x15c>
      }
      case ADC_CHANNEL_VBAT:
      {
        LL_ADC_SetCalibPointForSingleNeg(hadc->Instance, sConfigChannel->CalibrationPoint.Number,
10044924:	687b      	ldr	r3, [r7, #4]
10044926:	6818      	ldr	r0, [r3, #0]
10044928:	683b      	ldr	r3, [r7, #0]
1004492a:	68db      	ldr	r3, [r3, #12]
1004492c:	2203      	movs	r2, #3
1004492e:	0019      	movs	r1, r3
10044930:	f7ff fd76 	bl	10044420 <LL_ADC_SetCalibPointForSingleNeg>
                                         LL_ADC_VIN_RANGE_3V6);
        break;
10044934:	e014      	b.n	10044960 <HAL_ADC_ConfigChannel+0x15c>
      }
      case ADC_CHANNEL_TEMPSENSOR:
      {
        LL_ADC_SetCalibPointForSinglePos(hadc->Instance, sConfigChannel->CalibrationPoint.Number,
10044936:	687b      	ldr	r3, [r7, #4]
10044938:	6818      	ldr	r0, [r3, #0]
1004493a:	683b      	ldr	r3, [r7, #0]
1004493c:	68db      	ldr	r3, [r3, #12]
1004493e:	2200      	movs	r2, #0
10044940:	0019      	movs	r1, r3
10044942:	f7ff fd3b 	bl	100443bc <LL_ADC_SetCalibPointForSinglePos>
                                         LL_ADC_VIN_RANGE_1V2);
        break;
10044946:	e00b      	b.n	10044960 <HAL_ADC_ConfigChannel+0x15c>
      }
      default:
      {
        /* Update ADC state machine to error */
        SET_BIT(hadc->State, HAL_ADC_STATE_ERROR_CONFIG);
10044948:	687b      	ldr	r3, [r7, #4]
1004494a:	6adb      	ldr	r3, [r3, #44]	@ 0x2c
1004494c:	2220      	movs	r2, #32
1004494e:	431a      	orrs	r2, r3
10044950:	687b      	ldr	r3, [r7, #4]
10044952:	62da      	str	r2, [r3, #44]	@ 0x2c

        tmp_hal_status = HAL_ERROR;
10044954:	230f      	movs	r3, #15
10044956:	18fb      	adds	r3, r7, r3
10044958:	2201      	movs	r2, #1
1004495a:	701a      	strb	r2, [r3, #0]
        break;
1004495c:	e000      	b.n	10044960 <HAL_ADC_ConfigChannel+0x15c>
    }
  }
  else
  {
    /* Nothing to do */
    __NOP();
1004495e:	46c0      	nop			@ (mov r8, r8)
  }

  /* Process unlocked */
  __HAL_UNLOCK(hadc);
10044960:	687b      	ldr	r3, [r7, #4]
10044962:	2228      	movs	r2, #40	@ 0x28
10044964:	2100      	movs	r1, #0
10044966:	5499      	strb	r1, [r3, r2]

  /* Return function status */
  return tmp_hal_status;
10044968:	230f      	movs	r3, #15
1004496a:	18fb      	adds	r3, r7, r3
1004496c:	781b      	ldrb	r3, [r3, #0]
}
1004496e:	0018      	movs	r0, r3
10044970:	46bd      	mov	sp, r7
10044972:	b004      	add	sp, #16
10044974:	bd80      	pop	{r7, pc}
10044976:	46c0      	nop			@ (mov r8, r8)
10044978:	00000fff 	.word	0x00000fff
1004497c:	000007ff 	.word	0x000007ff
10044980:	00000555 	.word	0x00000555
10044984:	10049620 	.word	0x10049620

10044988 <ADC_ConversionStop>:
  * @brief Stop ADC conversion.
  * @param hadc ADC handle
  * @retval HAL status.
  */
HAL_StatusTypeDef ADC_ConversionStop(ADC_HandleTypeDef *hadc)
{
10044988:	b580      	push	{r7, lr}
1004498a:	b084      	sub	sp, #16
1004498c:	af00      	add	r7, sp, #0
1004498e:	6078      	str	r0, [r7, #4]
  /* Check the parameters */
  assert_param(IS_ADC_ALL_INSTANCE(hadc->Instance));

  /* Verification if ADC is not already stopped to bypass this function if    */
  /* not needed.                                                              */
  is_conversion_on = LL_ADC_IsConversionOngoing(hadc->Instance);
10044990:	687b      	ldr	r3, [r7, #4]
10044992:	681b      	ldr	r3, [r3, #0]
10044994:	0018      	movs	r0, r3
10044996:	f7ff fc1e 	bl	100441d6 <LL_ADC_IsConversionOngoing>
1004499a:	0003      	movs	r3, r0
1004499c:	60fb      	str	r3, [r7, #12]
  if (is_conversion_on != 0UL)
1004499e:	68fb      	ldr	r3, [r7, #12]
100449a0:	2b00      	cmp	r3, #0
100449a2:	d004      	beq.n	100449ae <ADC_ConversionStop+0x26>
  {
    /* Stop ADC conversion */
    LL_ADC_StopConversion(hadc->Instance);
100449a4:	687b      	ldr	r3, [r7, #4]
100449a6:	681b      	ldr	r3, [r3, #0]
100449a8:	0018      	movs	r0, r3
100449aa:	f7ff fbf8 	bl	1004419e <LL_ADC_StopConversion>
  }

  /* Return HAL status */
  return HAL_OK;
100449ae:	2300      	movs	r3, #0
}
100449b0:	0018      	movs	r0, r3
100449b2:	46bd      	mov	sp, r7
100449b4:	b004      	add	sp, #16
100449b6:	bd80      	pop	{r7, pc}

100449b8 <ADC_Enable>:
  *         and voltage regulator must be enabled (done into HAL_ADC_Init()).
  * @param hadc ADC handle
  * @retval HAL status.
  */
HAL_StatusTypeDef ADC_Enable(ADC_HandleTypeDef *hadc)
{
100449b8:	b580      	push	{r7, lr}
100449ba:	b082      	sub	sp, #8
100449bc:	af00      	add	r7, sp, #0
100449be:	6078      	str	r0, [r7, #4]
  /* ADC enable  */
  if (LL_ADC_IsEnabled(hadc->Instance) == 0UL)
100449c0:	687b      	ldr	r3, [r7, #4]
100449c2:	681b      	ldr	r3, [r3, #0]
100449c4:	0018      	movs	r0, r3
100449c6:	f7ff fc34 	bl	10044232 <LL_ADC_IsEnabled>
100449ca:	1e03      	subs	r3, r0, #0
100449cc:	d104      	bne.n	100449d8 <ADC_Enable+0x20>
  {
    /* Enable the ADC peripheral */
    LL_ADC_Enable(hadc->Instance);
100449ce:	687b      	ldr	r3, [r7, #4]
100449d0:	681b      	ldr	r3, [r3, #0]
100449d2:	0018      	movs	r0, r3
100449d4:	f7ff fc10 	bl	100441f8 <LL_ADC_Enable>
  }

  /* Return HAL status */
  return HAL_OK;
100449d8:	2300      	movs	r3, #0
}
100449da:	0018      	movs	r0, r3
100449dc:	46bd      	mov	sp, r7
100449de:	b002      	add	sp, #8
100449e0:	bd80      	pop	{r7, pc}

100449e2 <ADC_Disable>:
  *         stopped.
  * @param hadc ADC handle
  * @retval HAL status.
  */
HAL_StatusTypeDef ADC_Disable(ADC_HandleTypeDef *hadc)
{
100449e2:	b580      	push	{r7, lr}
100449e4:	b082      	sub	sp, #8
100449e6:	af00      	add	r7, sp, #0
100449e8:	6078      	str	r0, [r7, #4]
  /* Verification if ADC is not already disabled: */
  if ((LL_ADC_IsEnabled(hadc->Instance) != 0UL))
100449ea:	687b      	ldr	r3, [r7, #4]
100449ec:	681b      	ldr	r3, [r3, #0]
100449ee:	0018      	movs	r0, r3
100449f0:	f7ff fc1f 	bl	10044232 <LL_ADC_IsEnabled>
100449f4:	1e03      	subs	r3, r0, #0
100449f6:	d004      	beq.n	10044a02 <ADC_Disable+0x20>
  {
    /* Disable the ADC peripheral */
    LL_ADC_Disable(hadc->Instance);
100449f8:	687b      	ldr	r3, [r7, #4]
100449fa:	681b      	ldr	r3, [r3, #0]
100449fc:	0018      	movs	r0, r3
100449fe:	f7ff fc09 	bl	10044214 <LL_ADC_Disable>
  }

  /* Return HAL status */
  return HAL_OK;
10044a02:	2300      	movs	r3, #0
}
10044a04:	0018      	movs	r0, r3
10044a06:	46bd      	mov	sp, r7
10044a08:	b002      	add	sp, #8
10044a0a:	bd80      	pop	{r7, pc}

10044a0c <__NVIC_SetPriority>:
{
10044a0c:	b590      	push	{r4, r7, lr}
10044a0e:	b083      	sub	sp, #12
10044a10:	af00      	add	r7, sp, #0
10044a12:	0002      	movs	r2, r0
10044a14:	6039      	str	r1, [r7, #0]
10044a16:	1dfb      	adds	r3, r7, #7
10044a18:	701a      	strb	r2, [r3, #0]
  if ((int32_t)(IRQn) >= 0)
10044a1a:	1dfb      	adds	r3, r7, #7
10044a1c:	781b      	ldrb	r3, [r3, #0]
10044a1e:	2b7f      	cmp	r3, #127	@ 0x7f
10044a20:	d828      	bhi.n	10044a74 <__NVIC_SetPriority+0x68>
    NVIC->IP[_IP_IDX(IRQn)]  = ((uint32_t)(NVIC->IP[_IP_IDX(IRQn)]  & ~(0xFFUL << _BIT_SHIFT(IRQn))) |
10044a22:	4a2f      	ldr	r2, [pc, #188]	@ (10044ae0 <__NVIC_SetPriority+0xd4>)
10044a24:	1dfb      	adds	r3, r7, #7
10044a26:	781b      	ldrb	r3, [r3, #0]
10044a28:	b25b      	sxtb	r3, r3
10044a2a:	089b      	lsrs	r3, r3, #2
10044a2c:	33c0      	adds	r3, #192	@ 0xc0
10044a2e:	009b      	lsls	r3, r3, #2
10044a30:	589b      	ldr	r3, [r3, r2]
10044a32:	1dfa      	adds	r2, r7, #7
10044a34:	7812      	ldrb	r2, [r2, #0]
10044a36:	0011      	movs	r1, r2
10044a38:	2203      	movs	r2, #3
10044a3a:	400a      	ands	r2, r1
10044a3c:	00d2      	lsls	r2, r2, #3
10044a3e:	21ff      	movs	r1, #255	@ 0xff
10044a40:	4091      	lsls	r1, r2
10044a42:	000a      	movs	r2, r1
10044a44:	43d2      	mvns	r2, r2
10044a46:	401a      	ands	r2, r3
10044a48:	0011      	movs	r1, r2
       (((priority << (8U - __NVIC_PRIO_BITS)) & (uint32_t)0xFFUL) << _BIT_SHIFT(IRQn)));
10044a4a:	683b      	ldr	r3, [r7, #0]
10044a4c:	019b      	lsls	r3, r3, #6
10044a4e:	22ff      	movs	r2, #255	@ 0xff
10044a50:	401a      	ands	r2, r3
10044a52:	1dfb      	adds	r3, r7, #7
10044a54:	781b      	ldrb	r3, [r3, #0]
10044a56:	0018      	movs	r0, r3
10044a58:	2303      	movs	r3, #3
10044a5a:	4003      	ands	r3, r0
10044a5c:	00db      	lsls	r3, r3, #3
10044a5e:	409a      	lsls	r2, r3
    NVIC->IP[_IP_IDX(IRQn)]  = ((uint32_t)(NVIC->IP[_IP_IDX(IRQn)]  & ~(0xFFUL << _BIT_SHIFT(IRQn))) |
10044a60:	481f      	ldr	r0, [pc, #124]	@ (10044ae0 <__NVIC_SetPriority+0xd4>)
10044a62:	1dfb      	adds	r3, r7, #7
10044a64:	781b      	ldrb	r3, [r3, #0]
10044a66:	b25b      	sxtb	r3, r3
10044a68:	089b      	lsrs	r3, r3, #2
10044a6a:	430a      	orrs	r2, r1
10044a6c:	33c0      	adds	r3, #192	@ 0xc0
10044a6e:	009b      	lsls	r3, r3, #2
10044a70:	501a      	str	r2, [r3, r0]
}
10044a72:	e031      	b.n	10044ad8 <__NVIC_SetPriority+0xcc>
    SCB->SHP[_SHP_IDX(IRQn)] = ((uint32_t)(SCB->SHP[_SHP_IDX(IRQn)] & ~(0xFFUL << _BIT_SHIFT(IRQn))) |
10044a74:	4a1b      	ldr	r2, [pc, #108]	@ (10044ae4 <__NVIC_SetPriority+0xd8>)
10044a76:	1dfb      	adds	r3, r7, #7
10044a78:	781b      	ldrb	r3, [r3, #0]
10044a7a:	0019      	movs	r1, r3
10044a7c:	230f      	movs	r3, #15
10044a7e:	400b      	ands	r3, r1
10044a80:	3b08      	subs	r3, #8
10044a82:	089b      	lsrs	r3, r3, #2
10044a84:	3306      	adds	r3, #6
10044a86:	009b      	lsls	r3, r3, #2
10044a88:	18d3      	adds	r3, r2, r3
10044a8a:	3304      	adds	r3, #4
10044a8c:	681b      	ldr	r3, [r3, #0]
10044a8e:	1dfa      	adds	r2, r7, #7
10044a90:	7812      	ldrb	r2, [r2, #0]
10044a92:	0011      	movs	r1, r2
10044a94:	2203      	movs	r2, #3
10044a96:	400a      	ands	r2, r1
10044a98:	00d2      	lsls	r2, r2, #3
10044a9a:	21ff      	movs	r1, #255	@ 0xff
10044a9c:	4091      	lsls	r1, r2
10044a9e:	000a      	movs	r2, r1
10044aa0:	43d2      	mvns	r2, r2
10044aa2:	401a      	ands	r2, r3
10044aa4:	0011      	movs	r1, r2
       (((priority << (8U - __NVIC_PRIO_BITS)) & (uint32_t)0xFFUL) << _BIT_SHIFT(IRQn)));
10044aa6:	683b      	ldr	r3, [r7, #0]
10044aa8:	019b      	lsls	r3, r3, #6
10044aaa:	22ff      	movs	r2, #255	@ 0xff
10044aac:	401a      	ands	r2, r3
10044aae:	1dfb      	adds	r3, r7, #7
10044ab0:	781b      	ldrb	r3, [r3, #0]
10044ab2:	0018      	movs	r0, r3
10044ab4:	2303      	movs	r3, #3
10044ab6:	4003      	ands	r3, r0
10044ab8:	00db      	lsls	r3, r3, #3
10044aba:	409a      	lsls	r2, r3
    SCB->SHP[_SHP_IDX(IRQn)] = ((uint32_t)(SCB->SHP[_SHP_IDX(IRQn)] & ~(0xFFUL << _BIT_SHIFT(IRQn))) |
10044abc:	4809      	ldr	r0, [pc, #36]	@ (10044ae4 <__NVIC_SetPriority+0xd8>)
10044abe:	1dfb      	adds	r3, r7, #7
10044ac0:	781b      	ldrb	r3, [r3, #0]
10044ac2:	001c      	movs	r4, r3
10044ac4:	230f      	movs	r3, #15
10044ac6:	4023      	ands	r3, r4
10044ac8:	3b08      	subs	r3, #8
10044aca:	089b      	lsrs	r3, r3, #2
10044acc:	430a      	orrs	r2, r1
10044ace:	3306      	adds	r3, #6
10044ad0:	009b      	lsls	r3, r3, #2
10044ad2:	18c3      	adds	r3, r0, r3
10044ad4:	3304      	adds	r3, #4
10044ad6:	601a      	str	r2, [r3, #0]
}
10044ad8:	46c0      	nop			@ (mov r8, r8)
10044ada:	46bd      	mov	sp, r7
10044adc:	b003      	add	sp, #12
10044ade:	bd90      	pop	{r4, r7, pc}
10044ae0:	e000e100 	.word	0xe000e100
10044ae4:	e000ed00 	.word	0xe000ed00

10044ae8 <SysTick_Config>:
  \note    When the variable <b>__Vendor_SysTickConfig</b> is set to 1, then the
           function <b>SysTick_Config</b> is not included. In this case, the file <b><i>device</i>.h</b>
           must contain a vendor-specific implementation of this function.
 */
__STATIC_INLINE uint32_t SysTick_Config(uint32_t ticks)
{
10044ae8:	b580      	push	{r7, lr}
10044aea:	b082      	sub	sp, #8
10044aec:	af00      	add	r7, sp, #0
10044aee:	6078      	str	r0, [r7, #4]
  if ((ticks - 1UL) > SysTick_LOAD_RELOAD_Msk)
10044af0:	687b      	ldr	r3, [r7, #4]
10044af2:	1e5a      	subs	r2, r3, #1
10044af4:	2380      	movs	r3, #128	@ 0x80
10044af6:	045b      	lsls	r3, r3, #17
10044af8:	429a      	cmp	r2, r3
10044afa:	d301      	bcc.n	10044b00 <SysTick_Config+0x18>
  {
    return (1UL);                                                   /* Reload value impossible */
10044afc:	2301      	movs	r3, #1
10044afe:	e010      	b.n	10044b22 <SysTick_Config+0x3a>
  }

  SysTick->LOAD  = (uint32_t)(ticks - 1UL);                         /* set reload register */
10044b00:	4b0a      	ldr	r3, [pc, #40]	@ (10044b2c <SysTick_Config+0x44>)
10044b02:	687a      	ldr	r2, [r7, #4]
10044b04:	3a01      	subs	r2, #1
10044b06:	605a      	str	r2, [r3, #4]
  NVIC_SetPriority (SysTick_IRQn, (1UL << __NVIC_PRIO_BITS) - 1UL); /* set Priority for Systick Interrupt */
10044b08:	2301      	movs	r3, #1
10044b0a:	425b      	negs	r3, r3
10044b0c:	2103      	movs	r1, #3
10044b0e:	0018      	movs	r0, r3
10044b10:	f7ff ff7c 	bl	10044a0c <__NVIC_SetPriority>
  SysTick->VAL   = 0UL;                                             /* Load the SysTick Counter Value */
10044b14:	4b05      	ldr	r3, [pc, #20]	@ (10044b2c <SysTick_Config+0x44>)
10044b16:	2200      	movs	r2, #0
10044b18:	609a      	str	r2, [r3, #8]
  SysTick->CTRL  = SysTick_CTRL_CLKSOURCE_Msk |
10044b1a:	4b04      	ldr	r3, [pc, #16]	@ (10044b2c <SysTick_Config+0x44>)
10044b1c:	2207      	movs	r2, #7
10044b1e:	601a      	str	r2, [r3, #0]
                   SysTick_CTRL_TICKINT_Msk   |
                   SysTick_CTRL_ENABLE_Msk;                         /* Enable SysTick IRQ and SysTick Timer */
  return (0UL);                                                     /* Function successful */
10044b20:	2300      	movs	r3, #0
}
10044b22:	0018      	movs	r0, r3
10044b24:	46bd      	mov	sp, r7
10044b26:	b002      	add	sp, #8
10044b28:	bd80      	pop	{r7, pc}
10044b2a:	46c0      	nop			@ (mov r8, r8)
10044b2c:	e000e010 	.word	0xe000e010

10044b30 <HAL_NVIC_SetPriority>:
  *         with stm32wl3x devices, this parameter is a dummy value and it is ignored, because
  *         no subpriority supported in Cortex M0+ based products.
  * @retval None
  */
void HAL_NVIC_SetPriority(IRQn_Type IRQn, uint32_t PreemptPriority, uint32_t SubPriority)
{
10044b30:	b580      	push	{r7, lr}
10044b32:	b084      	sub	sp, #16
10044b34:	af00      	add	r7, sp, #0
10044b36:	60b9      	str	r1, [r7, #8]
10044b38:	607a      	str	r2, [r7, #4]
10044b3a:	210f      	movs	r1, #15
10044b3c:	187b      	adds	r3, r7, r1
10044b3e:	1c02      	adds	r2, r0, #0
10044b40:	701a      	strb	r2, [r3, #0]
  /* Check the parameters */
  assert_param(IS_NVIC_PREEMPTION_PRIORITY(PreemptPriority));
  NVIC_SetPriority(IRQn, PreemptPriority);
10044b42:	68ba      	ldr	r2, [r7, #8]
10044b44:	187b      	adds	r3, r7, r1
10044b46:	781b      	ldrb	r3, [r3, #0]
10044b48:	b25b      	sxtb	r3, r3
10044b4a:	0011      	movs	r1, r2
10044b4c:	0018      	movs	r0, r3
10044b4e:	f7ff ff5d 	bl	10044a0c <__NVIC_SetPriority>
}
10044b52:	46c0      	nop			@ (mov r8, r8)
10044b54:	46bd      	mov	sp, r7
10044b56:	b004      	add	sp, #16
10044b58:	bd80      	pop	{r7, pc}

10044b5a <HAL_SYSTICK_Config>:
  * @param TicksNumb Specifies the ticks Number of ticks between two interrupts.
  * @retval status:  - 0  Function succeeded.
  *                  - 1  Function failed.
  */
uint32_t HAL_SYSTICK_Config(uint32_t TicksNumb)
{
10044b5a:	b580      	push	{r7, lr}
10044b5c:	b082      	sub	sp, #8
10044b5e:	af00      	add	r7, sp, #0
10044b60:	6078      	str	r0, [r7, #4]
  return SysTick_Config(TicksNumb);
10044b62:	687b      	ldr	r3, [r7, #4]
10044b64:	0018      	movs	r0, r3
10044b66:	f7ff ffbf 	bl	10044ae8 <SysTick_Config>
10044b6a:	0003      	movs	r3, r0
}
10044b6c:	0018      	movs	r0, r3
10044b6e:	46bd      	mov	sp, r7
10044b70:	b002      	add	sp, #8
10044b72:	bd80      	pop	{r7, pc}

10044b74 <HAL_DMA_Abort>:
  * @param hdma Pointer to a DMA_HandleTypeDef structure that contains
  *               the configuration information for the specified DMA Channel.
    * @retval HAL status
  */
HAL_StatusTypeDef HAL_DMA_Abort(DMA_HandleTypeDef *hdma)
{
10044b74:	b580      	push	{r7, lr}
10044b76:	b082      	sub	sp, #8
10044b78:	af00      	add	r7, sp, #0
10044b7a:	6078      	str	r0, [r7, #4]

  /* Check the DMA peripheral handle */
  if (NULL == hdma)
10044b7c:	687b      	ldr	r3, [r7, #4]
10044b7e:	2b00      	cmp	r3, #0
10044b80:	d101      	bne.n	10044b86 <HAL_DMA_Abort+0x12>
  {
    return HAL_ERROR;
10044b82:	2301      	movs	r3, #1
10044b84:	e031      	b.n	10044bea <HAL_DMA_Abort+0x76>
  }

  /* Check the DMA peripheral state */
  if (hdma->State != HAL_DMA_STATE_BUSY)
10044b86:	687b      	ldr	r3, [r7, #4]
10044b88:	2225      	movs	r2, #37	@ 0x25
10044b8a:	5c9b      	ldrb	r3, [r3, r2]
10044b8c:	b2db      	uxtb	r3, r3
10044b8e:	2b02      	cmp	r3, #2
10044b90:	d008      	beq.n	10044ba4 <HAL_DMA_Abort+0x30>
  {
    hdma->ErrorCode = HAL_DMA_ERROR_NO_XFER;
10044b92:	687b      	ldr	r3, [r7, #4]
10044b94:	2204      	movs	r2, #4
10044b96:	63da      	str	r2, [r3, #60]	@ 0x3c

    /* Process Unlocked */
    __HAL_UNLOCK(hdma);
10044b98:	687b      	ldr	r3, [r7, #4]
10044b9a:	2224      	movs	r2, #36	@ 0x24
10044b9c:	2100      	movs	r1, #0
10044b9e:	5499      	strb	r1, [r3, r2]

    return HAL_ERROR;
10044ba0:	2301      	movs	r3, #1
10044ba2:	e022      	b.n	10044bea <HAL_DMA_Abort+0x76>
  }
  else
  {
    /* Disable DMA IT */
    __HAL_DMA_DISABLE_IT(hdma, (DMA_IT_TC | DMA_IT_HT | DMA_IT_TE));
10044ba4:	687b      	ldr	r3, [r7, #4]
10044ba6:	681b      	ldr	r3, [r3, #0]
10044ba8:	681a      	ldr	r2, [r3, #0]
10044baa:	687b      	ldr	r3, [r7, #4]
10044bac:	681b      	ldr	r3, [r3, #0]
10044bae:	210e      	movs	r1, #14
10044bb0:	438a      	bics	r2, r1
10044bb2:	601a      	str	r2, [r3, #0]

    /* Disable the channel */
    __HAL_DMA_DISABLE(hdma);
10044bb4:	687b      	ldr	r3, [r7, #4]
10044bb6:	681b      	ldr	r3, [r3, #0]
10044bb8:	681a      	ldr	r2, [r3, #0]
10044bba:	687b      	ldr	r3, [r7, #4]
10044bbc:	681b      	ldr	r3, [r3, #0]
10044bbe:	2101      	movs	r1, #1
10044bc0:	438a      	bics	r2, r1
10044bc2:	601a      	str	r2, [r3, #0]

    /* Clear all flags */
    hdma->DmaBaseAddress->IFCR = (DMA_ISR_GIF1 << (hdma->ChannelIndex & 0x3cU));
10044bc4:	687b      	ldr	r3, [r7, #4]
10044bc6:	6c5b      	ldr	r3, [r3, #68]	@ 0x44
10044bc8:	223c      	movs	r2, #60	@ 0x3c
10044bca:	401a      	ands	r2, r3
10044bcc:	687b      	ldr	r3, [r7, #4]
10044bce:	6c1b      	ldr	r3, [r3, #64]	@ 0x40
10044bd0:	2101      	movs	r1, #1
10044bd2:	4091      	lsls	r1, r2
10044bd4:	000a      	movs	r2, r1
10044bd6:	605a      	str	r2, [r3, #4]

    /* Change the DMA state */
    hdma->State = HAL_DMA_STATE_READY;
10044bd8:	687b      	ldr	r3, [r7, #4]
10044bda:	2225      	movs	r2, #37	@ 0x25
10044bdc:	2101      	movs	r1, #1
10044bde:	5499      	strb	r1, [r3, r2]

    /* Process Unlocked */
    __HAL_UNLOCK(hdma);
10044be0:	687b      	ldr	r3, [r7, #4]
10044be2:	2224      	movs	r2, #36	@ 0x24
10044be4:	2100      	movs	r1, #0
10044be6:	5499      	strb	r1, [r3, r2]
  }

  return HAL_OK;
10044be8:	2300      	movs	r3, #0
}
10044bea:	0018      	movs	r0, r3
10044bec:	46bd      	mov	sp, r7
10044bee:	b002      	add	sp, #8
10044bf0:	bd80      	pop	{r7, pc}

10044bf2 <HAL_DMA_Abort_IT>:
  * @param  hdma  Pointer to a DMA_HandleTypeDef structure that contains
  *                 the configuration information for the specified DMA Channel.
  * @retval HAL status
  */
HAL_StatusTypeDef HAL_DMA_Abort_IT(DMA_HandleTypeDef *hdma)
{
10044bf2:	b580      	push	{r7, lr}
10044bf4:	b084      	sub	sp, #16
10044bf6:	af00      	add	r7, sp, #0
10044bf8:	6078      	str	r0, [r7, #4]
  HAL_StatusTypeDef status = HAL_OK;
10044bfa:	210f      	movs	r1, #15
10044bfc:	187b      	adds	r3, r7, r1
10044bfe:	2200      	movs	r2, #0
10044c00:	701a      	strb	r2, [r3, #0]

  if (HAL_DMA_STATE_BUSY != hdma->State)
10044c02:	687b      	ldr	r3, [r7, #4]
10044c04:	2225      	movs	r2, #37	@ 0x25
10044c06:	5c9b      	ldrb	r3, [r3, r2]
10044c08:	b2db      	uxtb	r3, r3
10044c0a:	2b02      	cmp	r3, #2
10044c0c:	d006      	beq.n	10044c1c <HAL_DMA_Abort_IT+0x2a>
  {
    /* no transfer ongoing */
    hdma->ErrorCode = HAL_DMA_ERROR_NO_XFER;
10044c0e:	687b      	ldr	r3, [r7, #4]
10044c10:	2204      	movs	r2, #4
10044c12:	63da      	str	r2, [r3, #60]	@ 0x3c

    status = HAL_ERROR;
10044c14:	187b      	adds	r3, r7, r1
10044c16:	2201      	movs	r2, #1
10044c18:	701a      	strb	r2, [r3, #0]
10044c1a:	e02a      	b.n	10044c72 <HAL_DMA_Abort_IT+0x80>
  }
  else
  {
    /* Disable DMA IT */
    __HAL_DMA_DISABLE_IT(hdma, (DMA_IT_TC | DMA_IT_HT | DMA_IT_TE));
10044c1c:	687b      	ldr	r3, [r7, #4]
10044c1e:	681b      	ldr	r3, [r3, #0]
10044c20:	681a      	ldr	r2, [r3, #0]
10044c22:	687b      	ldr	r3, [r7, #4]
10044c24:	681b      	ldr	r3, [r3, #0]
10044c26:	210e      	movs	r1, #14
10044c28:	438a      	bics	r2, r1
10044c2a:	601a      	str	r2, [r3, #0]

    /* Disable the channel */
    __HAL_DMA_DISABLE(hdma);
10044c2c:	687b      	ldr	r3, [r7, #4]
10044c2e:	681b      	ldr	r3, [r3, #0]
10044c30:	681a      	ldr	r2, [r3, #0]
10044c32:	687b      	ldr	r3, [r7, #4]
10044c34:	681b      	ldr	r3, [r3, #0]
10044c36:	2101      	movs	r1, #1
10044c38:	438a      	bics	r2, r1
10044c3a:	601a      	str	r2, [r3, #0]

    /* Clear all flags */
    hdma->DmaBaseAddress->IFCR = (DMA_ISR_GIF1 << (hdma->ChannelIndex & 0x3cU));
10044c3c:	687b      	ldr	r3, [r7, #4]
10044c3e:	6c5b      	ldr	r3, [r3, #68]	@ 0x44
10044c40:	223c      	movs	r2, #60	@ 0x3c
10044c42:	401a      	ands	r2, r3
10044c44:	687b      	ldr	r3, [r7, #4]
10044c46:	6c1b      	ldr	r3, [r3, #64]	@ 0x40
10044c48:	2101      	movs	r1, #1
10044c4a:	4091      	lsls	r1, r2
10044c4c:	000a      	movs	r2, r1
10044c4e:	605a      	str	r2, [r3, #4]

    /* Change the DMA state */
    hdma->State = HAL_DMA_STATE_READY;
10044c50:	687b      	ldr	r3, [r7, #4]
10044c52:	2225      	movs	r2, #37	@ 0x25
10044c54:	2101      	movs	r1, #1
10044c56:	5499      	strb	r1, [r3, r2]

    /* Process Unlocked */
    __HAL_UNLOCK(hdma);
10044c58:	687b      	ldr	r3, [r7, #4]
10044c5a:	2224      	movs	r2, #36	@ 0x24
10044c5c:	2100      	movs	r1, #0
10044c5e:	5499      	strb	r1, [r3, r2]

    /* Call User Abort callback */
    if (hdma->XferAbortCallback != NULL)
10044c60:	687b      	ldr	r3, [r7, #4]
10044c62:	6b9b      	ldr	r3, [r3, #56]	@ 0x38
10044c64:	2b00      	cmp	r3, #0
10044c66:	d004      	beq.n	10044c72 <HAL_DMA_Abort_IT+0x80>
    {
      hdma->XferAbortCallback(hdma);
10044c68:	687b      	ldr	r3, [r7, #4]
10044c6a:	6b9b      	ldr	r3, [r3, #56]	@ 0x38
10044c6c:	687a      	ldr	r2, [r7, #4]
10044c6e:	0010      	movs	r0, r2
10044c70:	4798      	blx	r3
    }
  }
  return status;
10044c72:	230f      	movs	r3, #15
10044c74:	18fb      	adds	r3, r7, r3
10044c76:	781b      	ldrb	r3, [r3, #0]
}
10044c78:	0018      	movs	r0, r3
10044c7a:	46bd      	mov	sp, r7
10044c7c:	b004      	add	sp, #16
10044c7e:	bd80      	pop	{r7, pc}

10044c80 <HAL_GPIO_Init>:
  * @param GPIO_Init pointer to a GPIO_InitTypeDef structure that contains
  *         the configuration information for the specified GPIO peripheral.
  * @retval None
  */
void HAL_GPIO_Init(GPIO_TypeDef  *GPIOx, GPIO_InitTypeDef *GPIO_Init)
{
10044c80:	b580      	push	{r7, lr}
10044c82:	b086      	sub	sp, #24
10044c84:	af00      	add	r7, sp, #0
10044c86:	6078      	str	r0, [r7, #4]
10044c88:	6039      	str	r1, [r7, #0]
  uint32_t position = 0x00u;
10044c8a:	2300      	movs	r3, #0
10044c8c:	617b      	str	r3, [r7, #20]
  assert_param(IS_GPIO_PIN(GPIO_Init->Pin));
  assert_param(IS_GPIO_MODE(GPIO_Init->Mode));
  assert_param(IS_GPIO_PULL(GPIO_Init->Pull));

  /* Configure the port pins */
  while (((GPIO_Init->Pin) >> position) != 0x00u)
10044c8e:	e1a0      	b.n	10044fd2 <HAL_GPIO_Init+0x352>
  {
    /* Get current io position */
    iocurrent = (GPIO_Init->Pin) & (1uL << position);
10044c90:	683b      	ldr	r3, [r7, #0]
10044c92:	681b      	ldr	r3, [r3, #0]
10044c94:	2101      	movs	r1, #1
10044c96:	697a      	ldr	r2, [r7, #20]
10044c98:	4091      	lsls	r1, r2
10044c9a:	000a      	movs	r2, r1
10044c9c:	4013      	ands	r3, r2
10044c9e:	60fb      	str	r3, [r7, #12]

    if (iocurrent != 0x00u)
10044ca0:	68fb      	ldr	r3, [r7, #12]
10044ca2:	2b00      	cmp	r3, #0
10044ca4:	d100      	bne.n	10044ca8 <HAL_GPIO_Init+0x28>
10044ca6:	e191      	b.n	10044fcc <HAL_GPIO_Init+0x34c>
    {
      /*--------------------- GPIO Mode Configuration ------------------------*/
      /* In case of Output or Alternate function mode selection */
      if (((GPIO_Init->Mode & GPIO_MODE) == MODE_OUTPUT) || ((GPIO_Init->Mode & GPIO_MODE) == MODE_AF))
10044ca8:	683b      	ldr	r3, [r7, #0]
10044caa:	685b      	ldr	r3, [r3, #4]
10044cac:	2203      	movs	r2, #3
10044cae:	4013      	ands	r3, r2
10044cb0:	2b01      	cmp	r3, #1
10044cb2:	d005      	beq.n	10044cc0 <HAL_GPIO_Init+0x40>
10044cb4:	683b      	ldr	r3, [r7, #0]
10044cb6:	685b      	ldr	r3, [r3, #4]
10044cb8:	2203      	movs	r2, #3
10044cba:	4013      	ands	r3, r2
10044cbc:	2b02      	cmp	r3, #2
10044cbe:	d130      	bne.n	10044d22 <HAL_GPIO_Init+0xa2>
      {
        /* Check the Speed parameter */
        assert_param(IS_GPIO_SPEED(GPIO_Init->Speed));
        /* Configure the IO Speed */
        temp = GPIOx->OSPEEDR;
10044cc0:	687b      	ldr	r3, [r7, #4]
10044cc2:	689b      	ldr	r3, [r3, #8]
10044cc4:	613b      	str	r3, [r7, #16]
        temp &= ~(GPIO_OSPEEDR_OSPEED0 << (position * 2u));
10044cc6:	697b      	ldr	r3, [r7, #20]
10044cc8:	005b      	lsls	r3, r3, #1
10044cca:	2203      	movs	r2, #3
10044ccc:	409a      	lsls	r2, r3
10044cce:	0013      	movs	r3, r2
10044cd0:	43da      	mvns	r2, r3
10044cd2:	693b      	ldr	r3, [r7, #16]
10044cd4:	4013      	ands	r3, r2
10044cd6:	613b      	str	r3, [r7, #16]
        temp |= (GPIO_Init->Speed << (position * 2u));
10044cd8:	683b      	ldr	r3, [r7, #0]
10044cda:	68da      	ldr	r2, [r3, #12]
10044cdc:	697b      	ldr	r3, [r7, #20]
10044cde:	005b      	lsls	r3, r3, #1
10044ce0:	409a      	lsls	r2, r3
10044ce2:	0013      	movs	r3, r2
10044ce4:	693a      	ldr	r2, [r7, #16]
10044ce6:	4313      	orrs	r3, r2
10044ce8:	613b      	str	r3, [r7, #16]
        GPIOx->OSPEEDR = temp;
10044cea:	687b      	ldr	r3, [r7, #4]
10044cec:	693a      	ldr	r2, [r7, #16]
10044cee:	609a      	str	r2, [r3, #8]

        /* Configure the IO Output Type */
        temp = GPIOx->OTYPER;
10044cf0:	687b      	ldr	r3, [r7, #4]
10044cf2:	685b      	ldr	r3, [r3, #4]
10044cf4:	613b      	str	r3, [r7, #16]
        temp &= ~(GPIO_OTYPER_OT0 << position) ;
10044cf6:	2201      	movs	r2, #1
10044cf8:	697b      	ldr	r3, [r7, #20]
10044cfa:	409a      	lsls	r2, r3
10044cfc:	0013      	movs	r3, r2
10044cfe:	43da      	mvns	r2, r3
10044d00:	693b      	ldr	r3, [r7, #16]
10044d02:	4013      	ands	r3, r2
10044d04:	613b      	str	r3, [r7, #16]
        temp |= (((GPIO_Init->Mode & OUTPUT_TYPE) >> OUTPUT_TYPE_Pos) << position);
10044d06:	683b      	ldr	r3, [r7, #0]
10044d08:	685b      	ldr	r3, [r3, #4]
10044d0a:	091b      	lsrs	r3, r3, #4
10044d0c:	2201      	movs	r2, #1
10044d0e:	401a      	ands	r2, r3
10044d10:	697b      	ldr	r3, [r7, #20]
10044d12:	409a      	lsls	r2, r3
10044d14:	0013      	movs	r3, r2
10044d16:	693a      	ldr	r2, [r7, #16]
10044d18:	4313      	orrs	r3, r2
10044d1a:	613b      	str	r3, [r7, #16]
        GPIOx->OTYPER = temp;
10044d1c:	687b      	ldr	r3, [r7, #4]
10044d1e:	693a      	ldr	r2, [r7, #16]
10044d20:	605a      	str	r2, [r3, #4]
      }

      /* Activate the Pull-up or Pull down resistor for the current IO */
      if ((GPIO_Init->Mode & GPIO_MODE) != MODE_ANALOG)
10044d22:	683b      	ldr	r3, [r7, #0]
10044d24:	685b      	ldr	r3, [r3, #4]
10044d26:	2203      	movs	r2, #3
10044d28:	4013      	ands	r3, r2
10044d2a:	2b03      	cmp	r3, #3
10044d2c:	d018      	beq.n	10044d60 <HAL_GPIO_Init+0xe0>
      {
        temp = GPIOx->PUPDR;
10044d2e:	687b      	ldr	r3, [r7, #4]
10044d30:	68db      	ldr	r3, [r3, #12]
10044d32:	613b      	str	r3, [r7, #16]
        temp &= ~(GPIO_PUPDR_PUPD0 << (position * 2U));
10044d34:	697b      	ldr	r3, [r7, #20]
10044d36:	005b      	lsls	r3, r3, #1
10044d38:	2203      	movs	r2, #3
10044d3a:	409a      	lsls	r2, r3
10044d3c:	0013      	movs	r3, r2
10044d3e:	43da      	mvns	r2, r3
10044d40:	693b      	ldr	r3, [r7, #16]
10044d42:	4013      	ands	r3, r2
10044d44:	613b      	str	r3, [r7, #16]
        temp |= ((GPIO_Init->Pull) << (position * 2U));
10044d46:	683b      	ldr	r3, [r7, #0]
10044d48:	689a      	ldr	r2, [r3, #8]
10044d4a:	697b      	ldr	r3, [r7, #20]
10044d4c:	005b      	lsls	r3, r3, #1
10044d4e:	409a      	lsls	r2, r3
10044d50:	0013      	movs	r3, r2
10044d52:	693a      	ldr	r2, [r7, #16]
10044d54:	4313      	orrs	r3, r2
10044d56:	613b      	str	r3, [r7, #16]
        GPIOx->PUPDR = temp;
10044d58:	687b      	ldr	r3, [r7, #4]
10044d5a:	693a      	ldr	r2, [r7, #16]
10044d5c:	60da      	str	r2, [r3, #12]
10044d5e:	e00e      	b.n	10044d7e <HAL_GPIO_Init+0xfe>
      }
      else
      {
        temp = GPIOx->PUPDR;
10044d60:	687b      	ldr	r3, [r7, #4]
10044d62:	68db      	ldr	r3, [r3, #12]
10044d64:	613b      	str	r3, [r7, #16]
        temp &= ~(GPIO_PUPDR_PUPD0 << (position * 2U));
10044d66:	697b      	ldr	r3, [r7, #20]
10044d68:	005b      	lsls	r3, r3, #1
10044d6a:	2203      	movs	r2, #3
10044d6c:	409a      	lsls	r2, r3
10044d6e:	0013      	movs	r3, r2
10044d70:	43da      	mvns	r2, r3
10044d72:	693b      	ldr	r3, [r7, #16]
10044d74:	4013      	ands	r3, r2
10044d76:	613b      	str	r3, [r7, #16]
        GPIOx->PUPDR = temp;
10044d78:	687b      	ldr	r3, [r7, #4]
10044d7a:	693a      	ldr	r2, [r7, #16]
10044d7c:	60da      	str	r2, [r3, #12]
      }

      /* In case of Alternate function mode selection */
      if ((GPIO_Init->Mode & GPIO_MODE) == MODE_AF)
10044d7e:	683b      	ldr	r3, [r7, #0]
10044d80:	685b      	ldr	r3, [r3, #4]
10044d82:	2203      	movs	r2, #3
10044d84:	4013      	ands	r3, r2
10044d86:	2b02      	cmp	r3, #2
10044d88:	d123      	bne.n	10044dd2 <HAL_GPIO_Init+0x152>
        /* Check the Alternate function parameters */
        assert_param(IS_GPIO_AF_INSTANCE(GPIOx));
        assert_param(IS_GPIO_AF(GPIO_Init->Alternate));

        /* Configure Alternate function mapped with the current IO */
        temp = GPIOx->AFR[position >> 3u];
10044d8a:	697b      	ldr	r3, [r7, #20]
10044d8c:	08da      	lsrs	r2, r3, #3
10044d8e:	687b      	ldr	r3, [r7, #4]
10044d90:	3208      	adds	r2, #8
10044d92:	0092      	lsls	r2, r2, #2
10044d94:	58d3      	ldr	r3, [r2, r3]
10044d96:	613b      	str	r3, [r7, #16]
        temp &= ~(0xFu << ((position & 0x07u) * 4u));
10044d98:	697b      	ldr	r3, [r7, #20]
10044d9a:	2207      	movs	r2, #7
10044d9c:	4013      	ands	r3, r2
10044d9e:	009b      	lsls	r3, r3, #2
10044da0:	220f      	movs	r2, #15
10044da2:	409a      	lsls	r2, r3
10044da4:	0013      	movs	r3, r2
10044da6:	43da      	mvns	r2, r3
10044da8:	693b      	ldr	r3, [r7, #16]
10044daa:	4013      	ands	r3, r2
10044dac:	613b      	str	r3, [r7, #16]
        temp |= ((GPIO_Init->Alternate) << ((position & 0x07u) * 4u));
10044dae:	683b      	ldr	r3, [r7, #0]
10044db0:	691a      	ldr	r2, [r3, #16]
10044db2:	697b      	ldr	r3, [r7, #20]
10044db4:	2107      	movs	r1, #7
10044db6:	400b      	ands	r3, r1
10044db8:	009b      	lsls	r3, r3, #2
10044dba:	409a      	lsls	r2, r3
10044dbc:	0013      	movs	r3, r2
10044dbe:	693a      	ldr	r2, [r7, #16]
10044dc0:	4313      	orrs	r3, r2
10044dc2:	613b      	str	r3, [r7, #16]
        GPIOx->AFR[position >> 3u] = temp;
10044dc4:	697b      	ldr	r3, [r7, #20]
10044dc6:	08da      	lsrs	r2, r3, #3
10044dc8:	687b      	ldr	r3, [r7, #4]
10044dca:	3208      	adds	r2, #8
10044dcc:	0092      	lsls	r2, r2, #2
10044dce:	6939      	ldr	r1, [r7, #16]
10044dd0:	50d1      	str	r1, [r2, r3]
      }

      /* Configure IO Direction mode (Input, Output, Alternate or Analog) */
      temp = GPIOx->MODER;
10044dd2:	687b      	ldr	r3, [r7, #4]
10044dd4:	681b      	ldr	r3, [r3, #0]
10044dd6:	613b      	str	r3, [r7, #16]
      temp &= ~(GPIO_MODER_MODE0 << (position * 2u));
10044dd8:	697b      	ldr	r3, [r7, #20]
10044dda:	005b      	lsls	r3, r3, #1
10044ddc:	2203      	movs	r2, #3
10044dde:	409a      	lsls	r2, r3
10044de0:	0013      	movs	r3, r2
10044de2:	43da      	mvns	r2, r3
10044de4:	693b      	ldr	r3, [r7, #16]
10044de6:	4013      	ands	r3, r2
10044de8:	613b      	str	r3, [r7, #16]
      temp |= ((GPIO_Init->Mode & GPIO_MODE) << (position * 2u));
10044dea:	683b      	ldr	r3, [r7, #0]
10044dec:	685b      	ldr	r3, [r3, #4]
10044dee:	2203      	movs	r2, #3
10044df0:	401a      	ands	r2, r3
10044df2:	697b      	ldr	r3, [r7, #20]
10044df4:	005b      	lsls	r3, r3, #1
10044df6:	409a      	lsls	r2, r3
10044df8:	0013      	movs	r3, r2
10044dfa:	693a      	ldr	r2, [r7, #16]
10044dfc:	4313      	orrs	r3, r2
10044dfe:	613b      	str	r3, [r7, #16]
      GPIOx->MODER = temp;
10044e00:	687b      	ldr	r3, [r7, #4]
10044e02:	693a      	ldr	r2, [r7, #16]
10044e04:	601a      	str	r2, [r3, #0]

      /*--------------------- EXTI Mode Configuration ------------------------*/
      /* Configure the External Interrupt or event for the current IO */
      if ((GPIO_Init->Mode & EXTI_MODE) != 0x00u)
10044e06:	683b      	ldr	r3, [r7, #0]
10044e08:	685a      	ldr	r2, [r3, #4]
10044e0a:	23c0      	movs	r3, #192	@ 0xc0
10044e0c:	029b      	lsls	r3, r3, #10
10044e0e:	4013      	ands	r3, r2
10044e10:	d100      	bne.n	10044e14 <HAL_GPIO_Init+0x194>
10044e12:	e0db      	b.n	10044fcc <HAL_GPIO_Init+0x34c>
      {

        /* Edge/Level line configuration */
        if ((GPIO_Init->Mode & DETECTION_TYPE) != 0x00u)
10044e14:	683b      	ldr	r3, [r7, #0]
10044e16:	685a      	ldr	r2, [r3, #4]
10044e18:	2380      	movs	r3, #128	@ 0x80
10044e1a:	02db      	lsls	r3, r3, #11
10044e1c:	4013      	ands	r3, r2
10044e1e:	d030      	beq.n	10044e82 <HAL_GPIO_Init+0x202>
        {
          temp = SYSCFG->IO_DTR;
10044e20:	2380      	movs	r3, #128	@ 0x80
10044e22:	05db      	lsls	r3, r3, #23
10044e24:	68db      	ldr	r3, [r3, #12]
10044e26:	613b      	str	r3, [r7, #16]
          if (GPIOx == GPIOA)
10044e28:	687a      	ldr	r2, [r7, #4]
10044e2a:	2390      	movs	r3, #144	@ 0x90
10044e2c:	05db      	lsls	r3, r3, #23
10044e2e:	429a      	cmp	r2, r3
10044e30:	d111      	bne.n	10044e56 <HAL_GPIO_Init+0x1d6>
          {
            temp &= ~(1 << position);
10044e32:	2201      	movs	r2, #1
10044e34:	697b      	ldr	r3, [r7, #20]
10044e36:	409a      	lsls	r2, r3
10044e38:	0013      	movs	r3, r2
10044e3a:	43db      	mvns	r3, r3
10044e3c:	001a      	movs	r2, r3
10044e3e:	693b      	ldr	r3, [r7, #16]
10044e40:	4013      	ands	r3, r2
10044e42:	613b      	str	r3, [r7, #16]
            temp |= (1 << position);
10044e44:	2201      	movs	r2, #1
10044e46:	697b      	ldr	r3, [r7, #20]
10044e48:	409a      	lsls	r2, r3
10044e4a:	0013      	movs	r3, r2
10044e4c:	001a      	movs	r2, r3
10044e4e:	693b      	ldr	r3, [r7, #16]
10044e50:	4313      	orrs	r3, r2
10044e52:	613b      	str	r3, [r7, #16]
10044e54:	e011      	b.n	10044e7a <HAL_GPIO_Init+0x1fa>
          }
          else
          {
            temp &= ~((1 << position) << 16);
10044e56:	2201      	movs	r2, #1
10044e58:	697b      	ldr	r3, [r7, #20]
10044e5a:	409a      	lsls	r2, r3
10044e5c:	0013      	movs	r3, r2
10044e5e:	041b      	lsls	r3, r3, #16
10044e60:	43db      	mvns	r3, r3
10044e62:	001a      	movs	r2, r3
10044e64:	693b      	ldr	r3, [r7, #16]
10044e66:	4013      	ands	r3, r2
10044e68:	613b      	str	r3, [r7, #16]
            temp |= ((1 << position) << 16);
10044e6a:	2201      	movs	r2, #1
10044e6c:	697b      	ldr	r3, [r7, #20]
10044e6e:	409a      	lsls	r2, r3
10044e70:	0013      	movs	r3, r2
10044e72:	041b      	lsls	r3, r3, #16
10044e74:	693a      	ldr	r2, [r7, #16]
10044e76:	4313      	orrs	r3, r2
10044e78:	613b      	str	r3, [r7, #16]
          }
          SYSCFG->IO_DTR = temp;
10044e7a:	2380      	movs	r3, #128	@ 0x80
10044e7c:	05db      	lsls	r3, r3, #23
10044e7e:	693a      	ldr	r2, [r7, #16]
10044e80:	60da      	str	r2, [r3, #12]
        }

		/* Edge selection configuration */
		if ((GPIO_Init->Mode & EDGE_SELECTION) != 0x00u)
10044e82:	683b      	ldr	r3, [r7, #0]
10044e84:	685a      	ldr	r2, [r3, #4]
10044e86:	2380      	movs	r3, #128	@ 0x80
10044e88:	035b      	lsls	r3, r3, #13
10044e8a:	4013      	ands	r3, r2
10044e8c:	d030      	beq.n	10044ef0 <HAL_GPIO_Init+0x270>
        {
          temp = SYSCFG->IO_IBER;
10044e8e:	2380      	movs	r3, #128	@ 0x80
10044e90:	05db      	lsls	r3, r3, #23
10044e92:	691b      	ldr	r3, [r3, #16]
10044e94:	613b      	str	r3, [r7, #16]

          if (GPIOx == GPIOA)
10044e96:	687a      	ldr	r2, [r7, #4]
10044e98:	2390      	movs	r3, #144	@ 0x90
10044e9a:	05db      	lsls	r3, r3, #23
10044e9c:	429a      	cmp	r2, r3
10044e9e:	d111      	bne.n	10044ec4 <HAL_GPIO_Init+0x244>
          {
            temp &= ~(1 << position);
10044ea0:	2201      	movs	r2, #1
10044ea2:	697b      	ldr	r3, [r7, #20]
10044ea4:	409a      	lsls	r2, r3
10044ea6:	0013      	movs	r3, r2
10044ea8:	43db      	mvns	r3, r3
10044eaa:	001a      	movs	r2, r3
10044eac:	693b      	ldr	r3, [r7, #16]
10044eae:	4013      	ands	r3, r2
10044eb0:	613b      	str	r3, [r7, #16]
            temp |= (1 << position);
10044eb2:	2201      	movs	r2, #1
10044eb4:	697b      	ldr	r3, [r7, #20]
10044eb6:	409a      	lsls	r2, r3
10044eb8:	0013      	movs	r3, r2
10044eba:	001a      	movs	r2, r3
10044ebc:	693b      	ldr	r3, [r7, #16]
10044ebe:	4313      	orrs	r3, r2
10044ec0:	613b      	str	r3, [r7, #16]
10044ec2:	e011      	b.n	10044ee8 <HAL_GPIO_Init+0x268>
          }
          else
          {
            temp &= ~((1 << position) << 16);
10044ec4:	2201      	movs	r2, #1
10044ec6:	697b      	ldr	r3, [r7, #20]
10044ec8:	409a      	lsls	r2, r3
10044eca:	0013      	movs	r3, r2
10044ecc:	041b      	lsls	r3, r3, #16
10044ece:	43db      	mvns	r3, r3
10044ed0:	001a      	movs	r2, r3
10044ed2:	693b      	ldr	r3, [r7, #16]
10044ed4:	4013      	ands	r3, r2
10044ed6:	613b      	str	r3, [r7, #16]
            temp |= ((1 << position) << 16);
10044ed8:	2201      	movs	r2, #1
10044eda:	697b      	ldr	r3, [r7, #20]
10044edc:	409a      	lsls	r2, r3
10044ede:	0013      	movs	r3, r2
10044ee0:	041b      	lsls	r3, r3, #16
10044ee2:	693a      	ldr	r2, [r7, #16]
10044ee4:	4313      	orrs	r3, r2
10044ee6:	613b      	str	r3, [r7, #16]
          }
          SYSCFG->IO_IBER= temp;
10044ee8:	2380      	movs	r3, #128	@ 0x80
10044eea:	05db      	lsls	r3, r3, #23
10044eec:	693a      	ldr	r2, [r7, #16]
10044eee:	611a      	str	r2, [r3, #16]
        }

        /* Trigger mode configuration */
		if ((GPIO_Init->Mode & TRIGGER_MODE) != 0x00u)
10044ef0:	683b      	ldr	r3, [r7, #0]
10044ef2:	685a      	ldr	r2, [r3, #4]
10044ef4:	2380      	movs	r3, #128	@ 0x80
10044ef6:	03db      	lsls	r3, r3, #15
10044ef8:	4013      	ands	r3, r2
10044efa:	d030      	beq.n	10044f5e <HAL_GPIO_Init+0x2de>
        {
          temp = SYSCFG->IO_IEVR;
10044efc:	2380      	movs	r3, #128	@ 0x80
10044efe:	05db      	lsls	r3, r3, #23
10044f00:	695b      	ldr	r3, [r3, #20]
10044f02:	613b      	str	r3, [r7, #16]

          if (GPIOx == GPIOA)
10044f04:	687a      	ldr	r2, [r7, #4]
10044f06:	2390      	movs	r3, #144	@ 0x90
10044f08:	05db      	lsls	r3, r3, #23
10044f0a:	429a      	cmp	r2, r3
10044f0c:	d111      	bne.n	10044f32 <HAL_GPIO_Init+0x2b2>
          {
            temp &= ~(1 << position);
10044f0e:	2201      	movs	r2, #1
10044f10:	697b      	ldr	r3, [r7, #20]
10044f12:	409a      	lsls	r2, r3
10044f14:	0013      	movs	r3, r2
10044f16:	43db      	mvns	r3, r3
10044f18:	001a      	movs	r2, r3
10044f1a:	693b      	ldr	r3, [r7, #16]
10044f1c:	4013      	ands	r3, r2
10044f1e:	613b      	str	r3, [r7, #16]
            temp |= (1 << position);
10044f20:	2201      	movs	r2, #1
10044f22:	697b      	ldr	r3, [r7, #20]
10044f24:	409a      	lsls	r2, r3
10044f26:	0013      	movs	r3, r2
10044f28:	001a      	movs	r2, r3
10044f2a:	693b      	ldr	r3, [r7, #16]
10044f2c:	4313      	orrs	r3, r2
10044f2e:	613b      	str	r3, [r7, #16]
10044f30:	e011      	b.n	10044f56 <HAL_GPIO_Init+0x2d6>
          }
          else
          {
            temp &= ~((1 << position) << 16);
10044f32:	2201      	movs	r2, #1
10044f34:	697b      	ldr	r3, [r7, #20]
10044f36:	409a      	lsls	r2, r3
10044f38:	0013      	movs	r3, r2
10044f3a:	041b      	lsls	r3, r3, #16
10044f3c:	43db      	mvns	r3, r3
10044f3e:	001a      	movs	r2, r3
10044f40:	693b      	ldr	r3, [r7, #16]
10044f42:	4013      	ands	r3, r2
10044f44:	613b      	str	r3, [r7, #16]
            temp |= ((1 << position) << 16);
10044f46:	2201      	movs	r2, #1
10044f48:	697b      	ldr	r3, [r7, #20]
10044f4a:	409a      	lsls	r2, r3
10044f4c:	0013      	movs	r3, r2
10044f4e:	041b      	lsls	r3, r3, #16
10044f50:	693a      	ldr	r2, [r7, #16]
10044f52:	4313      	orrs	r3, r2
10044f54:	613b      	str	r3, [r7, #16]
          }
          SYSCFG->IO_IEVR= temp;
10044f56:	2380      	movs	r3, #128	@ 0x80
10044f58:	05db      	lsls	r3, r3, #23
10044f5a:	693a      	ldr	r2, [r7, #16]
10044f5c:	615a      	str	r2, [r3, #20]
        }

        /* Enable the specified EXTI interrupt line */
        if ((GPIO_Init->Mode & EXTI_IT) == EXTI_IT)
10044f5e:	683b      	ldr	r3, [r7, #0]
10044f60:	685a      	ldr	r2, [r3, #4]
10044f62:	2380      	movs	r3, #128	@ 0x80
10044f64:	025b      	lsls	r3, r3, #9
10044f66:	4013      	ands	r3, r2
10044f68:	d030      	beq.n	10044fcc <HAL_GPIO_Init+0x34c>
        {
          temp = SYSCFG->IO_IER;
10044f6a:	2380      	movs	r3, #128	@ 0x80
10044f6c:	05db      	lsls	r3, r3, #23
10044f6e:	699b      	ldr	r3, [r3, #24]
10044f70:	613b      	str	r3, [r7, #16]

          if (GPIOx == GPIOA)
10044f72:	687a      	ldr	r2, [r7, #4]
10044f74:	2390      	movs	r3, #144	@ 0x90
10044f76:	05db      	lsls	r3, r3, #23
10044f78:	429a      	cmp	r2, r3
10044f7a:	d111      	bne.n	10044fa0 <HAL_GPIO_Init+0x320>
          {
            temp &= ~(1 << position);
10044f7c:	2201      	movs	r2, #1
10044f7e:	697b      	ldr	r3, [r7, #20]
10044f80:	409a      	lsls	r2, r3
10044f82:	0013      	movs	r3, r2
10044f84:	43db      	mvns	r3, r3
10044f86:	001a      	movs	r2, r3
10044f88:	693b      	ldr	r3, [r7, #16]
10044f8a:	4013      	ands	r3, r2
10044f8c:	613b      	str	r3, [r7, #16]
            temp |= (1 << position);
10044f8e:	2201      	movs	r2, #1
10044f90:	697b      	ldr	r3, [r7, #20]
10044f92:	409a      	lsls	r2, r3
10044f94:	0013      	movs	r3, r2
10044f96:	001a      	movs	r2, r3
10044f98:	693b      	ldr	r3, [r7, #16]
10044f9a:	4313      	orrs	r3, r2
10044f9c:	613b      	str	r3, [r7, #16]
10044f9e:	e011      	b.n	10044fc4 <HAL_GPIO_Init+0x344>
          }
          else
          {
            temp &= ~((1 << position) << 16);
10044fa0:	2201      	movs	r2, #1
10044fa2:	697b      	ldr	r3, [r7, #20]
10044fa4:	409a      	lsls	r2, r3
10044fa6:	0013      	movs	r3, r2
10044fa8:	041b      	lsls	r3, r3, #16
10044faa:	43db      	mvns	r3, r3
10044fac:	001a      	movs	r2, r3
10044fae:	693b      	ldr	r3, [r7, #16]
10044fb0:	4013      	ands	r3, r2
10044fb2:	613b      	str	r3, [r7, #16]
            temp |= ((1 << position) << 16);
10044fb4:	2201      	movs	r2, #1
10044fb6:	697b      	ldr	r3, [r7, #20]
10044fb8:	409a      	lsls	r2, r3
10044fba:	0013      	movs	r3, r2
10044fbc:	041b      	lsls	r3, r3, #16
10044fbe:	693a      	ldr	r2, [r7, #16]
10044fc0:	4313      	orrs	r3, r2
10044fc2:	613b      	str	r3, [r7, #16]
          }
          SYSCFG->IO_IER= temp;
10044fc4:	2380      	movs	r3, #128	@ 0x80
10044fc6:	05db      	lsls	r3, r3, #23
10044fc8:	693a      	ldr	r2, [r7, #16]
10044fca:	619a      	str	r2, [r3, #24]
        }
      }
    }

    position++;
10044fcc:	697b      	ldr	r3, [r7, #20]
10044fce:	3301      	adds	r3, #1
10044fd0:	617b      	str	r3, [r7, #20]
  while (((GPIO_Init->Pin) >> position) != 0x00u)
10044fd2:	683b      	ldr	r3, [r7, #0]
10044fd4:	681a      	ldr	r2, [r3, #0]
10044fd6:	697b      	ldr	r3, [r7, #20]
10044fd8:	40da      	lsrs	r2, r3
10044fda:	1e13      	subs	r3, r2, #0
10044fdc:	d000      	beq.n	10044fe0 <HAL_GPIO_Init+0x360>
10044fde:	e657      	b.n	10044c90 <HAL_GPIO_Init+0x10>
  }
}
10044fe0:	46c0      	nop			@ (mov r8, r8)
10044fe2:	46c0      	nop			@ (mov r8, r8)
10044fe4:	46bd      	mov	sp, r7
10044fe6:	b006      	add	sp, #24
10044fe8:	bd80      	pop	{r7, pc}

10044fea <HAL_GPIO_WritePin>:
  *            @arg GPIO_PIN_RESET: to clear the port pin
  *            @arg GPIO_PIN_SET: to set the port pin
  * @retval None
  */
void HAL_GPIO_WritePin(GPIO_TypeDef *GPIOx, uint16_t GPIO_Pin, GPIO_PinState PinState)
{
10044fea:	b580      	push	{r7, lr}
10044fec:	b082      	sub	sp, #8
10044fee:	af00      	add	r7, sp, #0
10044ff0:	6078      	str	r0, [r7, #4]
10044ff2:	0008      	movs	r0, r1
10044ff4:	0011      	movs	r1, r2
10044ff6:	1cbb      	adds	r3, r7, #2
10044ff8:	1c02      	adds	r2, r0, #0
10044ffa:	801a      	strh	r2, [r3, #0]
10044ffc:	1c7b      	adds	r3, r7, #1
10044ffe:	1c0a      	adds	r2, r1, #0
10045000:	701a      	strb	r2, [r3, #0]
  /* Check the parameters */
  assert_param(IS_GPIO_PIN(GPIO_Pin));
  assert_param(IS_GPIO_PIN_ACTION(PinState));

  if (PinState != GPIO_PIN_RESET)
10045002:	1c7b      	adds	r3, r7, #1
10045004:	781b      	ldrb	r3, [r3, #0]
10045006:	2b00      	cmp	r3, #0
10045008:	d004      	beq.n	10045014 <HAL_GPIO_WritePin+0x2a>
  {
    GPIOx->BSRR = (uint32_t)GPIO_Pin;
1004500a:	1cbb      	adds	r3, r7, #2
1004500c:	881a      	ldrh	r2, [r3, #0]
1004500e:	687b      	ldr	r3, [r7, #4]
10045010:	619a      	str	r2, [r3, #24]
  }
  else
  {
    GPIOx->BRR = (uint32_t)GPIO_Pin;
  }
}
10045012:	e003      	b.n	1004501c <HAL_GPIO_WritePin+0x32>
    GPIOx->BRR = (uint32_t)GPIO_Pin;
10045014:	1cbb      	adds	r3, r7, #2
10045016:	881a      	ldrh	r2, [r3, #0]
10045018:	687b      	ldr	r3, [r7, #4]
1004501a:	629a      	str	r2, [r3, #40]	@ 0x28
}
1004501c:	46c0      	nop			@ (mov r8, r8)
1004501e:	46bd      	mov	sp, r7
10045020:	b002      	add	sp, #8
10045022:	bd80      	pop	{r7, pc}

10045024 <LL_MRSubG_SetPAMode>:
  * @brief  Set the PA Mode.
  * @param  paMode the PA Mode.
  * @retval None.
  */
__STATIC_INLINE void LL_MRSubG_SetPAMode(MRSubG_PAMode paMode)
{
10045024:	b580      	push	{r7, lr}
10045026:	b082      	sub	sp, #8
10045028:	af00      	add	r7, sp, #0
1004502a:	0002      	movs	r2, r0
1004502c:	1dfb      	adds	r3, r7, #7
1004502e:	701a      	strb	r2, [r3, #0]
  MODIFY_REG_FIELD(MR_SUBG_GLOB_STATIC->PA_CONFIG, MR_SUBG_GLOB_STATIC_PA_CONFIG_PA_MODE, paMode);
10045030:	4b08      	ldr	r3, [pc, #32]	@ (10045054 <LL_MRSubG_SetPAMode+0x30>)
10045032:	6a9b      	ldr	r3, [r3, #40]	@ 0x28
10045034:	4a08      	ldr	r2, [pc, #32]	@ (10045058 <LL_MRSubG_SetPAMode+0x34>)
10045036:	4013      	ands	r3, r2
10045038:	0019      	movs	r1, r3
1004503a:	1dfb      	adds	r3, r7, #7
1004503c:	781b      	ldrb	r3, [r3, #0]
1004503e:	029a      	lsls	r2, r3, #10
10045040:	23c0      	movs	r3, #192	@ 0xc0
10045042:	011b      	lsls	r3, r3, #4
10045044:	401a      	ands	r2, r3
10045046:	4b03      	ldr	r3, [pc, #12]	@ (10045054 <LL_MRSubG_SetPAMode+0x30>)
10045048:	430a      	orrs	r2, r1
1004504a:	629a      	str	r2, [r3, #40]	@ 0x28
}
1004504c:	46c0      	nop			@ (mov r8, r8)
1004504e:	46bd      	mov	sp, r7
10045050:	b002      	add	sp, #8
10045052:	bd80      	pop	{r7, pc}
10045054:	49000400 	.word	0x49000400
10045058:	fffff3ff 	.word	0xfffff3ff

1004505c <LL_MRSubG_SetPADriveMode>:
  * @brief  Set the PA Drive Mode.
  * @param  paDrvMode the PA Drive Mode.
  * @retval None.
  */
__STATIC_INLINE void LL_MRSubG_SetPADriveMode(MRSubG_PA_DRVMode paDrvMode)
{
1004505c:	b580      	push	{r7, lr}
1004505e:	b082      	sub	sp, #8
10045060:	af00      	add	r7, sp, #0
10045062:	0002      	movs	r2, r0
10045064:	1dfb      	adds	r3, r7, #7
10045066:	701a      	strb	r2, [r3, #0]
  MODIFY_REG_FIELD(MR_SUBG_GLOB_STATIC->PA_CONFIG, MR_SUBG_GLOB_STATIC_PA_CONFIG_PA_DRV_MODE, paDrvMode);
10045068:	4b08      	ldr	r3, [pc, #32]	@ (1004508c <LL_MRSubG_SetPADriveMode+0x30>)
1004506a:	6a9b      	ldr	r3, [r3, #40]	@ 0x28
1004506c:	4a08      	ldr	r2, [pc, #32]	@ (10045090 <LL_MRSubG_SetPADriveMode+0x34>)
1004506e:	4013      	ands	r3, r2
10045070:	0019      	movs	r1, r3
10045072:	1dfb      	adds	r3, r7, #7
10045074:	781b      	ldrb	r3, [r3, #0]
10045076:	021a      	lsls	r2, r3, #8
10045078:	23c0      	movs	r3, #192	@ 0xc0
1004507a:	009b      	lsls	r3, r3, #2
1004507c:	401a      	ands	r2, r3
1004507e:	4b03      	ldr	r3, [pc, #12]	@ (1004508c <LL_MRSubG_SetPADriveMode+0x30>)
10045080:	430a      	orrs	r2, r1
10045082:	629a      	str	r2, [r3, #40]	@ 0x28
}
10045084:	46c0      	nop			@ (mov r8, r8)
10045086:	46bd      	mov	sp, r7
10045088:	b002      	add	sp, #8
1004508a:	bd80      	pop	{r7, pc}
1004508c:	49000400 	.word	0x49000400
10045090:	fffffcff 	.word	0xfffffcff

10045094 <LL_MRSubG_SetPADegen>:
  *         which introduces a pre-distortion to linearize the power control curve.
  * @param  xNewState enable (ENABLE) to enable or disable (DISABLE) the degeneration.
  * @retval None.
  */
__STATIC_INLINE void LL_MRSubG_SetPADegen(FunctionalState xNewState)
{
10045094:	b580      	push	{r7, lr}
10045096:	b082      	sub	sp, #8
10045098:	af00      	add	r7, sp, #0
1004509a:	0002      	movs	r2, r0
1004509c:	1dfb      	adds	r3, r7, #7
1004509e:	701a      	strb	r2, [r3, #0]
  if (xNewState == ENABLE)
100450a0:	1dfb      	adds	r3, r7, #7
100450a2:	781b      	ldrb	r3, [r3, #0]
100450a4:	2b01      	cmp	r3, #1
100450a6:	d10a      	bne.n	100450be <LL_MRSubG_SetPADegen+0x2a>
  {
    SET_BIT(MR_SUBG_RADIO->PA_REG, MR_SUBG_RADIO_PA_REG_PA_DEGEN_ON);
100450a8:	2392      	movs	r3, #146	@ 0x92
100450aa:	05db      	lsls	r3, r3, #23
100450ac:	22a8      	movs	r2, #168	@ 0xa8
100450ae:	589a      	ldr	r2, [r3, r2]
100450b0:	2392      	movs	r3, #146	@ 0x92
100450b2:	05db      	lsls	r3, r3, #23
100450b4:	2108      	movs	r1, #8
100450b6:	430a      	orrs	r2, r1
100450b8:	21a8      	movs	r1, #168	@ 0xa8
100450ba:	505a      	str	r2, [r3, r1]
  }
  else
  {
    CLEAR_BIT(MR_SUBG_RADIO->PA_REG, MR_SUBG_RADIO_PA_REG_PA_DEGEN_ON);
  }
}
100450bc:	e009      	b.n	100450d2 <LL_MRSubG_SetPADegen+0x3e>
    CLEAR_BIT(MR_SUBG_RADIO->PA_REG, MR_SUBG_RADIO_PA_REG_PA_DEGEN_ON);
100450be:	2392      	movs	r3, #146	@ 0x92
100450c0:	05db      	lsls	r3, r3, #23
100450c2:	22a8      	movs	r2, #168	@ 0xa8
100450c4:	589a      	ldr	r2, [r3, r2]
100450c6:	2392      	movs	r3, #146	@ 0x92
100450c8:	05db      	lsls	r3, r3, #23
100450ca:	2108      	movs	r1, #8
100450cc:	438a      	bics	r2, r1
100450ce:	21a8      	movs	r1, #168	@ 0xa8
100450d0:	505a      	str	r2, [r3, r1]
}
100450d2:	46c0      	nop			@ (mov r8, r8)
100450d4:	46bd      	mov	sp, r7
100450d6:	b002      	add	sp, #8
100450d8:	bd80      	pop	{r7, pc}
	...

100450dc <LL_MRSubG_PacketHandlerSetWhiteningInit>:
  * @param  whit_init Whitening initialization value.
  *         In 802.15.4 standard, this initialization seed must be programmed to 0x1FF.
  * @retval None.
  */
__STATIC_INLINE void LL_MRSubG_PacketHandlerSetWhiteningInit(uint16_t whit_init)
{
100450dc:	b580      	push	{r7, lr}
100450de:	b082      	sub	sp, #8
100450e0:	af00      	add	r7, sp, #0
100450e2:	0002      	movs	r2, r0
100450e4:	1dbb      	adds	r3, r7, #6
100450e6:	801a      	strh	r2, [r3, #0]
  MODIFY_REG_FIELD(MR_SUBG_GLOB_STATIC->PCKT_CTRL, MR_SUBG_GLOB_STATIC_PCKT_CTRL_WHIT_INIT, whit_init);
100450e8:	4b08      	ldr	r3, [pc, #32]	@ (1004510c <LL_MRSubG_PacketHandlerSetWhiteningInit+0x30>)
100450ea:	691b      	ldr	r3, [r3, #16]
100450ec:	4a08      	ldr	r2, [pc, #32]	@ (10045110 <LL_MRSubG_PacketHandlerSetWhiteningInit+0x34>)
100450ee:	4013      	ands	r3, r2
100450f0:	0019      	movs	r1, r3
100450f2:	1dbb      	adds	r3, r7, #6
100450f4:	881b      	ldrh	r3, [r3, #0]
100450f6:	031b      	lsls	r3, r3, #12
100450f8:	4a06      	ldr	r2, [pc, #24]	@ (10045114 <LL_MRSubG_PacketHandlerSetWhiteningInit+0x38>)
100450fa:	401a      	ands	r2, r3
100450fc:	4b03      	ldr	r3, [pc, #12]	@ (1004510c <LL_MRSubG_PacketHandlerSetWhiteningInit+0x30>)
100450fe:	430a      	orrs	r2, r1
10045100:	611a      	str	r2, [r3, #16]
}
10045102:	46c0      	nop			@ (mov r8, r8)
10045104:	46bd      	mov	sp, r7
10045106:	b002      	add	sp, #8
10045108:	bd80      	pop	{r7, pc}
1004510a:	46c0      	nop			@ (mov r8, r8)
1004510c:	49000400 	.word	0x49000400
10045110:	ffe00fff 	.word	0xffe00fff
10045114:	001ff000 	.word	0x001ff000

10045118 <MRSubG_ComputeSynthWord>:
  * @param  synth_frac pointer to the fract part of the synth word
  * @param  band pointer to the high/low band selector
  * @retval None.
  */
static void MRSubG_ComputeSynthWord(uint32_t frequency, uint8_t *synth_int, uint32_t *synth_frac, uint8_t *band)
{
10045118:	b5f0      	push	{r4, r5, r6, r7, lr}
1004511a:	b08b      	sub	sp, #44	@ 0x2c
1004511c:	af00      	add	r7, sp, #0
1004511e:	6278      	str	r0, [r7, #36]	@ 0x24
10045120:	6239      	str	r1, [r7, #32]
10045122:	61fa      	str	r2, [r7, #28]
10045124:	61bb      	str	r3, [r7, #24]
  if (IS_FREQUENCY_BAND_HIGH(frequency))
10045126:	6a7b      	ldr	r3, [r7, #36]	@ 0x24
10045128:	4a25      	ldr	r2, [pc, #148]	@ (100451c0 <MRSubG_ComputeSynthWord+0xa8>)
1004512a:	4293      	cmp	r3, r2
1004512c:	d907      	bls.n	1004513e <MRSubG_ComputeSynthWord+0x26>
1004512e:	6a7b      	ldr	r3, [r7, #36]	@ 0x24
10045130:	4a24      	ldr	r2, [pc, #144]	@ (100451c4 <MRSubG_ComputeSynthWord+0xac>)
10045132:	4293      	cmp	r3, r2
10045134:	d803      	bhi.n	1004513e <MRSubG_ComputeSynthWord+0x26>
  {
    *band = HIGH_BAND_FACTOR;
10045136:	69bb      	ldr	r3, [r7, #24]
10045138:	2204      	movs	r2, #4
1004513a:	701a      	strb	r2, [r3, #0]
1004513c:	e002      	b.n	10045144 <MRSubG_ComputeSynthWord+0x2c>
    *band = LOW_LOW_BAND_FACTOR;
  }
#endif /* STM32WL3RX */
  else
  {
    *band = LOW_BAND_FACTOR;
1004513e:	69bb      	ldr	r3, [r7, #24]
10045140:	2208      	movs	r2, #8
10045142:	701a      	strb	r2, [r3, #0]
  }

  *synth_int = (uint32_t)(*band * frequency / LL_GetXTALFreq());
10045144:	69bb      	ldr	r3, [r7, #24]
10045146:	781b      	ldrb	r3, [r3, #0]
10045148:	001a      	movs	r2, r3
1004514a:	6a7b      	ldr	r3, [r7, #36]	@ 0x24
1004514c:	4353      	muls	r3, r2
1004514e:	001e      	movs	r6, r3
10045150:	f004 f9f0 	bl	10049534 <LL_GetXTALFreq>
10045154:	0003      	movs	r3, r0
10045156:	0019      	movs	r1, r3
10045158:	0030      	movs	r0, r6
1004515a:	f7fa ffb1 	bl	100400c0 <__udivsi3>
1004515e:	0003      	movs	r3, r0
10045160:	b2da      	uxtb	r2, r3
10045162:	6a3b      	ldr	r3, [r7, #32]
10045164:	701a      	strb	r2, [r3, #0]

  *synth_frac = (uint32_t)(((*band * (uint64_t)frequency * (1 << 20)) / LL_GetXTALFreq()) - (*synth_int * (1 << 20)));
10045166:	69bb      	ldr	r3, [r7, #24]
10045168:	781b      	ldrb	r3, [r3, #0]
1004516a:	613b      	str	r3, [r7, #16]
1004516c:	2300      	movs	r3, #0
1004516e:	617b      	str	r3, [r7, #20]
10045170:	6a7b      	ldr	r3, [r7, #36]	@ 0x24
10045172:	60bb      	str	r3, [r7, #8]
10045174:	2300      	movs	r3, #0
10045176:	60fb      	str	r3, [r7, #12]
10045178:	68ba      	ldr	r2, [r7, #8]
1004517a:	68fb      	ldr	r3, [r7, #12]
1004517c:	6938      	ldr	r0, [r7, #16]
1004517e:	6979      	ldr	r1, [r7, #20]
10045180:	f7fb f934 	bl	100403ec <__aeabi_lmul>
10045184:	0002      	movs	r2, r0
10045186:	000b      	movs	r3, r1
10045188:	0b11      	lsrs	r1, r2, #12
1004518a:	051d      	lsls	r5, r3, #20
1004518c:	430d      	orrs	r5, r1
1004518e:	0514      	lsls	r4, r2, #20
10045190:	f004 f9d0 	bl	10049534 <LL_GetXTALFreq>
10045194:	0003      	movs	r3, r0
10045196:	603b      	str	r3, [r7, #0]
10045198:	2300      	movs	r3, #0
1004519a:	607b      	str	r3, [r7, #4]
1004519c:	683a      	ldr	r2, [r7, #0]
1004519e:	687b      	ldr	r3, [r7, #4]
100451a0:	0020      	movs	r0, r4
100451a2:	0029      	movs	r1, r5
100451a4:	f7fb f902 	bl	100403ac <__aeabi_uldivmod>
100451a8:	0002      	movs	r2, r0
100451aa:	000b      	movs	r3, r1
100451ac:	6a3b      	ldr	r3, [r7, #32]
100451ae:	781b      	ldrb	r3, [r3, #0]
100451b0:	051b      	lsls	r3, r3, #20
100451b2:	1ad2      	subs	r2, r2, r3
100451b4:	69fb      	ldr	r3, [r7, #28]
100451b6:	601a      	str	r2, [r3, #0]
}
100451b8:	46c0      	nop			@ (mov r8, r8)
100451ba:	46bd      	mov	sp, r7
100451bc:	b00b      	add	sp, #44	@ 0x2c
100451be:	bdf0      	pop	{r4, r5, r6, r7, pc}
100451c0:	313bc27f 	.word	0x313bc27f
100451c4:	3919eb80 	.word	0x3919eb80

100451c8 <MRSubG_ComputeDatarate>:
  * @param  cM the mantissa value.
  * @param  cE the exponent value.
  * @retval The datarate.
  */
static uint32_t MRSubG_ComputeDatarate(uint16_t cM, uint8_t cE)
{
100451c8:	b5f0      	push	{r4, r5, r6, r7, lr}
100451ca:	b091      	sub	sp, #68	@ 0x44
100451cc:	af00      	add	r7, sp, #0
100451ce:	0003      	movs	r3, r0
100451d0:	222e      	movs	r2, #46	@ 0x2e
100451d2:	18ba      	adds	r2, r7, r2
100451d4:	8013      	strh	r3, [r2, #0]
100451d6:	262d      	movs	r6, #45	@ 0x2d
100451d8:	19ba      	adds	r2, r7, r6
100451da:	1c0b      	adds	r3, r1, #0
100451dc:	7013      	strb	r3, [r2, #0]
  uint32_t f_sys = LL_GetXTALFreq() / 3; /* 16 MHz nominal */
100451de:	f004 f9a9 	bl	10049534 <LL_GetXTALFreq>
100451e2:	0003      	movs	r3, r0
100451e4:	2103      	movs	r1, #3
100451e6:	0018      	movs	r0, r3
100451e8:	f7fa ff6a 	bl	100400c0 <__udivsi3>
100451ec:	0003      	movs	r3, r0
100451ee:	63fb      	str	r3, [r7, #60]	@ 0x3c
  uint64_t dr;

  if (cE == 0)
100451f0:	19bb      	adds	r3, r7, r6
100451f2:	781b      	ldrb	r3, [r3, #0]
100451f4:	2b00      	cmp	r3, #0
100451f6:	d11b      	bne.n	10045230 <MRSubG_ComputeDatarate+0x68>
  {
    dr = ((uint64_t)f_sys * cM);
100451f8:	6bfb      	ldr	r3, [r7, #60]	@ 0x3c
100451fa:	623b      	str	r3, [r7, #32]
100451fc:	2300      	movs	r3, #0
100451fe:	627b      	str	r3, [r7, #36]	@ 0x24
10045200:	232e      	movs	r3, #46	@ 0x2e
10045202:	18fb      	adds	r3, r7, r3
10045204:	881b      	ldrh	r3, [r3, #0]
10045206:	b29b      	uxth	r3, r3
10045208:	61bb      	str	r3, [r7, #24]
1004520a:	2300      	movs	r3, #0
1004520c:	61fb      	str	r3, [r7, #28]
1004520e:	69ba      	ldr	r2, [r7, #24]
10045210:	69fb      	ldr	r3, [r7, #28]
10045212:	6a38      	ldr	r0, [r7, #32]
10045214:	6a79      	ldr	r1, [r7, #36]	@ 0x24
10045216:	f7fb f8e9 	bl	100403ec <__aeabi_lmul>
1004521a:	0002      	movs	r2, r0
1004521c:	000b      	movs	r3, r1
1004521e:	633a      	str	r2, [r7, #48]	@ 0x30
10045220:	637b      	str	r3, [r7, #52]	@ 0x34
    return (uint32_t)(dr >> 32);
10045222:	6b7b      	ldr	r3, [r7, #52]	@ 0x34
10045224:	001b      	movs	r3, r3
10045226:	613b      	str	r3, [r7, #16]
10045228:	2300      	movs	r3, #0
1004522a:	617b      	str	r3, [r7, #20]
1004522c:	693b      	ldr	r3, [r7, #16]
1004522e:	e041      	b.n	100452b4 <MRSubG_ComputeDatarate+0xec>
  }
  else if (cE == 15)
10045230:	232d      	movs	r3, #45	@ 0x2d
10045232:	18fb      	adds	r3, r7, r3
10045234:	781b      	ldrb	r3, [r3, #0]
10045236:	2b0f      	cmp	r3, #15
10045238:	d106      	bne.n	10045248 <MRSubG_ComputeDatarate+0x80>
  {
    return ((uint64_t)f_sys * (8 * cM));
1004523a:	232e      	movs	r3, #46	@ 0x2e
1004523c:	18fb      	adds	r3, r7, r3
1004523e:	881b      	ldrh	r3, [r3, #0]
10045240:	6bfa      	ldr	r2, [r7, #60]	@ 0x3c
10045242:	4353      	muls	r3, r2
10045244:	00db      	lsls	r3, r3, #3
10045246:	e035      	b.n	100452b4 <MRSubG_ComputeDatarate+0xec>
  }
  else
  {
    dr = ((uint64_t)f_sys) * ((uint64_t)cM + 65536);
10045248:	6bfb      	ldr	r3, [r7, #60]	@ 0x3c
1004524a:	60bb      	str	r3, [r7, #8]
1004524c:	2300      	movs	r3, #0
1004524e:	60fb      	str	r3, [r7, #12]
10045250:	232e      	movs	r3, #46	@ 0x2e
10045252:	18fb      	adds	r3, r7, r3
10045254:	881b      	ldrh	r3, [r3, #0]
10045256:	b29b      	uxth	r3, r3
10045258:	603b      	str	r3, [r7, #0]
1004525a:	2300      	movs	r3, #0
1004525c:	607b      	str	r3, [r7, #4]
1004525e:	2280      	movs	r2, #128	@ 0x80
10045260:	0252      	lsls	r2, r2, #9
10045262:	2300      	movs	r3, #0
10045264:	6838      	ldr	r0, [r7, #0]
10045266:	6879      	ldr	r1, [r7, #4]
10045268:	1880      	adds	r0, r0, r2
1004526a:	4159      	adcs	r1, r3
1004526c:	0002      	movs	r2, r0
1004526e:	000b      	movs	r3, r1
10045270:	68b8      	ldr	r0, [r7, #8]
10045272:	68f9      	ldr	r1, [r7, #12]
10045274:	f7fb f8ba 	bl	100403ec <__aeabi_lmul>
10045278:	0002      	movs	r2, r0
1004527a:	000b      	movs	r3, r1
1004527c:	633a      	str	r2, [r7, #48]	@ 0x30
1004527e:	637b      	str	r3, [r7, #52]	@ 0x34
    return (uint32_t)(dr >> (33 - cE));
10045280:	232d      	movs	r3, #45	@ 0x2d
10045282:	18fb      	adds	r3, r7, r3
10045284:	781b      	ldrb	r3, [r3, #0]
10045286:	2221      	movs	r2, #33	@ 0x21
10045288:	1ad3      	subs	r3, r2, r3
1004528a:	001a      	movs	r2, r3
1004528c:	3a20      	subs	r2, #32
1004528e:	2a00      	cmp	r2, #0
10045290:	db03      	blt.n	1004529a <MRSubG_ComputeDatarate+0xd2>
10045292:	6b79      	ldr	r1, [r7, #52]	@ 0x34
10045294:	40d1      	lsrs	r1, r2
10045296:	000c      	movs	r4, r1
10045298:	e008      	b.n	100452ac <MRSubG_ComputeDatarate+0xe4>
1004529a:	2220      	movs	r2, #32
1004529c:	1ad2      	subs	r2, r2, r3
1004529e:	6b79      	ldr	r1, [r7, #52]	@ 0x34
100452a0:	4091      	lsls	r1, r2
100452a2:	000a      	movs	r2, r1
100452a4:	6b39      	ldr	r1, [r7, #48]	@ 0x30
100452a6:	40d9      	lsrs	r1, r3
100452a8:	000c      	movs	r4, r1
100452aa:	4314      	orrs	r4, r2
100452ac:	6b7a      	ldr	r2, [r7, #52]	@ 0x34
100452ae:	40da      	lsrs	r2, r3
100452b0:	0015      	movs	r5, r2
100452b2:	0023      	movs	r3, r4
  }
}
100452b4:	0018      	movs	r0, r3
100452b6:	46bd      	mov	sp, r7
100452b8:	b011      	add	sp, #68	@ 0x44
100452ba:	bdf0      	pop	{r4, r5, r6, r7, pc}

100452bc <MRSubG_SearchDatarateME>:

static void MRSubG_SearchDatarateME(uint32_t lDatarate, uint16_t *pcM, uint8_t *pcE)
{
100452bc:	b5f0      	push	{r4, r5, r6, r7, lr}
100452be:	b0a5      	sub	sp, #148	@ 0x94
100452c0:	af00      	add	r7, sp, #0
100452c2:	6678      	str	r0, [r7, #100]	@ 0x64
100452c4:	6639      	str	r1, [r7, #96]	@ 0x60
100452c6:	65fa      	str	r2, [r7, #92]	@ 0x5c
  uint32_t lDatarateTmp;
  uint32_t f_sys = LL_GetXTALFreq() / 3;
100452c8:	f004 f934 	bl	10049534 <LL_GetXTALFreq>
100452cc:	0003      	movs	r3, r0
100452ce:	2103      	movs	r1, #3
100452d0:	0018      	movs	r0, r3
100452d2:	f7fa fef5 	bl	100400c0 <__udivsi3>
100452d6:	0003      	movs	r3, r0
100452d8:	66fb      	str	r3, [r7, #108]	@ 0x6c
  uint64_t tgt1;
  uint64_t tgt2;
  uint64_t tgt;

  /* Search the exponent value */
  for (uDrE = 0; uDrE < 16; uDrE++)
100452da:	2337      	movs	r3, #55	@ 0x37
100452dc:	2258      	movs	r2, #88	@ 0x58
100452de:	189b      	adds	r3, r3, r2
100452e0:	19da      	adds	r2, r3, r7
100452e2:	2300      	movs	r3, #0
100452e4:	7013      	strb	r3, [r2, #0]
100452e6:	e017      	b.n	10045318 <MRSubG_SearchDatarateME+0x5c>
  {
    lDatarateTmp = MRSubG_ComputeDatarate(0xFFFF, uDrE);
100452e8:	2637      	movs	r6, #55	@ 0x37
100452ea:	2258      	movs	r2, #88	@ 0x58
100452ec:	18b3      	adds	r3, r6, r2
100452ee:	19db      	adds	r3, r3, r7
100452f0:	781b      	ldrb	r3, [r3, #0]
100452f2:	4a75      	ldr	r2, [pc, #468]	@ (100454c8 <MRSubG_SearchDatarateME+0x20c>)
100452f4:	0019      	movs	r1, r3
100452f6:	0010      	movs	r0, r2
100452f8:	f7ff ff66 	bl	100451c8 <MRSubG_ComputeDatarate>
100452fc:	0003      	movs	r3, r0
100452fe:	66bb      	str	r3, [r7, #104]	@ 0x68
    if (lDatarate <= lDatarateTmp)
10045300:	6e7a      	ldr	r2, [r7, #100]	@ 0x64
10045302:	6ebb      	ldr	r3, [r7, #104]	@ 0x68
10045304:	429a      	cmp	r2, r3
10045306:	d90f      	bls.n	10045328 <MRSubG_SearchDatarateME+0x6c>
  for (uDrE = 0; uDrE < 16; uDrE++)
10045308:	2258      	movs	r2, #88	@ 0x58
1004530a:	18b3      	adds	r3, r6, r2
1004530c:	19db      	adds	r3, r3, r7
1004530e:	781b      	ldrb	r3, [r3, #0]
10045310:	18b2      	adds	r2, r6, r2
10045312:	19d2      	adds	r2, r2, r7
10045314:	3301      	adds	r3, #1
10045316:	7013      	strb	r3, [r2, #0]
10045318:	2337      	movs	r3, #55	@ 0x37
1004531a:	2258      	movs	r2, #88	@ 0x58
1004531c:	189b      	adds	r3, r3, r2
1004531e:	19db      	adds	r3, r3, r7
10045320:	781b      	ldrb	r3, [r3, #0]
10045322:	2b0f      	cmp	r3, #15
10045324:	d9e0      	bls.n	100452e8 <MRSubG_SearchDatarateME+0x2c>
10045326:	e000      	b.n	1004532a <MRSubG_SearchDatarateME+0x6e>
    {
      break;
10045328:	46c0      	nop			@ (mov r8, r8)
    }
  }
  (*pcE) = (uint8_t)uDrE;
1004532a:	6dfa      	ldr	r2, [r7, #92]	@ 0x5c
1004532c:	2137      	movs	r1, #55	@ 0x37
1004532e:	2058      	movs	r0, #88	@ 0x58
10045330:	180b      	adds	r3, r1, r0
10045332:	19db      	adds	r3, r3, r7
10045334:	781b      	ldrb	r3, [r3, #0]
10045336:	7013      	strb	r3, [r2, #0]

  if (uDrE == 0)
10045338:	180b      	adds	r3, r1, r0
1004533a:	19db      	adds	r3, r3, r7
1004533c:	781b      	ldrb	r3, [r3, #0]
1004533e:	2b00      	cmp	r3, #0
10045340:	d141      	bne.n	100453c6 <MRSubG_SearchDatarateME+0x10a>
  {
    tgt = ((uint64_t)lDatarate) << 32;
10045342:	6e7b      	ldr	r3, [r7, #100]	@ 0x64
10045344:	653b      	str	r3, [r7, #80]	@ 0x50
10045346:	2300      	movs	r3, #0
10045348:	657b      	str	r3, [r7, #84]	@ 0x54
1004534a:	6d3b      	ldr	r3, [r7, #80]	@ 0x50
1004534c:	001b      	movs	r3, r3
1004534e:	677b      	str	r3, [r7, #116]	@ 0x74
10045350:	2300      	movs	r3, #0
10045352:	673b      	str	r3, [r7, #112]	@ 0x70
    (*pcM) = (uint16_t)(tgt / f_sys);
10045354:	6efb      	ldr	r3, [r7, #108]	@ 0x6c
10045356:	64bb      	str	r3, [r7, #72]	@ 0x48
10045358:	2300      	movs	r3, #0
1004535a:	64fb      	str	r3, [r7, #76]	@ 0x4c
1004535c:	6cba      	ldr	r2, [r7, #72]	@ 0x48
1004535e:	6cfb      	ldr	r3, [r7, #76]	@ 0x4c
10045360:	6f38      	ldr	r0, [r7, #112]	@ 0x70
10045362:	6f79      	ldr	r1, [r7, #116]	@ 0x74
10045364:	f7fb f822 	bl	100403ac <__aeabi_uldivmod>
10045368:	0002      	movs	r2, r0
1004536a:	000b      	movs	r3, r1
1004536c:	b292      	uxth	r2, r2
1004536e:	6e3b      	ldr	r3, [r7, #96]	@ 0x60
10045370:	801a      	strh	r2, [r3, #0]
    tgt1 = (uint64_t)f_sys * (*pcM);
10045372:	6efb      	ldr	r3, [r7, #108]	@ 0x6c
10045374:	643b      	str	r3, [r7, #64]	@ 0x40
10045376:	2300      	movs	r3, #0
10045378:	647b      	str	r3, [r7, #68]	@ 0x44
1004537a:	6e3b      	ldr	r3, [r7, #96]	@ 0x60
1004537c:	881b      	ldrh	r3, [r3, #0]
1004537e:	63bb      	str	r3, [r7, #56]	@ 0x38
10045380:	2300      	movs	r3, #0
10045382:	63fb      	str	r3, [r7, #60]	@ 0x3c
10045384:	6bba      	ldr	r2, [r7, #56]	@ 0x38
10045386:	6bfb      	ldr	r3, [r7, #60]	@ 0x3c
10045388:	6c38      	ldr	r0, [r7, #64]	@ 0x40
1004538a:	6c79      	ldr	r1, [r7, #68]	@ 0x44
1004538c:	f7fb f82e 	bl	100403ec <__aeabi_lmul>
10045390:	0002      	movs	r2, r0
10045392:	000b      	movs	r3, r1
10045394:	2180      	movs	r1, #128	@ 0x80
10045396:	1879      	adds	r1, r7, r1
10045398:	600a      	str	r2, [r1, #0]
1004539a:	604b      	str	r3, [r1, #4]
    tgt2 = (uint64_t)f_sys * ((*pcM) + 1);
1004539c:	6efb      	ldr	r3, [r7, #108]	@ 0x6c
1004539e:	633b      	str	r3, [r7, #48]	@ 0x30
100453a0:	2300      	movs	r3, #0
100453a2:	637b      	str	r3, [r7, #52]	@ 0x34
100453a4:	6e3b      	ldr	r3, [r7, #96]	@ 0x60
100453a6:	881b      	ldrh	r3, [r3, #0]
100453a8:	3301      	adds	r3, #1
100453aa:	62bb      	str	r3, [r7, #40]	@ 0x28
100453ac:	17db      	asrs	r3, r3, #31
100453ae:	62fb      	str	r3, [r7, #44]	@ 0x2c
100453b0:	6aba      	ldr	r2, [r7, #40]	@ 0x28
100453b2:	6afb      	ldr	r3, [r7, #44]	@ 0x2c
100453b4:	6b38      	ldr	r0, [r7, #48]	@ 0x30
100453b6:	6b79      	ldr	r1, [r7, #52]	@ 0x34
100453b8:	f7fb f818 	bl	100403ec <__aeabi_lmul>
100453bc:	0002      	movs	r2, r0
100453be:	000b      	movs	r3, r1
100453c0:	67ba      	str	r2, [r7, #120]	@ 0x78
100453c2:	67fb      	str	r3, [r7, #124]	@ 0x7c
100453c4:	e05c      	b.n	10045480 <MRSubG_SearchDatarateME+0x1c4>
  }
  else
  {
    tgt = ((uint64_t)lDatarate) << (33 - uDrE);
100453c6:	6e7b      	ldr	r3, [r7, #100]	@ 0x64
100453c8:	001c      	movs	r4, r3
100453ca:	2300      	movs	r3, #0
100453cc:	001d      	movs	r5, r3
100453ce:	2337      	movs	r3, #55	@ 0x37
100453d0:	2258      	movs	r2, #88	@ 0x58
100453d2:	189b      	adds	r3, r3, r2
100453d4:	19db      	adds	r3, r3, r7
100453d6:	781a      	ldrb	r2, [r3, #0]
100453d8:	2321      	movs	r3, #33	@ 0x21
100453da:	1a99      	subs	r1, r3, r2
100453dc:	000b      	movs	r3, r1
100453de:	3b20      	subs	r3, #32
100453e0:	2b00      	cmp	r3, #0
100453e2:	db04      	blt.n	100453ee <MRSubG_SearchDatarateME+0x132>
100453e4:	0022      	movs	r2, r4
100453e6:	409a      	lsls	r2, r3
100453e8:	0013      	movs	r3, r2
100453ea:	677b      	str	r3, [r7, #116]	@ 0x74
100453ec:	e007      	b.n	100453fe <MRSubG_SearchDatarateME+0x142>
100453ee:	2320      	movs	r3, #32
100453f0:	1a5b      	subs	r3, r3, r1
100453f2:	0022      	movs	r2, r4
100453f4:	40da      	lsrs	r2, r3
100453f6:	002b      	movs	r3, r5
100453f8:	408b      	lsls	r3, r1
100453fa:	4313      	orrs	r3, r2
100453fc:	677b      	str	r3, [r7, #116]	@ 0x74
100453fe:	0023      	movs	r3, r4
10045400:	408b      	lsls	r3, r1
10045402:	673b      	str	r3, [r7, #112]	@ 0x70
    (*pcM) = (uint16_t)((tgt / f_sys) - 65536);
10045404:	6efb      	ldr	r3, [r7, #108]	@ 0x6c
10045406:	623b      	str	r3, [r7, #32]
10045408:	2300      	movs	r3, #0
1004540a:	627b      	str	r3, [r7, #36]	@ 0x24
1004540c:	6a3a      	ldr	r2, [r7, #32]
1004540e:	6a7b      	ldr	r3, [r7, #36]	@ 0x24
10045410:	6f38      	ldr	r0, [r7, #112]	@ 0x70
10045412:	6f79      	ldr	r1, [r7, #116]	@ 0x74
10045414:	f7fa ffca 	bl	100403ac <__aeabi_uldivmod>
10045418:	0002      	movs	r2, r0
1004541a:	000b      	movs	r3, r1
1004541c:	b292      	uxth	r2, r2
1004541e:	6e3b      	ldr	r3, [r7, #96]	@ 0x60
10045420:	801a      	strh	r2, [r3, #0]
    tgt1 = (uint64_t)f_sys * ((*pcM) + 65536);
10045422:	6efb      	ldr	r3, [r7, #108]	@ 0x6c
10045424:	61bb      	str	r3, [r7, #24]
10045426:	2300      	movs	r3, #0
10045428:	61fb      	str	r3, [r7, #28]
1004542a:	6e3b      	ldr	r3, [r7, #96]	@ 0x60
1004542c:	881b      	ldrh	r3, [r3, #0]
1004542e:	2280      	movs	r2, #128	@ 0x80
10045430:	0252      	lsls	r2, r2, #9
10045432:	4694      	mov	ip, r2
10045434:	4463      	add	r3, ip
10045436:	613b      	str	r3, [r7, #16]
10045438:	17db      	asrs	r3, r3, #31
1004543a:	617b      	str	r3, [r7, #20]
1004543c:	693a      	ldr	r2, [r7, #16]
1004543e:	697b      	ldr	r3, [r7, #20]
10045440:	69b8      	ldr	r0, [r7, #24]
10045442:	69f9      	ldr	r1, [r7, #28]
10045444:	f7fa ffd2 	bl	100403ec <__aeabi_lmul>
10045448:	0002      	movs	r2, r0
1004544a:	000b      	movs	r3, r1
1004544c:	2180      	movs	r1, #128	@ 0x80
1004544e:	1879      	adds	r1, r7, r1
10045450:	600a      	str	r2, [r1, #0]
10045452:	604b      	str	r3, [r1, #4]
    tgt2 = (uint64_t)f_sys * ((*pcM) + 1 + 65536);
10045454:	6efb      	ldr	r3, [r7, #108]	@ 0x6c
10045456:	60bb      	str	r3, [r7, #8]
10045458:	2300      	movs	r3, #0
1004545a:	60fb      	str	r3, [r7, #12]
1004545c:	6e3b      	ldr	r3, [r7, #96]	@ 0x60
1004545e:	881b      	ldrh	r3, [r3, #0]
10045460:	4a1a      	ldr	r2, [pc, #104]	@ (100454cc <MRSubG_SearchDatarateME+0x210>)
10045462:	4694      	mov	ip, r2
10045464:	4463      	add	r3, ip
10045466:	603b      	str	r3, [r7, #0]
10045468:	17db      	asrs	r3, r3, #31
1004546a:	607b      	str	r3, [r7, #4]
1004546c:	683a      	ldr	r2, [r7, #0]
1004546e:	687b      	ldr	r3, [r7, #4]
10045470:	68b8      	ldr	r0, [r7, #8]
10045472:	68f9      	ldr	r1, [r7, #12]
10045474:	f7fa ffba 	bl	100403ec <__aeabi_lmul>
10045478:	0002      	movs	r2, r0
1004547a:	000b      	movs	r3, r1
1004547c:	67ba      	str	r2, [r7, #120]	@ 0x78
1004547e:	67fb      	str	r3, [r7, #124]	@ 0x7c
  }

  (*pcM) = ((tgt2 - tgt) < (tgt - tgt1)) ? ((*pcM) + 1) : (*pcM);
10045480:	6fb8      	ldr	r0, [r7, #120]	@ 0x78
10045482:	6ff9      	ldr	r1, [r7, #124]	@ 0x7c
10045484:	6f3a      	ldr	r2, [r7, #112]	@ 0x70
10045486:	6f7b      	ldr	r3, [r7, #116]	@ 0x74
10045488:	1a80      	subs	r0, r0, r2
1004548a:	4199      	sbcs	r1, r3
1004548c:	0002      	movs	r2, r0
1004548e:	000b      	movs	r3, r1
10045490:	6f3c      	ldr	r4, [r7, #112]	@ 0x70
10045492:	6f7d      	ldr	r5, [r7, #116]	@ 0x74
10045494:	2180      	movs	r1, #128	@ 0x80
10045496:	1879      	adds	r1, r7, r1
10045498:	6808      	ldr	r0, [r1, #0]
1004549a:	6849      	ldr	r1, [r1, #4]
1004549c:	1a24      	subs	r4, r4, r0
1004549e:	418d      	sbcs	r5, r1
100454a0:	0020      	movs	r0, r4
100454a2:	0029      	movs	r1, r5
100454a4:	4299      	cmp	r1, r3
100454a6:	d802      	bhi.n	100454ae <MRSubG_SearchDatarateME+0x1f2>
100454a8:	d106      	bne.n	100454b8 <MRSubG_SearchDatarateME+0x1fc>
100454aa:	4290      	cmp	r0, r2
100454ac:	d904      	bls.n	100454b8 <MRSubG_SearchDatarateME+0x1fc>
100454ae:	6e3b      	ldr	r3, [r7, #96]	@ 0x60
100454b0:	881b      	ldrh	r3, [r3, #0]
100454b2:	3301      	adds	r3, #1
100454b4:	b29b      	uxth	r3, r3
100454b6:	e001      	b.n	100454bc <MRSubG_SearchDatarateME+0x200>
100454b8:	6e3b      	ldr	r3, [r7, #96]	@ 0x60
100454ba:	881b      	ldrh	r3, [r3, #0]
100454bc:	6e3a      	ldr	r2, [r7, #96]	@ 0x60
100454be:	8013      	strh	r3, [r2, #0]
}
100454c0:	46c0      	nop			@ (mov r8, r8)
100454c2:	46bd      	mov	sp, r7
100454c4:	b025      	add	sp, #148	@ 0x94
100454c6:	bdf0      	pop	{r4, r5, r6, r7, pc}
100454c8:	0000ffff 	.word	0x0000ffff
100454cc:	00010001 	.word	0x00010001

100454d0 <MRSubG_ComputeFreqDeviation>:
  * @param  cE the exponent value.
  * @param  bs the band value.
  * @retval The frequency deviation.
  */
static uint32_t MRSubG_ComputeFreqDeviation(uint8_t cM, uint8_t cE, uint8_t bs)
{
100454d0:	b5f0      	push	{r4, r5, r6, r7, lr}
100454d2:	b08f      	sub	sp, #60	@ 0x3c
100454d4:	af00      	add	r7, sp, #0
100454d6:	0003      	movs	r3, r0
100454d8:	0010      	movs	r0, r2
100454da:	222f      	movs	r2, #47	@ 0x2f
100454dc:	18ba      	adds	r2, r7, r2
100454de:	7013      	strb	r3, [r2, #0]
100454e0:	232e      	movs	r3, #46	@ 0x2e
100454e2:	18fa      	adds	r2, r7, r3
100454e4:	1c0b      	adds	r3, r1, #0
100454e6:	7013      	strb	r3, [r2, #0]
100454e8:	262d      	movs	r6, #45	@ 0x2d
100454ea:	19ba      	adds	r2, r7, r6
100454ec:	1c03      	adds	r3, r0, #0
100454ee:	7013      	strb	r3, [r2, #0]
  uint32_t f_xo = LL_GetXTALFreq();
100454f0:	f004 f820 	bl	10049534 <LL_GetXTALFreq>
100454f4:	0003      	movs	r3, r0
100454f6:	637b      	str	r3, [r7, #52]	@ 0x34

  if (cE == 0)
100454f8:	232e      	movs	r3, #46	@ 0x2e
100454fa:	18fb      	adds	r3, r7, r3
100454fc:	781b      	ldrb	r3, [r3, #0]
100454fe:	2b00      	cmp	r3, #0
10045500:	d129      	bne.n	10045556 <MRSubG_ComputeFreqDeviation+0x86>
  {
    return (uint32_t)((uint64_t)f_xo * (cM * bs / 8) / (bs * (1 << 19)));
10045502:	6b7b      	ldr	r3, [r7, #52]	@ 0x34
10045504:	623b      	str	r3, [r7, #32]
10045506:	2300      	movs	r3, #0
10045508:	627b      	str	r3, [r7, #36]	@ 0x24
1004550a:	232f      	movs	r3, #47	@ 0x2f
1004550c:	18fb      	adds	r3, r7, r3
1004550e:	781b      	ldrb	r3, [r3, #0]
10045510:	19ba      	adds	r2, r7, r6
10045512:	7812      	ldrb	r2, [r2, #0]
10045514:	4353      	muls	r3, r2
10045516:	2b00      	cmp	r3, #0
10045518:	da00      	bge.n	1004551c <MRSubG_ComputeFreqDeviation+0x4c>
1004551a:	3307      	adds	r3, #7
1004551c:	10db      	asrs	r3, r3, #3
1004551e:	61bb      	str	r3, [r7, #24]
10045520:	17db      	asrs	r3, r3, #31
10045522:	61fb      	str	r3, [r7, #28]
10045524:	69ba      	ldr	r2, [r7, #24]
10045526:	69fb      	ldr	r3, [r7, #28]
10045528:	6a38      	ldr	r0, [r7, #32]
1004552a:	6a79      	ldr	r1, [r7, #36]	@ 0x24
1004552c:	f7fa ff5e 	bl	100403ec <__aeabi_lmul>
10045530:	0002      	movs	r2, r0
10045532:	000b      	movs	r3, r1
10045534:	0010      	movs	r0, r2
10045536:	0019      	movs	r1, r3
10045538:	232d      	movs	r3, #45	@ 0x2d
1004553a:	18fb      	adds	r3, r7, r3
1004553c:	781b      	ldrb	r3, [r3, #0]
1004553e:	04db      	lsls	r3, r3, #19
10045540:	613b      	str	r3, [r7, #16]
10045542:	17db      	asrs	r3, r3, #31
10045544:	617b      	str	r3, [r7, #20]
10045546:	693a      	ldr	r2, [r7, #16]
10045548:	697b      	ldr	r3, [r7, #20]
1004554a:	f7fa ff2f 	bl	100403ac <__aeabi_uldivmod>
1004554e:	0002      	movs	r2, r0
10045550:	000b      	movs	r3, r1
10045552:	0013      	movs	r3, r2
10045554:	e031      	b.n	100455ba <MRSubG_ComputeFreqDeviation+0xea>
  }

  return (uint32_t)((uint64_t)f_xo * ((256 + cM) * (1 << (cE - 1)) * bs / 8) / (bs * (1 << 19)));;
10045556:	6b7b      	ldr	r3, [r7, #52]	@ 0x34
10045558:	60bb      	str	r3, [r7, #8]
1004555a:	2300      	movs	r3, #0
1004555c:	60fb      	str	r3, [r7, #12]
1004555e:	232f      	movs	r3, #47	@ 0x2f
10045560:	18fb      	adds	r3, r7, r3
10045562:	781b      	ldrb	r3, [r3, #0]
10045564:	1c5a      	adds	r2, r3, #1
10045566:	32ff      	adds	r2, #255	@ 0xff
10045568:	232e      	movs	r3, #46	@ 0x2e
1004556a:	18fb      	adds	r3, r7, r3
1004556c:	781b      	ldrb	r3, [r3, #0]
1004556e:	3b01      	subs	r3, #1
10045570:	409a      	lsls	r2, r3
10045572:	0013      	movs	r3, r2
10045574:	222d      	movs	r2, #45	@ 0x2d
10045576:	18ba      	adds	r2, r7, r2
10045578:	7812      	ldrb	r2, [r2, #0]
1004557a:	4353      	muls	r3, r2
1004557c:	2b00      	cmp	r3, #0
1004557e:	da00      	bge.n	10045582 <MRSubG_ComputeFreqDeviation+0xb2>
10045580:	3307      	adds	r3, #7
10045582:	10db      	asrs	r3, r3, #3
10045584:	603b      	str	r3, [r7, #0]
10045586:	17db      	asrs	r3, r3, #31
10045588:	607b      	str	r3, [r7, #4]
1004558a:	683a      	ldr	r2, [r7, #0]
1004558c:	687b      	ldr	r3, [r7, #4]
1004558e:	68b8      	ldr	r0, [r7, #8]
10045590:	68f9      	ldr	r1, [r7, #12]
10045592:	f7fa ff2b 	bl	100403ec <__aeabi_lmul>
10045596:	0002      	movs	r2, r0
10045598:	000b      	movs	r3, r1
1004559a:	0010      	movs	r0, r2
1004559c:	0019      	movs	r1, r3
1004559e:	232d      	movs	r3, #45	@ 0x2d
100455a0:	18fb      	adds	r3, r7, r3
100455a2:	781b      	ldrb	r3, [r3, #0]
100455a4:	04db      	lsls	r3, r3, #19
100455a6:	001c      	movs	r4, r3
100455a8:	17db      	asrs	r3, r3, #31
100455aa:	001d      	movs	r5, r3
100455ac:	0022      	movs	r2, r4
100455ae:	002b      	movs	r3, r5
100455b0:	f7fa fefc 	bl	100403ac <__aeabi_uldivmod>
100455b4:	0002      	movs	r2, r0
100455b6:	000b      	movs	r3, r1
100455b8:	0013      	movs	r3, r2
}
100455ba:	0018      	movs	r0, r3
100455bc:	46bd      	mov	sp, r7
100455be:	b00f      	add	sp, #60	@ 0x3c
100455c0:	bdf0      	pop	{r4, r5, r6, r7, pc}

100455c2 <MRSubG_SearchFreqDevME>:
  * @param  pcE pointer to the returned exponent value.
  * @param  bs the high/low band selector
  * @retval None.
  */
static void MRSubG_SearchFreqDevME(uint32_t lFDev, uint8_t *pcM, uint8_t *pcE, uint8_t bs)
{
100455c2:	b5f0      	push	{r4, r5, r6, r7, lr}
100455c4:	b0a5      	sub	sp, #148	@ 0x94
100455c6:	af00      	add	r7, sp, #0
100455c8:	6678      	str	r0, [r7, #100]	@ 0x64
100455ca:	6639      	str	r1, [r7, #96]	@ 0x60
100455cc:	65fa      	str	r2, [r7, #92]	@ 0x5c
100455ce:	225b      	movs	r2, #91	@ 0x5b
100455d0:	18ba      	adds	r2, r7, r2
100455d2:	7013      	strb	r3, [r2, #0]
  uint64_t tgt1;
  uint64_t tgt2;
  uint64_t tgt;

  /* Search the exponent of the frequency deviation value */
  for (uFDevE = 0; uFDevE != 12; uFDevE++)
100455d4:	2337      	movs	r3, #55	@ 0x37
100455d6:	2258      	movs	r2, #88	@ 0x58
100455d8:	189b      	adds	r3, r3, r2
100455da:	19da      	adds	r2, r3, r7
100455dc:	2300      	movs	r3, #0
100455de:	7013      	strb	r3, [r2, #0]
100455e0:	e019      	b.n	10045616 <MRSubG_SearchFreqDevME+0x54>
  {
    lFDevTmp = MRSubG_ComputeFreqDeviation(255, uFDevE, bs);
100455e2:	235b      	movs	r3, #91	@ 0x5b
100455e4:	18fb      	adds	r3, r7, r3
100455e6:	781a      	ldrb	r2, [r3, #0]
100455e8:	2637      	movs	r6, #55	@ 0x37
100455ea:	2358      	movs	r3, #88	@ 0x58
100455ec:	18f1      	adds	r1, r6, r3
100455ee:	19cb      	adds	r3, r1, r7
100455f0:	781b      	ldrb	r3, [r3, #0]
100455f2:	0019      	movs	r1, r3
100455f4:	20ff      	movs	r0, #255	@ 0xff
100455f6:	f7ff ff6b 	bl	100454d0 <MRSubG_ComputeFreqDeviation>
100455fa:	0003      	movs	r3, r0
100455fc:	66fb      	str	r3, [r7, #108]	@ 0x6c
    if (lFDev < lFDevTmp)
100455fe:	6e7a      	ldr	r2, [r7, #100]	@ 0x64
10045600:	6efb      	ldr	r3, [r7, #108]	@ 0x6c
10045602:	429a      	cmp	r2, r3
10045604:	d30f      	bcc.n	10045626 <MRSubG_SearchFreqDevME+0x64>
  for (uFDevE = 0; uFDevE != 12; uFDevE++)
10045606:	2258      	movs	r2, #88	@ 0x58
10045608:	18b3      	adds	r3, r6, r2
1004560a:	19db      	adds	r3, r3, r7
1004560c:	781b      	ldrb	r3, [r3, #0]
1004560e:	18b2      	adds	r2, r6, r2
10045610:	19d2      	adds	r2, r2, r7
10045612:	3301      	adds	r3, #1
10045614:	7013      	strb	r3, [r2, #0]
10045616:	2337      	movs	r3, #55	@ 0x37
10045618:	2258      	movs	r2, #88	@ 0x58
1004561a:	189b      	adds	r3, r3, r2
1004561c:	19db      	adds	r3, r3, r7
1004561e:	781b      	ldrb	r3, [r3, #0]
10045620:	2b0c      	cmp	r3, #12
10045622:	d1de      	bne.n	100455e2 <MRSubG_SearchFreqDevME+0x20>
10045624:	e000      	b.n	10045628 <MRSubG_SearchFreqDevME+0x66>
    {
      break;
10045626:	46c0      	nop			@ (mov r8, r8)
    }
  }
  (*pcE) = (uint8_t)uFDevE;
10045628:	6dfa      	ldr	r2, [r7, #92]	@ 0x5c
1004562a:	2137      	movs	r1, #55	@ 0x37
1004562c:	2058      	movs	r0, #88	@ 0x58
1004562e:	180b      	adds	r3, r1, r0
10045630:	19db      	adds	r3, r3, r7
10045632:	781b      	ldrb	r3, [r3, #0]
10045634:	7013      	strb	r3, [r2, #0]

  if (uFDevE == 0)
10045636:	180b      	adds	r3, r1, r0
10045638:	19db      	adds	r3, r3, r7
1004563a:	781b      	ldrb	r3, [r3, #0]
1004563c:	2b00      	cmp	r3, #0
1004563e:	d14d      	bne.n	100456dc <MRSubG_SearchFreqDevME+0x11a>
  {
    tgt = ((uint64_t)lFDev) << 22;
10045640:	6e7b      	ldr	r3, [r7, #100]	@ 0x64
10045642:	653b      	str	r3, [r7, #80]	@ 0x50
10045644:	2300      	movs	r3, #0
10045646:	657b      	str	r3, [r7, #84]	@ 0x54
10045648:	6d38      	ldr	r0, [r7, #80]	@ 0x50
1004564a:	6d79      	ldr	r1, [r7, #84]	@ 0x54
1004564c:	0003      	movs	r3, r0
1004564e:	0a9a      	lsrs	r2, r3, #10
10045650:	000b      	movs	r3, r1
10045652:	059b      	lsls	r3, r3, #22
10045654:	4313      	orrs	r3, r2
10045656:	677b      	str	r3, [r7, #116]	@ 0x74
10045658:	0003      	movs	r3, r0
1004565a:	059b      	lsls	r3, r3, #22
1004565c:	673b      	str	r3, [r7, #112]	@ 0x70
    (*pcM) = (uint32_t)(tgt / LL_GetXTALFreq());
1004565e:	f003 ff69 	bl	10049534 <LL_GetXTALFreq>
10045662:	0003      	movs	r3, r0
10045664:	64bb      	str	r3, [r7, #72]	@ 0x48
10045666:	2300      	movs	r3, #0
10045668:	64fb      	str	r3, [r7, #76]	@ 0x4c
1004566a:	6cba      	ldr	r2, [r7, #72]	@ 0x48
1004566c:	6cfb      	ldr	r3, [r7, #76]	@ 0x4c
1004566e:	6f38      	ldr	r0, [r7, #112]	@ 0x70
10045670:	6f79      	ldr	r1, [r7, #116]	@ 0x74
10045672:	f7fa fe9b 	bl	100403ac <__aeabi_uldivmod>
10045676:	0002      	movs	r2, r0
10045678:	000b      	movs	r3, r1
1004567a:	b2d2      	uxtb	r2, r2
1004567c:	6e3b      	ldr	r3, [r7, #96]	@ 0x60
1004567e:	701a      	strb	r2, [r3, #0]
    tgt1 = (uint64_t)LL_GetXTALFreq() * (*pcM);
10045680:	f003 ff58 	bl	10049534 <LL_GetXTALFreq>
10045684:	0003      	movs	r3, r0
10045686:	643b      	str	r3, [r7, #64]	@ 0x40
10045688:	2300      	movs	r3, #0
1004568a:	647b      	str	r3, [r7, #68]	@ 0x44
1004568c:	6e3b      	ldr	r3, [r7, #96]	@ 0x60
1004568e:	781b      	ldrb	r3, [r3, #0]
10045690:	63bb      	str	r3, [r7, #56]	@ 0x38
10045692:	2300      	movs	r3, #0
10045694:	63fb      	str	r3, [r7, #60]	@ 0x3c
10045696:	6bba      	ldr	r2, [r7, #56]	@ 0x38
10045698:	6bfb      	ldr	r3, [r7, #60]	@ 0x3c
1004569a:	6c38      	ldr	r0, [r7, #64]	@ 0x40
1004569c:	6c79      	ldr	r1, [r7, #68]	@ 0x44
1004569e:	f7fa fea5 	bl	100403ec <__aeabi_lmul>
100456a2:	0002      	movs	r2, r0
100456a4:	000b      	movs	r3, r1
100456a6:	2180      	movs	r1, #128	@ 0x80
100456a8:	1879      	adds	r1, r7, r1
100456aa:	600a      	str	r2, [r1, #0]
100456ac:	604b      	str	r3, [r1, #4]
    tgt2 = (uint64_t)LL_GetXTALFreq() * ((*pcM) + 1);
100456ae:	f003 ff41 	bl	10049534 <LL_GetXTALFreq>
100456b2:	0003      	movs	r3, r0
100456b4:	633b      	str	r3, [r7, #48]	@ 0x30
100456b6:	2300      	movs	r3, #0
100456b8:	637b      	str	r3, [r7, #52]	@ 0x34
100456ba:	6e3b      	ldr	r3, [r7, #96]	@ 0x60
100456bc:	781b      	ldrb	r3, [r3, #0]
100456be:	3301      	adds	r3, #1
100456c0:	62bb      	str	r3, [r7, #40]	@ 0x28
100456c2:	17db      	asrs	r3, r3, #31
100456c4:	62fb      	str	r3, [r7, #44]	@ 0x2c
100456c6:	6aba      	ldr	r2, [r7, #40]	@ 0x28
100456c8:	6afb      	ldr	r3, [r7, #44]	@ 0x2c
100456ca:	6b38      	ldr	r0, [r7, #48]	@ 0x30
100456cc:	6b79      	ldr	r1, [r7, #52]	@ 0x34
100456ce:	f7fa fe8d 	bl	100403ec <__aeabi_lmul>
100456d2:	0002      	movs	r2, r0
100456d4:	000b      	movs	r3, r1
100456d6:	67ba      	str	r2, [r7, #120]	@ 0x78
100456d8:	67fb      	str	r3, [r7, #124]	@ 0x7c
100456da:	e05f      	b.n	1004579c <MRSubG_SearchFreqDevME+0x1da>
  }
  else
  {
    tgt = ((uint64_t)lFDev) << (23 - uFDevE);
100456dc:	6e7b      	ldr	r3, [r7, #100]	@ 0x64
100456de:	001c      	movs	r4, r3
100456e0:	2300      	movs	r3, #0
100456e2:	001d      	movs	r5, r3
100456e4:	2337      	movs	r3, #55	@ 0x37
100456e6:	2258      	movs	r2, #88	@ 0x58
100456e8:	189b      	adds	r3, r3, r2
100456ea:	19db      	adds	r3, r3, r7
100456ec:	781a      	ldrb	r2, [r3, #0]
100456ee:	2317      	movs	r3, #23
100456f0:	1a99      	subs	r1, r3, r2
100456f2:	000b      	movs	r3, r1
100456f4:	3b20      	subs	r3, #32
100456f6:	2b00      	cmp	r3, #0
100456f8:	db04      	blt.n	10045704 <MRSubG_SearchFreqDevME+0x142>
100456fa:	0022      	movs	r2, r4
100456fc:	409a      	lsls	r2, r3
100456fe:	0013      	movs	r3, r2
10045700:	677b      	str	r3, [r7, #116]	@ 0x74
10045702:	e007      	b.n	10045714 <MRSubG_SearchFreqDevME+0x152>
10045704:	2320      	movs	r3, #32
10045706:	1a5b      	subs	r3, r3, r1
10045708:	0022      	movs	r2, r4
1004570a:	40da      	lsrs	r2, r3
1004570c:	002b      	movs	r3, r5
1004570e:	408b      	lsls	r3, r1
10045710:	4313      	orrs	r3, r2
10045712:	677b      	str	r3, [r7, #116]	@ 0x74
10045714:	0023      	movs	r3, r4
10045716:	408b      	lsls	r3, r1
10045718:	673b      	str	r3, [r7, #112]	@ 0x70
    (*pcM) = (uint32_t)(tgt / LL_GetXTALFreq()) - 256;
1004571a:	f003 ff0b 	bl	10049534 <LL_GetXTALFreq>
1004571e:	0003      	movs	r3, r0
10045720:	623b      	str	r3, [r7, #32]
10045722:	2300      	movs	r3, #0
10045724:	627b      	str	r3, [r7, #36]	@ 0x24
10045726:	6a3a      	ldr	r2, [r7, #32]
10045728:	6a7b      	ldr	r3, [r7, #36]	@ 0x24
1004572a:	6f38      	ldr	r0, [r7, #112]	@ 0x70
1004572c:	6f79      	ldr	r1, [r7, #116]	@ 0x74
1004572e:	f7fa fe3d 	bl	100403ac <__aeabi_uldivmod>
10045732:	0002      	movs	r2, r0
10045734:	000b      	movs	r3, r1
10045736:	b2d2      	uxtb	r2, r2
10045738:	6e3b      	ldr	r3, [r7, #96]	@ 0x60
1004573a:	701a      	strb	r2, [r3, #0]
    tgt1 = (uint64_t)LL_GetXTALFreq() * ((*pcM) + 256);
1004573c:	f003 fefa 	bl	10049534 <LL_GetXTALFreq>
10045740:	0003      	movs	r3, r0
10045742:	61bb      	str	r3, [r7, #24]
10045744:	2300      	movs	r3, #0
10045746:	61fb      	str	r3, [r7, #28]
10045748:	6e3b      	ldr	r3, [r7, #96]	@ 0x60
1004574a:	781b      	ldrb	r3, [r3, #0]
1004574c:	3301      	adds	r3, #1
1004574e:	33ff      	adds	r3, #255	@ 0xff
10045750:	613b      	str	r3, [r7, #16]
10045752:	17db      	asrs	r3, r3, #31
10045754:	617b      	str	r3, [r7, #20]
10045756:	693a      	ldr	r2, [r7, #16]
10045758:	697b      	ldr	r3, [r7, #20]
1004575a:	69b8      	ldr	r0, [r7, #24]
1004575c:	69f9      	ldr	r1, [r7, #28]
1004575e:	f7fa fe45 	bl	100403ec <__aeabi_lmul>
10045762:	0002      	movs	r2, r0
10045764:	000b      	movs	r3, r1
10045766:	2180      	movs	r1, #128	@ 0x80
10045768:	1879      	adds	r1, r7, r1
1004576a:	600a      	str	r2, [r1, #0]
1004576c:	604b      	str	r3, [r1, #4]
    tgt2 = (uint64_t)LL_GetXTALFreq() * ((*pcM) + 1 + 256);
1004576e:	f003 fee1 	bl	10049534 <LL_GetXTALFreq>
10045772:	0003      	movs	r3, r0
10045774:	60bb      	str	r3, [r7, #8]
10045776:	2300      	movs	r3, #0
10045778:	60fb      	str	r3, [r7, #12]
1004577a:	6e3b      	ldr	r3, [r7, #96]	@ 0x60
1004577c:	781b      	ldrb	r3, [r3, #0]
1004577e:	3302      	adds	r3, #2
10045780:	33ff      	adds	r3, #255	@ 0xff
10045782:	603b      	str	r3, [r7, #0]
10045784:	17db      	asrs	r3, r3, #31
10045786:	607b      	str	r3, [r7, #4]
10045788:	683a      	ldr	r2, [r7, #0]
1004578a:	687b      	ldr	r3, [r7, #4]
1004578c:	68b8      	ldr	r0, [r7, #8]
1004578e:	68f9      	ldr	r1, [r7, #12]
10045790:	f7fa fe2c 	bl	100403ec <__aeabi_lmul>
10045794:	0002      	movs	r2, r0
10045796:	000b      	movs	r3, r1
10045798:	67ba      	str	r2, [r7, #120]	@ 0x78
1004579a:	67fb      	str	r3, [r7, #124]	@ 0x7c
  }

  (*pcM) = ((tgt2 - tgt) < (tgt - tgt1)) ? ((*pcM) + 1) : (*pcM);
1004579c:	6fb8      	ldr	r0, [r7, #120]	@ 0x78
1004579e:	6ff9      	ldr	r1, [r7, #124]	@ 0x7c
100457a0:	6f3a      	ldr	r2, [r7, #112]	@ 0x70
100457a2:	6f7b      	ldr	r3, [r7, #116]	@ 0x74
100457a4:	1a80      	subs	r0, r0, r2
100457a6:	4199      	sbcs	r1, r3
100457a8:	0002      	movs	r2, r0
100457aa:	000b      	movs	r3, r1
100457ac:	6f3c      	ldr	r4, [r7, #112]	@ 0x70
100457ae:	6f7d      	ldr	r5, [r7, #116]	@ 0x74
100457b0:	2180      	movs	r1, #128	@ 0x80
100457b2:	1879      	adds	r1, r7, r1
100457b4:	6808      	ldr	r0, [r1, #0]
100457b6:	6849      	ldr	r1, [r1, #4]
100457b8:	1a24      	subs	r4, r4, r0
100457ba:	418d      	sbcs	r5, r1
100457bc:	0020      	movs	r0, r4
100457be:	0029      	movs	r1, r5
100457c0:	4299      	cmp	r1, r3
100457c2:	d802      	bhi.n	100457ca <MRSubG_SearchFreqDevME+0x208>
100457c4:	d106      	bne.n	100457d4 <MRSubG_SearchFreqDevME+0x212>
100457c6:	4290      	cmp	r0, r2
100457c8:	d904      	bls.n	100457d4 <MRSubG_SearchFreqDevME+0x212>
100457ca:	6e3b      	ldr	r3, [r7, #96]	@ 0x60
100457cc:	781b      	ldrb	r3, [r3, #0]
100457ce:	3301      	adds	r3, #1
100457d0:	b2db      	uxtb	r3, r3
100457d2:	e001      	b.n	100457d8 <MRSubG_SearchFreqDevME+0x216>
100457d4:	6e3b      	ldr	r3, [r7, #96]	@ 0x60
100457d6:	781b      	ldrb	r3, [r3, #0]
100457d8:	6e3a      	ldr	r2, [r7, #96]	@ 0x60
100457da:	7013      	strb	r3, [r2, #0]
}
100457dc:	46c0      	nop			@ (mov r8, r8)
100457de:	46bd      	mov	sp, r7
100457e0:	b025      	add	sp, #148	@ 0x94
100457e2:	bdf0      	pop	{r4, r5, r6, r7, pc}

100457e4 <MRSubG_SearchChannelBwME>:
  * @param  pcM pointer to the returned mantissa value.
  * @param  pcE pointer to the returned exponent value.
  * @retval None.
  */
static void MRSubG_SearchChannelBwME(uint32_t lBandwidth, uint8_t *pcM, uint8_t *pcE)
{
100457e4:	b5f0      	push	{r4, r5, r6, r7, lr}
100457e6:	b093      	sub	sp, #76	@ 0x4c
100457e8:	af00      	add	r7, sp, #0
100457ea:	6278      	str	r0, [r7, #36]	@ 0x24
100457ec:	6239      	str	r1, [r7, #32]
100457ee:	61fa      	str	r2, [r7, #28]
  uint32_t f_dig;
  int32_t chfltCalculation[3];
  uint8_t j;
  uint32_t chfltDelta;

  f_dig = LL_GetXTALFreq() / 3;
100457f0:	f003 fea0 	bl	10049534 <LL_GetXTALFreq>
100457f4:	0003      	movs	r3, r0
100457f6:	2103      	movs	r1, #3
100457f8:	0018      	movs	r0, r3
100457fa:	f7fa fc61 	bl	100400c0 <__udivsi3>
100457fe:	0003      	movs	r3, r0
10045800:	63fb      	str	r3, [r7, #60]	@ 0x3c

  /* Search the channel filter bandwidth table index */
  for (i = 0; i < 99 &&
10045802:	232f      	movs	r3, #47	@ 0x2f
10045804:	2218      	movs	r2, #24
10045806:	189b      	adds	r3, r3, r2
10045808:	19db      	adds	r3, r3, r7
1004580a:	2200      	movs	r2, #0
1004580c:	701a      	strb	r2, [r3, #0]
1004580e:	e00b      	b.n	10045828 <MRSubG_SearchChannelBwME+0x44>
       (lBandwidth < (uint32_t)(((uint64_t)s_Channel_Filter_Bandwidth[i] * f_dig) / 16000000));
       i++)
10045810:	212f      	movs	r1, #47	@ 0x2f
10045812:	2018      	movs	r0, #24
10045814:	180b      	adds	r3, r1, r0
10045816:	19db      	adds	r3, r3, r7
10045818:	781b      	ldrb	r3, [r3, #0]
1004581a:	b25b      	sxtb	r3, r3
1004581c:	b2db      	uxtb	r3, r3
1004581e:	3301      	adds	r3, #1
10045820:	b2da      	uxtb	r2, r3
10045822:	180b      	adds	r3, r1, r0
10045824:	19db      	adds	r3, r3, r7
10045826:	701a      	strb	r2, [r3, #0]
  for (i = 0; i < 99 &&
10045828:	222f      	movs	r2, #47	@ 0x2f
1004582a:	2118      	movs	r1, #24
1004582c:	1853      	adds	r3, r2, r1
1004582e:	19db      	adds	r3, r3, r7
10045830:	781b      	ldrb	r3, [r3, #0]
10045832:	b25b      	sxtb	r3, r3
10045834:	2b62      	cmp	r3, #98	@ 0x62
10045836:	dc20      	bgt.n	1004587a <MRSubG_SearchChannelBwME+0x96>
       (lBandwidth < (uint32_t)(((uint64_t)s_Channel_Filter_Bandwidth[i] * f_dig) / 16000000));
10045838:	1853      	adds	r3, r2, r1
1004583a:	19db      	adds	r3, r3, r7
1004583c:	2200      	movs	r2, #0
1004583e:	569a      	ldrsb	r2, [r3, r2]
10045840:	4b7d      	ldr	r3, [pc, #500]	@ (10045a38 <MRSubG_SearchChannelBwME+0x254>)
10045842:	0092      	lsls	r2, r2, #2
10045844:	58d3      	ldr	r3, [r2, r3]
10045846:	613b      	str	r3, [r7, #16]
10045848:	2300      	movs	r3, #0
1004584a:	617b      	str	r3, [r7, #20]
1004584c:	6bfb      	ldr	r3, [r7, #60]	@ 0x3c
1004584e:	60bb      	str	r3, [r7, #8]
10045850:	2300      	movs	r3, #0
10045852:	60fb      	str	r3, [r7, #12]
10045854:	68ba      	ldr	r2, [r7, #8]
10045856:	68fb      	ldr	r3, [r7, #12]
10045858:	6938      	ldr	r0, [r7, #16]
1004585a:	6979      	ldr	r1, [r7, #20]
1004585c:	f7fa fdc6 	bl	100403ec <__aeabi_lmul>
10045860:	0002      	movs	r2, r0
10045862:	000b      	movs	r3, r1
10045864:	0010      	movs	r0, r2
10045866:	0019      	movs	r1, r3
10045868:	4a74      	ldr	r2, [pc, #464]	@ (10045a3c <MRSubG_SearchChannelBwME+0x258>)
1004586a:	2300      	movs	r3, #0
1004586c:	f7fa fd9e 	bl	100403ac <__aeabi_uldivmod>
10045870:	0002      	movs	r2, r0
10045872:	000b      	movs	r3, r1
  for (i = 0; i < 99 &&
10045874:	6a7b      	ldr	r3, [r7, #36]	@ 0x24
10045876:	4293      	cmp	r3, r2
10045878:	d3ca      	bcc.n	10045810 <MRSubG_SearchChannelBwME+0x2c>
    ;

  if (i != 0)
1004587a:	222f      	movs	r2, #47	@ 0x2f
1004587c:	2118      	movs	r1, #24
1004587e:	1853      	adds	r3, r2, r1
10045880:	19db      	adds	r3, r3, r7
10045882:	781b      	ldrb	r3, [r3, #0]
10045884:	b25b      	sxtb	r3, r3
10045886:	2b00      	cmp	r3, #0
10045888:	d100      	bne.n	1004588c <MRSubG_SearchChannelBwME+0xa8>
1004588a:	e0b5      	b.n	100459f8 <MRSubG_SearchChannelBwME+0x214>
  {
    /* Finds the index value with best approximation in i-1, i and i+1 elements */
    i_tmp = i;
1004588c:	2323      	movs	r3, #35	@ 0x23
1004588e:	185b      	adds	r3, r3, r1
10045890:	19db      	adds	r3, r3, r7
10045892:	1852      	adds	r2, r2, r1
10045894:	19d2      	adds	r2, r2, r7
10045896:	7812      	ldrb	r2, [r2, #0]
10045898:	701a      	strb	r2, [r3, #0]

    for (j = 0; j < 3; j++)
1004589a:	232e      	movs	r3, #46	@ 0x2e
1004589c:	185b      	adds	r3, r3, r1
1004589e:	19db      	adds	r3, r3, r7
100458a0:	2200      	movs	r2, #0
100458a2:	701a      	strb	r2, [r3, #0]
100458a4:	e05d      	b.n	10045962 <MRSubG_SearchChannelBwME+0x17e>
    {
      if (((i_tmp + j - 1) >= 0) && ((i_tmp + j - 1) <= 98))
100458a6:	2023      	movs	r0, #35	@ 0x23
100458a8:	2618      	movs	r6, #24
100458aa:	1983      	adds	r3, r0, r6
100458ac:	19db      	adds	r3, r3, r7
100458ae:	2200      	movs	r2, #0
100458b0:	569a      	ldrsb	r2, [r3, r2]
100458b2:	212e      	movs	r1, #46	@ 0x2e
100458b4:	198b      	adds	r3, r1, r6
100458b6:	19db      	adds	r3, r3, r7
100458b8:	781b      	ldrb	r3, [r3, #0]
100458ba:	18d3      	adds	r3, r2, r3
100458bc:	2b00      	cmp	r3, #0
100458be:	dd3c      	ble.n	1004593a <MRSubG_SearchChannelBwME+0x156>
100458c0:	1983      	adds	r3, r0, r6
100458c2:	19db      	adds	r3, r3, r7
100458c4:	2200      	movs	r2, #0
100458c6:	569a      	ldrsb	r2, [r3, r2]
100458c8:	198b      	adds	r3, r1, r6
100458ca:	19db      	adds	r3, r3, r7
100458cc:	781b      	ldrb	r3, [r3, #0]
100458ce:	18d3      	adds	r3, r2, r3
100458d0:	2b63      	cmp	r3, #99	@ 0x63
100458d2:	dc32      	bgt.n	1004593a <MRSubG_SearchChannelBwME+0x156>
      {
        chfltCalculation[j] = (int32_t)lBandwidth -
100458d4:	6a7e      	ldr	r6, [r7, #36]	@ 0x24
                              (int32_t)(((uint64_t)s_Channel_Filter_Bandwidth[i_tmp + j - 1] * f_dig) / 16000000);
100458d6:	2318      	movs	r3, #24
100458d8:	18c2      	adds	r2, r0, r3
100458da:	19d3      	adds	r3, r2, r7
100458dc:	2200      	movs	r2, #0
100458de:	569a      	ldrsb	r2, [r3, r2]
100458e0:	2018      	movs	r0, #24
100458e2:	180b      	adds	r3, r1, r0
100458e4:	19db      	adds	r3, r3, r7
100458e6:	781b      	ldrb	r3, [r3, #0]
100458e8:	18d3      	adds	r3, r2, r3
100458ea:	1e5a      	subs	r2, r3, #1
100458ec:	4b52      	ldr	r3, [pc, #328]	@ (10045a38 <MRSubG_SearchChannelBwME+0x254>)
100458ee:	0092      	lsls	r2, r2, #2
100458f0:	58d3      	ldr	r3, [r2, r3]
100458f2:	001c      	movs	r4, r3
100458f4:	2300      	movs	r3, #0
100458f6:	001d      	movs	r5, r3
100458f8:	6bfb      	ldr	r3, [r7, #60]	@ 0x3c
100458fa:	603b      	str	r3, [r7, #0]
100458fc:	2300      	movs	r3, #0
100458fe:	607b      	str	r3, [r7, #4]
10045900:	683a      	ldr	r2, [r7, #0]
10045902:	687b      	ldr	r3, [r7, #4]
10045904:	0020      	movs	r0, r4
10045906:	0029      	movs	r1, r5
10045908:	f7fa fd70 	bl	100403ec <__aeabi_lmul>
1004590c:	0002      	movs	r2, r0
1004590e:	000b      	movs	r3, r1
10045910:	0010      	movs	r0, r2
10045912:	0019      	movs	r1, r3
10045914:	4a49      	ldr	r2, [pc, #292]	@ (10045a3c <MRSubG_SearchChannelBwME+0x258>)
10045916:	2300      	movs	r3, #0
10045918:	f7fa fd48 	bl	100403ac <__aeabi_uldivmod>
1004591c:	0002      	movs	r2, r0
1004591e:	000b      	movs	r3, r1
10045920:	0011      	movs	r1, r2
        chfltCalculation[j] = (int32_t)lBandwidth -
10045922:	232e      	movs	r3, #46	@ 0x2e
10045924:	2018      	movs	r0, #24
10045926:	181b      	adds	r3, r3, r0
10045928:	19db      	adds	r3, r3, r7
1004592a:	781a      	ldrb	r2, [r3, #0]
1004592c:	1a71      	subs	r1, r6, r1
1004592e:	2314      	movs	r3, #20
10045930:	181b      	adds	r3, r3, r0
10045932:	19db      	adds	r3, r3, r7
10045934:	0092      	lsls	r2, r2, #2
10045936:	50d1      	str	r1, [r2, r3]
10045938:	e00a      	b.n	10045950 <MRSubG_SearchChannelBwME+0x16c>
      }
      else
      {
        chfltCalculation[j] = 0x7FFFFFFF;
1004593a:	232e      	movs	r3, #46	@ 0x2e
1004593c:	2118      	movs	r1, #24
1004593e:	185b      	adds	r3, r3, r1
10045940:	19db      	adds	r3, r3, r7
10045942:	781a      	ldrb	r2, [r3, #0]
10045944:	2314      	movs	r3, #20
10045946:	185b      	adds	r3, r3, r1
10045948:	19db      	adds	r3, r3, r7
1004594a:	0092      	lsls	r2, r2, #2
1004594c:	493c      	ldr	r1, [pc, #240]	@ (10045a40 <MRSubG_SearchChannelBwME+0x25c>)
1004594e:	50d1      	str	r1, [r2, r3]
    for (j = 0; j < 3; j++)
10045950:	212e      	movs	r1, #46	@ 0x2e
10045952:	2018      	movs	r0, #24
10045954:	180b      	adds	r3, r1, r0
10045956:	19db      	adds	r3, r3, r7
10045958:	781a      	ldrb	r2, [r3, #0]
1004595a:	180b      	adds	r3, r1, r0
1004595c:	19db      	adds	r3, r3, r7
1004595e:	3201      	adds	r2, #1
10045960:	701a      	strb	r2, [r3, #0]
10045962:	222e      	movs	r2, #46	@ 0x2e
10045964:	2118      	movs	r1, #24
10045966:	1853      	adds	r3, r2, r1
10045968:	19db      	adds	r3, r3, r7
1004596a:	781b      	ldrb	r3, [r3, #0]
1004596c:	2b02      	cmp	r3, #2
1004596e:	d99a      	bls.n	100458a6 <MRSubG_SearchChannelBwME+0xc2>
      }
    }

    chfltDelta = 0xFFFFFFFF;
10045970:	2301      	movs	r3, #1
10045972:	425b      	negs	r3, r3
10045974:	643b      	str	r3, [r7, #64]	@ 0x40

    for (j = 0; j < 3; j++)
10045976:	1853      	adds	r3, r2, r1
10045978:	19db      	adds	r3, r3, r7
1004597a:	2200      	movs	r2, #0
1004597c:	701a      	strb	r2, [r3, #0]
1004597e:	e034      	b.n	100459ea <MRSubG_SearchChannelBwME+0x206>
    {
      if (S_ABS(chfltCalculation[j]) < chfltDelta)
10045980:	212e      	movs	r1, #46	@ 0x2e
10045982:	2418      	movs	r4, #24
10045984:	190b      	adds	r3, r1, r4
10045986:	19db      	adds	r3, r3, r7
10045988:	781a      	ldrb	r2, [r3, #0]
1004598a:	2014      	movs	r0, #20
1004598c:	1903      	adds	r3, r0, r4
1004598e:	19db      	adds	r3, r3, r7
10045990:	0092      	lsls	r2, r2, #2
10045992:	58d3      	ldr	r3, [r2, r3]
10045994:	17da      	asrs	r2, r3, #31
10045996:	189b      	adds	r3, r3, r2
10045998:	4053      	eors	r3, r2
1004599a:	001a      	movs	r2, r3
1004599c:	6c3b      	ldr	r3, [r7, #64]	@ 0x40
1004599e:	4293      	cmp	r3, r2
100459a0:	d91a      	bls.n	100459d8 <MRSubG_SearchChannelBwME+0x1f4>
      {
        chfltDelta = S_ABS(chfltCalculation[j]);
100459a2:	190b      	adds	r3, r1, r4
100459a4:	19db      	adds	r3, r3, r7
100459a6:	781a      	ldrb	r2, [r3, #0]
100459a8:	1903      	adds	r3, r0, r4
100459aa:	19db      	adds	r3, r3, r7
100459ac:	0092      	lsls	r2, r2, #2
100459ae:	58d3      	ldr	r3, [r2, r3]
100459b0:	17da      	asrs	r2, r3, #31
100459b2:	189b      	adds	r3, r3, r2
100459b4:	4053      	eors	r3, r2
100459b6:	643b      	str	r3, [r7, #64]	@ 0x40
        i = i_tmp + j - 1;
100459b8:	2323      	movs	r3, #35	@ 0x23
100459ba:	191b      	adds	r3, r3, r4
100459bc:	19db      	adds	r3, r3, r7
100459be:	781a      	ldrb	r2, [r3, #0]
100459c0:	0020      	movs	r0, r4
100459c2:	190b      	adds	r3, r1, r4
100459c4:	19db      	adds	r3, r3, r7
100459c6:	781b      	ldrb	r3, [r3, #0]
100459c8:	18d3      	adds	r3, r2, r3
100459ca:	b2db      	uxtb	r3, r3
100459cc:	3b01      	subs	r3, #1
100459ce:	b2da      	uxtb	r2, r3
100459d0:	232f      	movs	r3, #47	@ 0x2f
100459d2:	181b      	adds	r3, r3, r0
100459d4:	19db      	adds	r3, r3, r7
100459d6:	701a      	strb	r2, [r3, #0]
    for (j = 0; j < 3; j++)
100459d8:	212e      	movs	r1, #46	@ 0x2e
100459da:	2018      	movs	r0, #24
100459dc:	180b      	adds	r3, r1, r0
100459de:	19db      	adds	r3, r3, r7
100459e0:	781a      	ldrb	r2, [r3, #0]
100459e2:	180b      	adds	r3, r1, r0
100459e4:	19db      	adds	r3, r3, r7
100459e6:	3201      	adds	r2, #1
100459e8:	701a      	strb	r2, [r3, #0]
100459ea:	232e      	movs	r3, #46	@ 0x2e
100459ec:	2218      	movs	r2, #24
100459ee:	189b      	adds	r3, r3, r2
100459f0:	19db      	adds	r3, r3, r7
100459f2:	781b      	ldrb	r3, [r3, #0]
100459f4:	2b02      	cmp	r3, #2
100459f6:	d9c3      	bls.n	10045980 <MRSubG_SearchChannelBwME+0x19c>
      }
    }
  }

  (*pcE) = (uint8_t)(i / 9);
100459f8:	242f      	movs	r4, #47	@ 0x2f
100459fa:	2518      	movs	r5, #24
100459fc:	1963      	adds	r3, r4, r5
100459fe:	19db      	adds	r3, r3, r7
10045a00:	781b      	ldrb	r3, [r3, #0]
10045a02:	b25b      	sxtb	r3, r3
10045a04:	2109      	movs	r1, #9
10045a06:	0018      	movs	r0, r3
10045a08:	f7fa fbe4 	bl	100401d4 <__divsi3>
10045a0c:	0003      	movs	r3, r0
10045a0e:	b25b      	sxtb	r3, r3
10045a10:	b2da      	uxtb	r2, r3
10045a12:	69fb      	ldr	r3, [r7, #28]
10045a14:	701a      	strb	r2, [r3, #0]
  (*pcM) = (uint8_t)(i % 9);
10045a16:	1963      	adds	r3, r4, r5
10045a18:	19db      	adds	r3, r3, r7
10045a1a:	781b      	ldrb	r3, [r3, #0]
10045a1c:	b25b      	sxtb	r3, r3
10045a1e:	2109      	movs	r1, #9
10045a20:	0018      	movs	r0, r3
10045a22:	f7fa fcbd 	bl	100403a0 <__aeabi_idivmod>
10045a26:	000b      	movs	r3, r1
10045a28:	b25b      	sxtb	r3, r3
10045a2a:	b2da      	uxtb	r2, r3
10045a2c:	6a3b      	ldr	r3, [r7, #32]
10045a2e:	701a      	strb	r2, [r3, #0]
}
10045a30:	46c0      	nop			@ (mov r8, r8)
10045a32:	46bd      	mov	sp, r7
10045a34:	b013      	add	sp, #76	@ 0x4c
10045a36:	bdf0      	pop	{r4, r5, r6, r7, pc}
10045a38:	10049658 	.word	0x10049658
10045a3c:	00f42400 	.word	0x00f42400
10045a40:	7fffffff 	.word	0x7fffffff

10045a44 <MRSubG_GetAllowedMaxOutputPower>:
  * @brief  Returns the maximum allowed output power supported by the specific configuration
  * @param  paDrvMode the configuration type.
  * @retval The maximum output power.
  */
static uint8_t MRSubG_GetAllowedMaxOutputPower(MRSubG_PA_DRVMode paDrvMode)
{
10045a44:	b580      	push	{r7, lr}
10045a46:	b084      	sub	sp, #16
10045a48:	af00      	add	r7, sp, #0
10045a4a:	0002      	movs	r2, r0
10045a4c:	1dfb      	adds	r3, r7, #7
10045a4e:	701a      	strb	r2, [r3, #0]
  uint8_t retPwr = 20;
10045a50:	230f      	movs	r3, #15
10045a52:	18fb      	adds	r3, r7, r3
10045a54:	2214      	movs	r2, #20
10045a56:	701a      	strb	r2, [r3, #0]

  switch (paDrvMode)
10045a58:	1dfb      	adds	r3, r7, #7
10045a5a:	781b      	ldrb	r3, [r3, #0]
10045a5c:	2b03      	cmp	r3, #3
10045a5e:	d00f      	beq.n	10045a80 <MRSubG_GetAllowedMaxOutputPower+0x3c>
10045a60:	dc13      	bgt.n	10045a8a <MRSubG_GetAllowedMaxOutputPower+0x46>
10045a62:	2b01      	cmp	r3, #1
10045a64:	d002      	beq.n	10045a6c <MRSubG_GetAllowedMaxOutputPower+0x28>
10045a66:	2b02      	cmp	r3, #2
10045a68:	d005      	beq.n	10045a76 <MRSubG_GetAllowedMaxOutputPower+0x32>
10045a6a:	e00e      	b.n	10045a8a <MRSubG_GetAllowedMaxOutputPower+0x46>
  {
    case PA_DRV_TX:
      retPwr = 10;
10045a6c:	230f      	movs	r3, #15
10045a6e:	18fb      	adds	r3, r7, r3
10045a70:	220a      	movs	r2, #10
10045a72:	701a      	strb	r2, [r3, #0]
      break;
10045a74:	e009      	b.n	10045a8a <MRSubG_GetAllowedMaxOutputPower+0x46>
    case PA_DRV_TX_HP:
      retPwr = 16;
10045a76:	230f      	movs	r3, #15
10045a78:	18fb      	adds	r3, r7, r3
10045a7a:	2210      	movs	r2, #16
10045a7c:	701a      	strb	r2, [r3, #0]
      break;
10045a7e:	e004      	b.n	10045a8a <MRSubG_GetAllowedMaxOutputPower+0x46>
    case PA_DRV_TX_TX_HP:
      retPwr = 18; /* Max allowed power without PA_DEGEN_ON */
10045a80:	230f      	movs	r3, #15
10045a82:	18fb      	adds	r3, r7, r3
10045a84:	2212      	movs	r2, #18
10045a86:	701a      	strb	r2, [r3, #0]
      break;
10045a88:	46c0      	nop			@ (mov r8, r8)
  }

  return retPwr;
10045a8a:	230f      	movs	r3, #15
10045a8c:	18fb      	adds	r3, r7, r3
10045a8e:	781b      	ldrb	r3, [r3, #0]
}
10045a90:	0018      	movs	r0, r3
10045a92:	46bd      	mov	sp, r7
10045a94:	b004      	add	sp, #16
10045a96:	bd80      	pop	{r7, pc}

10045a98 <MRSUBG_EvaluateDSSS>:
  * @param  xModulation the modulation type.
  * @param  dsssExponent the DSSS exponent.
  * @retval None.
  */
static void MRSUBG_EvaluateDSSS(MRSubGModSelect xModulation, uint8_t dsssExponent)
{
10045a98:	b580      	push	{r7, lr}
10045a9a:	b084      	sub	sp, #16
10045a9c:	af00      	add	r7, sp, #0
10045a9e:	0002      	movs	r2, r0
10045aa0:	1dfb      	adds	r3, r7, #7
10045aa2:	701a      	strb	r2, [r3, #0]
10045aa4:	1dbb      	adds	r3, r7, #6
10045aa6:	1c0a      	adds	r2, r1, #0
10045aa8:	701a      	strb	r2, [r3, #0]
  /* Disable DSSS for modulations different from 2(G)FSK */
  if (xModulation != MOD_2GFSK05 && xModulation != MOD_2GFSK1)
10045aaa:	1dfb      	adds	r3, r7, #7
10045aac:	781b      	ldrb	r3, [r3, #0]
10045aae:	2b12      	cmp	r3, #18
10045ab0:	d006      	beq.n	10045ac0 <MRSUBG_EvaluateDSSS+0x28>
10045ab2:	1dfb      	adds	r3, r7, #7
10045ab4:	781b      	ldrb	r3, [r3, #0]
10045ab6:	2b02      	cmp	r3, #2
10045ab8:	d002      	beq.n	10045ac0 <MRSUBG_EvaluateDSSS+0x28>
  {
    dsssExponent = 0;
10045aba:	1dbb      	adds	r3, r7, #6
10045abc:	2200      	movs	r2, #0
10045abe:	701a      	strb	r2, [r3, #0]
  }

  uint8_t dsss_en = (dsssExponent > 0);
10045ac0:	1dbb      	adds	r3, r7, #6
10045ac2:	781b      	ldrb	r3, [r3, #0]
10045ac4:	1e5a      	subs	r2, r3, #1
10045ac6:	4193      	sbcs	r3, r2
10045ac8:	b2da      	uxtb	r2, r3
10045aca:	230e      	movs	r3, #14
10045acc:	18fb      	adds	r3, r7, r3
10045ace:	701a      	strb	r2, [r3, #0]
  uint8_t dsss_sf = (1 << dsssExponent); /* Spread Factor = 2^dssExponent */
10045ad0:	1dbb      	adds	r3, r7, #6
10045ad2:	781b      	ldrb	r3, [r3, #0]
10045ad4:	2201      	movs	r2, #1
10045ad6:	409a      	lsls	r2, r3
10045ad8:	210d      	movs	r1, #13
10045ada:	187b      	adds	r3, r7, r1
10045adc:	701a      	strb	r2, [r3, #0]
  uint8_t dsss_acq_thr = (dsss_sf - 1);
10045ade:	200f      	movs	r0, #15
10045ae0:	183b      	adds	r3, r7, r0
10045ae2:	187a      	adds	r2, r7, r1
10045ae4:	7812      	ldrb	r2, [r2, #0]
10045ae6:	3a01      	subs	r2, #1
10045ae8:	701a      	strb	r2, [r3, #0]

  if (dsssExponent > 3)
10045aea:	1dbb      	adds	r3, r7, #6
10045aec:	781b      	ldrb	r3, [r3, #0]
10045aee:	2b03      	cmp	r3, #3
10045af0:	d904      	bls.n	10045afc <MRSUBG_EvaluateDSSS+0x64>
  {
    dsss_acq_thr = dsss_sf / 2;
10045af2:	183b      	adds	r3, r7, r0
10045af4:	187a      	adds	r2, r7, r1
10045af6:	7812      	ldrb	r2, [r2, #0]
10045af8:	0852      	lsrs	r2, r2, #1
10045afa:	701a      	strb	r2, [r3, #0]
  }

  MODIFY_REG_FIELD(MR_SUBG_GLOB_STATIC->DSSS_CTRL,  MR_SUBG_GLOB_STATIC_DSSS_CTRL_DSSS_EN, dsss_en);
10045afc:	4b16      	ldr	r3, [pc, #88]	@ (10045b58 <MRSUBG_EvaluateDSSS+0xc0>)
10045afe:	6b9b      	ldr	r3, [r3, #56]	@ 0x38
10045b00:	2280      	movs	r2, #128	@ 0x80
10045b02:	4393      	bics	r3, r2
10045b04:	0019      	movs	r1, r3
10045b06:	230e      	movs	r3, #14
10045b08:	18fb      	adds	r3, r7, r3
10045b0a:	781b      	ldrb	r3, [r3, #0]
10045b0c:	01db      	lsls	r3, r3, #7
10045b0e:	22ff      	movs	r2, #255	@ 0xff
10045b10:	401a      	ands	r2, r3
10045b12:	4b11      	ldr	r3, [pc, #68]	@ (10045b58 <MRSUBG_EvaluateDSSS+0xc0>)
10045b14:	430a      	orrs	r2, r1
10045b16:	639a      	str	r2, [r3, #56]	@ 0x38
  MODIFY_REG_FIELD(MR_SUBG_GLOB_STATIC->DSSS_CTRL,  MR_SUBG_GLOB_STATIC_DSSS_CTRL_SPREADING_EXP, dsssExponent);
10045b18:	4b0f      	ldr	r3, [pc, #60]	@ (10045b58 <MRSUBG_EvaluateDSSS+0xc0>)
10045b1a:	6b9b      	ldr	r3, [r3, #56]	@ 0x38
10045b1c:	2270      	movs	r2, #112	@ 0x70
10045b1e:	4393      	bics	r3, r2
10045b20:	0019      	movs	r1, r3
10045b22:	1dbb      	adds	r3, r7, #6
10045b24:	781b      	ldrb	r3, [r3, #0]
10045b26:	011b      	lsls	r3, r3, #4
10045b28:	2270      	movs	r2, #112	@ 0x70
10045b2a:	401a      	ands	r2, r3
10045b2c:	4b0a      	ldr	r3, [pc, #40]	@ (10045b58 <MRSUBG_EvaluateDSSS+0xc0>)
10045b2e:	430a      	orrs	r2, r1
10045b30:	639a      	str	r2, [r3, #56]	@ 0x38
  MODIFY_REG_FIELD(MR_SUBG_GLOB_STATIC->DSSS_CTRL,  MR_SUBG_GLOB_STATIC_DSSS_CTRL_ACQ_THR, dsss_acq_thr);
10045b32:	4b09      	ldr	r3, [pc, #36]	@ (10045b58 <MRSUBG_EvaluateDSSS+0xc0>)
10045b34:	6b9b      	ldr	r3, [r3, #56]	@ 0x38
10045b36:	4a09      	ldr	r2, [pc, #36]	@ (10045b5c <MRSUBG_EvaluateDSSS+0xc4>)
10045b38:	4013      	ands	r3, r2
10045b3a:	0019      	movs	r1, r3
10045b3c:	230f      	movs	r3, #15
10045b3e:	18fb      	adds	r3, r7, r3
10045b40:	781b      	ldrb	r3, [r3, #0]
10045b42:	029b      	lsls	r3, r3, #10
10045b44:	041b      	lsls	r3, r3, #16
10045b46:	0c1a      	lsrs	r2, r3, #16
10045b48:	4b03      	ldr	r3, [pc, #12]	@ (10045b58 <MRSUBG_EvaluateDSSS+0xc0>)
10045b4a:	430a      	orrs	r2, r1
10045b4c:	639a      	str	r2, [r3, #56]	@ 0x38
}
10045b4e:	46c0      	nop			@ (mov r8, r8)
10045b50:	46bd      	mov	sp, r7
10045b52:	b004      	add	sp, #16
10045b54:	bd80      	pop	{r7, pc}
10045b56:	46c0      	nop			@ (mov r8, r8)
10045b58:	49000400 	.word	0x49000400
10045b5c:	ffff03ff 	.word	0xffff03ff

10045b60 <HAL_MRSubG_Init>:
  * @param  pxSRadioInitStruct pointer to a SMRSubGConfig_t structure that
  *         contains the configuration information for the MR_SUBG radio part of STM32WL3x.
  * @retval Error code: 0=no error, 1=error during calibration of VCO.
  */
uint8_t HAL_MRSubG_Init(SMRSubGConfig_t *pxSRadioInitStruct)
{
10045b60:	b580      	push	{r7, lr}
10045b62:	b082      	sub	sp, #8
10045b64:	af00      	add	r7, sp, #0
10045b66:	6078      	str	r0, [r7, #4]

  assert_param(IS_FREQUENCY_BAND(pxSRadioInitStruct->lFrequencyBase));
  assert_param(IS_MODULATION(pxSRadioInitStruct->xModulationSelect));
  assert_param(IS_DATARATE(pxSRadioInitStruct->lDatarate));

  HAL_MRSubG_MspInit();
10045b68:	f7fd feec 	bl	10043944 <HAL_MRSubG_MspInit>

  /* Setup design values for default registers */
  MODIFY_REG_FIELD(MR_SUBG_RADIO->AFC1_CONFIG, MR_SUBG_RADIO_AFC1_CONFIG_AFC_FAST_PERIOD, 0x00);
10045b6c:	2392      	movs	r3, #146	@ 0x92
10045b6e:	05db      	lsls	r3, r3, #23
10045b70:	6a5a      	ldr	r2, [r3, #36]	@ 0x24
10045b72:	2392      	movs	r3, #146	@ 0x92
10045b74:	05db      	lsls	r3, r3, #23
10045b76:	21ff      	movs	r1, #255	@ 0xff
10045b78:	438a      	bics	r2, r1
10045b7a:	625a      	str	r2, [r3, #36]	@ 0x24

  MODIFY_REG_FIELD(MR_SUBG_RADIO->CLKREC_CTRL0, MR_SUBG_RADIO_CLKREC_CTRL0_PSTFLT_LEN, 0x01);
10045b7c:	2392      	movs	r3, #146	@ 0x92
10045b7e:	05db      	lsls	r3, r3, #23
10045b80:	6b1a      	ldr	r2, [r3, #48]	@ 0x30
10045b82:	2392      	movs	r3, #146	@ 0x92
10045b84:	05db      	lsls	r3, r3, #23
10045b86:	2180      	movs	r1, #128	@ 0x80
10045b88:	430a      	orrs	r2, r1
10045b8a:	631a      	str	r2, [r3, #48]	@ 0x30
  MODIFY_REG_FIELD(MR_SUBG_RADIO->CLKREC_CTRL0, MR_SUBG_RADIO_CLKREC_CTRL0_CLKREC_P_GAIN_FAST, 0x03);
10045b8c:	2392      	movs	r3, #146	@ 0x92
10045b8e:	05db      	lsls	r3, r3, #23
10045b90:	6b1b      	ldr	r3, [r3, #48]	@ 0x30
10045b92:	2270      	movs	r2, #112	@ 0x70
10045b94:	4393      	bics	r3, r2
10045b96:	001a      	movs	r2, r3
10045b98:	2392      	movs	r3, #146	@ 0x92
10045b9a:	05db      	lsls	r3, r3, #23
10045b9c:	2130      	movs	r1, #48	@ 0x30
10045b9e:	430a      	orrs	r2, r1
10045ba0:	631a      	str	r2, [r3, #48]	@ 0x30
  MODIFY_REG_FIELD(MR_SUBG_RADIO->CLKREC_CTRL0, MR_SUBG_RADIO_CLKREC_CTRL0_CLKREC_I_GAIN_FAST, 0x08);
10045ba2:	2392      	movs	r3, #146	@ 0x92
10045ba4:	05db      	lsls	r3, r3, #23
10045ba6:	6b1b      	ldr	r3, [r3, #48]	@ 0x30
10045ba8:	220f      	movs	r2, #15
10045baa:	4393      	bics	r3, r2
10045bac:	001a      	movs	r2, r3
10045bae:	2392      	movs	r3, #146	@ 0x92
10045bb0:	05db      	lsls	r3, r3, #23
10045bb2:	2108      	movs	r1, #8
10045bb4:	430a      	orrs	r2, r1
10045bb6:	631a      	str	r2, [r3, #48]	@ 0x30

  MODIFY_REG_FIELD(MR_SUBG_RADIO->CLKREC_CTRL1, MR_SUBG_RADIO_CLKREC_CTRL1_CLKREC_ALGO_SEL, 0x00);
10045bb8:	2392      	movs	r3, #146	@ 0x92
10045bba:	05db      	lsls	r3, r3, #23
10045bbc:	6b5a      	ldr	r2, [r3, #52]	@ 0x34
10045bbe:	2392      	movs	r3, #146	@ 0x92
10045bc0:	05db      	lsls	r3, r3, #23
10045bc2:	2180      	movs	r1, #128	@ 0x80
10045bc4:	438a      	bics	r2, r1
10045bc6:	635a      	str	r2, [r3, #52]	@ 0x34
  MODIFY_REG_FIELD(MR_SUBG_RADIO->CLKREC_CTRL1, MR_SUBG_RADIO_CLKREC_CTRL1_CLKREC_P_GAIN_SLOW, 0x05);
10045bc8:	2392      	movs	r3, #146	@ 0x92
10045bca:	05db      	lsls	r3, r3, #23
10045bcc:	6b5b      	ldr	r3, [r3, #52]	@ 0x34
10045bce:	2270      	movs	r2, #112	@ 0x70
10045bd0:	4393      	bics	r3, r2
10045bd2:	001a      	movs	r2, r3
10045bd4:	2392      	movs	r3, #146	@ 0x92
10045bd6:	05db      	lsls	r3, r3, #23
10045bd8:	2150      	movs	r1, #80	@ 0x50
10045bda:	430a      	orrs	r2, r1
10045bdc:	635a      	str	r2, [r3, #52]	@ 0x34
  MODIFY_REG_FIELD(MR_SUBG_RADIO->CLKREC_CTRL1, MR_SUBG_RADIO_CLKREC_CTRL1_CLKREC_I_GAIN_SLOW, 0x0C);
10045bde:	2392      	movs	r3, #146	@ 0x92
10045be0:	05db      	lsls	r3, r3, #23
10045be2:	6b5b      	ldr	r3, [r3, #52]	@ 0x34
10045be4:	220f      	movs	r2, #15
10045be6:	4393      	bics	r3, r2
10045be8:	001a      	movs	r2, r3
10045bea:	2392      	movs	r3, #146	@ 0x92
10045bec:	05db      	lsls	r3, r3, #23
10045bee:	210c      	movs	r1, #12
10045bf0:	430a      	orrs	r2, r1
10045bf2:	635a      	str	r2, [r3, #52]	@ 0x34

  MODIFY_REG_FIELD(MR_SUBG_GLOB_STATIC->DSSS_CTRL, MR_SUBG_GLOB_STATIC_DSSS_CTRL_ACQ_HITS, 0x03);
10045bf4:	4b22      	ldr	r3, [pc, #136]	@ (10045c80 <HAL_MRSubG_Init+0x120>)
10045bf6:	6b9a      	ldr	r2, [r3, #56]	@ 0x38
10045bf8:	4b21      	ldr	r3, [pc, #132]	@ (10045c80 <HAL_MRSubG_Init+0x120>)
10045bfa:	21c0      	movs	r1, #192	@ 0xc0
10045bfc:	0089      	lsls	r1, r1, #2
10045bfe:	430a      	orrs	r2, r1
10045c00:	639a      	str	r2, [r3, #56]	@ 0x38
  MODIFY_REG_FIELD(MR_SUBG_GLOB_STATIC->DSSS_CTRL, MR_SUBG_GLOB_STATIC_DSSS_CTRL_ACQ_WINDOW, 0x04);
10045c02:	4b1f      	ldr	r3, [pc, #124]	@ (10045c80 <HAL_MRSubG_Init+0x120>)
10045c04:	6b9b      	ldr	r3, [r3, #56]	@ 0x38
10045c06:	220f      	movs	r2, #15
10045c08:	4393      	bics	r3, r2
10045c0a:	001a      	movs	r2, r3
10045c0c:	4b1c      	ldr	r3, [pc, #112]	@ (10045c80 <HAL_MRSubG_Init+0x120>)
10045c0e:	2104      	movs	r1, #4
10045c10:	430a      	orrs	r2, r1
10045c12:	639a      	str	r2, [r3, #56]	@ 0x38

  /* Enable calibration */
  SET_BIT(MR_SUBG_GLOB_DYNAMIC->VCO_CAL_CONFIG, MR_SUBG_GLOB_DYNAMIC_VCO_CAL_CONFIG_VCO_CALIB_REQ);
10045c14:	4b1b      	ldr	r3, [pc, #108]	@ (10045c84 <HAL_MRSubG_Init+0x124>)
10045c16:	691a      	ldr	r2, [r3, #16]
10045c18:	4b1a      	ldr	r3, [pc, #104]	@ (10045c84 <HAL_MRSubG_Init+0x124>)
10045c1a:	2180      	movs	r1, #128	@ 0x80
10045c1c:	0609      	lsls	r1, r1, #24
10045c1e:	430a      	orrs	r2, r1
10045c20:	611a      	str	r2, [r3, #16]

  /* Avoid AGC glitches */
  WRITE_REG(MR_SUBG_RADIO->RF_FSM7_TIMEOUT, 0x0F);
10045c22:	2392      	movs	r3, #146	@ 0x92
10045c24:	05db      	lsls	r3, r3, #23
10045c26:	220f      	movs	r2, #15
10045c28:	61da      	str	r2, [r3, #28]

  /* Set synth registers */
  HAL_MRSubG_SetFrequencyBase(pxSRadioInitStruct->lFrequencyBase);
10045c2a:	687b      	ldr	r3, [r7, #4]
10045c2c:	681b      	ldr	r3, [r3, #0]
10045c2e:	0018      	movs	r0, r3
10045c30:	f000 f82a 	bl	10045c88 <HAL_MRSubG_SetFrequencyBase>

  /* Configure modulation */
  HAL_MRSubG_SetModulation(pxSRadioInitStruct->xModulationSelect, pxSRadioInitStruct->dsssExp);
10045c34:	687b      	ldr	r3, [r7, #4]
10045c36:	791a      	ldrb	r2, [r3, #4]
10045c38:	687b      	ldr	r3, [r7, #4]
10045c3a:	7d1b      	ldrb	r3, [r3, #20]
10045c3c:	0019      	movs	r1, r3
10045c3e:	0010      	movs	r0, r2
10045c40:	f000 f960 	bl	10045f04 <HAL_MRSubG_SetModulation>

  /* Configure datarate */
  HAL_MRSubG_SetDatarate(pxSRadioInitStruct->lDatarate);
10045c44:	687b      	ldr	r3, [r7, #4]
10045c46:	689b      	ldr	r3, [r3, #8]
10045c48:	0018      	movs	r0, r3
10045c4a:	f000 f865 	bl	10045d18 <HAL_MRSubG_SetDatarate>

  /* Configure frequency deviation */
  HAL_MRSubG_SetFrequencyDev(pxSRadioInitStruct->lFreqDev);
10045c4e:	687b      	ldr	r3, [r7, #4]
10045c50:	68db      	ldr	r3, [r3, #12]
10045c52:	0018      	movs	r0, r3
10045c54:	f000 f88c 	bl	10045d70 <HAL_MRSubG_SetFrequencyDev>

  /* Configure RX channel bandwidth */
  HAL_MRSubG_SetChannelBW(pxSRadioInitStruct->lBandwidth);
10045c58:	687b      	ldr	r3, [r7, #4]
10045c5a:	691b      	ldr	r3, [r3, #16]
10045c5c:	0018      	movs	r0, r3
10045c5e:	f000 f8c1 	bl	10045de4 <HAL_MRSubG_SetChannelBW>

  /* Configure Output Power */
  HAL_MRSubG_SetPALeveldBm(7, pxSRadioInitStruct->outputPower, pxSRadioInitStruct->PADrvMode);
10045c62:	687b      	ldr	r3, [r7, #4]
10045c64:	2115      	movs	r1, #21
10045c66:	5659      	ldrsb	r1, [r3, r1]
10045c68:	687b      	ldr	r3, [r7, #4]
10045c6a:	7d9b      	ldrb	r3, [r3, #22]
10045c6c:	001a      	movs	r2, r3
10045c6e:	2007      	movs	r0, #7
10045c70:	f000 f9ce 	bl	10046010 <HAL_MRSubG_SetPALeveldBm>

  return 0;
10045c74:	2300      	movs	r3, #0
}
10045c76:	0018      	movs	r0, r3
10045c78:	46bd      	mov	sp, r7
10045c7a:	b002      	add	sp, #8
10045c7c:	bd80      	pop	{r7, pc}
10045c7e:	46c0      	nop			@ (mov r8, r8)
10045c80:	49000400 	.word	0x49000400
10045c84:	49000500 	.word	0x49000500

10045c88 <HAL_MRSubG_SetFrequencyBase>:
  * @brief  Set the Synth word and the Band Select register according to desired base carrier frequency.
  * @param  lFBase the base carrier frequency expressed in Hz as unsigned word.
  * @retval None.
  */
void HAL_MRSubG_SetFrequencyBase(uint32_t lFBase)
{
10045c88:	b5b0      	push	{r4, r5, r7, lr}
10045c8a:	b086      	sub	sp, #24
10045c8c:	af00      	add	r7, sp, #0
10045c8e:	6078      	str	r0, [r7, #4]
  uint32_t synth_frac;
  uint32_t b_factor;

  assert_param(IS_FREQUENCY_BAND(lFBase));

  MRSubG_ComputeSynthWord(lFBase, &synth_int, &synth_frac, &band);
10045c90:	2413      	movs	r4, #19
10045c92:	193b      	adds	r3, r7, r4
10045c94:	220c      	movs	r2, #12
10045c96:	18ba      	adds	r2, r7, r2
10045c98:	2512      	movs	r5, #18
10045c9a:	1979      	adds	r1, r7, r5
10045c9c:	6878      	ldr	r0, [r7, #4]
10045c9e:	f7ff fa3b 	bl	10045118 <MRSubG_ComputeSynthWord>

  MODIFY_REG_FIELD(MR_SUBG_GLOB_DYNAMIC->SYNTH_FREQ, MR_SUBG_GLOB_DYNAMIC_SYNTH_FREQ_SYNTH_INT, synth_int);
10045ca2:	4b1a      	ldr	r3, [pc, #104]	@ (10045d0c <HAL_MRSubG_SetFrequencyBase+0x84>)
10045ca4:	68db      	ldr	r3, [r3, #12]
10045ca6:	4a1a      	ldr	r2, [pc, #104]	@ (10045d10 <HAL_MRSubG_SetFrequencyBase+0x88>)
10045ca8:	4013      	ands	r3, r2
10045caa:	0019      	movs	r1, r3
10045cac:	197b      	adds	r3, r7, r5
10045cae:	781b      	ldrb	r3, [r3, #0]
10045cb0:	051a      	lsls	r2, r3, #20
10045cb2:	23ff      	movs	r3, #255	@ 0xff
10045cb4:	051b      	lsls	r3, r3, #20
10045cb6:	401a      	ands	r2, r3
10045cb8:	4b14      	ldr	r3, [pc, #80]	@ (10045d0c <HAL_MRSubG_SetFrequencyBase+0x84>)
10045cba:	430a      	orrs	r2, r1
10045cbc:	60da      	str	r2, [r3, #12]
  MODIFY_REG_FIELD(MR_SUBG_GLOB_DYNAMIC->SYNTH_FREQ, MR_SUBG_GLOB_DYNAMIC_SYNTH_FREQ_SYNTH_FRAC, synth_frac);
10045cbe:	4b13      	ldr	r3, [pc, #76]	@ (10045d0c <HAL_MRSubG_SetFrequencyBase+0x84>)
10045cc0:	68db      	ldr	r3, [r3, #12]
10045cc2:	0d1b      	lsrs	r3, r3, #20
10045cc4:	0519      	lsls	r1, r3, #20
10045cc6:	68fb      	ldr	r3, [r7, #12]
10045cc8:	031b      	lsls	r3, r3, #12
10045cca:	0b1a      	lsrs	r2, r3, #12
10045ccc:	4b0f      	ldr	r3, [pc, #60]	@ (10045d0c <HAL_MRSubG_SetFrequencyBase+0x84>)
10045cce:	430a      	orrs	r2, r1
10045cd0:	60da      	str	r2, [r3, #12]
  MODIFY_REG_FIELD(MR_SUBG_GLOB_DYNAMIC->ADDITIONAL_CTRL, MR_SUBG_GLOB_DYNAMIC_ADDITIONAL_CTRL_CH_NUM, 0x00);
10045cd2:	4b0e      	ldr	r3, [pc, #56]	@ (10045d0c <HAL_MRSubG_SetFrequencyBase+0x84>)
10045cd4:	6a1a      	ldr	r2, [r3, #32]
10045cd6:	4b0d      	ldr	r3, [pc, #52]	@ (10045d0c <HAL_MRSubG_SetFrequencyBase+0x84>)
10045cd8:	21ff      	movs	r1, #255	@ 0xff
10045cda:	438a      	bics	r2, r1
10045cdc:	621a      	str	r2, [r3, #32]
  else
  {
    b_factor = (band / 4) - 1;
  }
#else
  b_factor = (band / 4) - 1;
10045cde:	193b      	adds	r3, r7, r4
10045ce0:	781b      	ldrb	r3, [r3, #0]
10045ce2:	089b      	lsrs	r3, r3, #2
10045ce4:	b2db      	uxtb	r3, r3
10045ce6:	3b01      	subs	r3, #1
10045ce8:	617b      	str	r3, [r7, #20]
#endif /* STM32WL3RX */

  MODIFY_REG_FIELD(MR_SUBG_GLOB_DYNAMIC->SYNTH_FREQ, MR_SUBG_GLOB_DYNAMIC_SYNTH_FREQ_BS, b_factor);
10045cea:	4b08      	ldr	r3, [pc, #32]	@ (10045d0c <HAL_MRSubG_SetFrequencyBase+0x84>)
10045cec:	68db      	ldr	r3, [r3, #12]
10045cee:	4a09      	ldr	r2, [pc, #36]	@ (10045d14 <HAL_MRSubG_SetFrequencyBase+0x8c>)
10045cf0:	4013      	ands	r3, r2
10045cf2:	0019      	movs	r1, r3
10045cf4:	697b      	ldr	r3, [r7, #20]
10045cf6:	079a      	lsls	r2, r3, #30
10045cf8:	2380      	movs	r3, #128	@ 0x80
10045cfa:	05db      	lsls	r3, r3, #23
10045cfc:	401a      	ands	r2, r3
10045cfe:	4b03      	ldr	r3, [pc, #12]	@ (10045d0c <HAL_MRSubG_SetFrequencyBase+0x84>)
10045d00:	430a      	orrs	r2, r1
10045d02:	60da      	str	r2, [r3, #12]
}
10045d04:	46c0      	nop			@ (mov r8, r8)
10045d06:	46bd      	mov	sp, r7
10045d08:	b006      	add	sp, #24
10045d0a:	bdb0      	pop	{r4, r5, r7, pc}
10045d0c:	49000500 	.word	0x49000500
10045d10:	f00fffff 	.word	0xf00fffff
10045d14:	bfffffff 	.word	0xbfffffff

10045d18 <HAL_MRSubG_SetDatarate>:
  * @brief  Set the datarate.
  * @param  lDatarate datarate expressed in sps.
  * @retval None.
  */
void HAL_MRSubG_SetDatarate(uint32_t lDatarate)
{
10045d18:	b5b0      	push	{r4, r5, r7, lr}
10045d1a:	b084      	sub	sp, #16
10045d1c:	af00      	add	r7, sp, #0
10045d1e:	6078      	str	r0, [r7, #4]
  uint16_t dr_m;

  assert_param(IS_DATARATE(lDatarate));

  /* Calculates the datarate mantissa and exponent */
  MRSubG_SearchDatarateME(lDatarate, &dr_m, &dr_e);
10045d20:	240f      	movs	r4, #15
10045d22:	193a      	adds	r2, r7, r4
10045d24:	250c      	movs	r5, #12
10045d26:	1979      	adds	r1, r7, r5
10045d28:	687b      	ldr	r3, [r7, #4]
10045d2a:	0018      	movs	r0, r3
10045d2c:	f7ff fac6 	bl	100452bc <MRSubG_SearchDatarateME>

  MODIFY_REG_FIELD(MR_SUBG_GLOB_DYNAMIC->MOD0_CONFIG, MR_SUBG_GLOB_DYNAMIC_MOD0_CONFIG_DATARATE_M, dr_m);
10045d30:	4b0d      	ldr	r3, [pc, #52]	@ (10045d68 <HAL_MRSubG_SetDatarate+0x50>)
10045d32:	685b      	ldr	r3, [r3, #4]
10045d34:	0c1b      	lsrs	r3, r3, #16
10045d36:	041a      	lsls	r2, r3, #16
10045d38:	197b      	adds	r3, r7, r5
10045d3a:	881b      	ldrh	r3, [r3, #0]
10045d3c:	0019      	movs	r1, r3
10045d3e:	4b0a      	ldr	r3, [pc, #40]	@ (10045d68 <HAL_MRSubG_SetDatarate+0x50>)
10045d40:	430a      	orrs	r2, r1
10045d42:	605a      	str	r2, [r3, #4]
  MODIFY_REG_FIELD(MR_SUBG_GLOB_DYNAMIC->MOD0_CONFIG, MR_SUBG_GLOB_DYNAMIC_MOD0_CONFIG_DATARATE_E, dr_e);
10045d44:	4b08      	ldr	r3, [pc, #32]	@ (10045d68 <HAL_MRSubG_SetDatarate+0x50>)
10045d46:	685b      	ldr	r3, [r3, #4]
10045d48:	4a08      	ldr	r2, [pc, #32]	@ (10045d6c <HAL_MRSubG_SetDatarate+0x54>)
10045d4a:	4013      	ands	r3, r2
10045d4c:	0019      	movs	r1, r3
10045d4e:	193b      	adds	r3, r7, r4
10045d50:	781b      	ldrb	r3, [r3, #0]
10045d52:	041a      	lsls	r2, r3, #16
10045d54:	23f0      	movs	r3, #240	@ 0xf0
10045d56:	031b      	lsls	r3, r3, #12
10045d58:	401a      	ands	r2, r3
10045d5a:	4b03      	ldr	r3, [pc, #12]	@ (10045d68 <HAL_MRSubG_SetDatarate+0x50>)
10045d5c:	430a      	orrs	r2, r1
10045d5e:	605a      	str	r2, [r3, #4]
}
10045d60:	46c0      	nop			@ (mov r8, r8)
10045d62:	46bd      	mov	sp, r7
10045d64:	b004      	add	sp, #16
10045d66:	bdb0      	pop	{r4, r5, r7, pc}
10045d68:	49000500 	.word	0x49000500
10045d6c:	fff0ffff 	.word	0xfff0ffff

10045d70 <HAL_MRSubG_SetFrequencyDev>:
  * @brief  Set the frequency deviation.
  * @param  lFDev frequency deviation expressed in Hz.
  * @retval None.
  */
void HAL_MRSubG_SetFrequencyDev(uint32_t lFDev)
{
10045d70:	b5b0      	push	{r4, r5, r7, lr}
10045d72:	b084      	sub	sp, #16
10045d74:	af00      	add	r7, sp, #0
10045d76:	6078      	str	r0, [r7, #4]
  else
  {
    bs = (READ_REG_FIELD(MR_SUBG_GLOB_DYNAMIC->SYNTH_FREQ, MR_SUBG_GLOB_DYNAMIC_SYNTH_FREQ_BS) + 1) * 4;
  }
#else
  bs = (READ_REG_FIELD(MR_SUBG_GLOB_DYNAMIC->SYNTH_FREQ, MR_SUBG_GLOB_DYNAMIC_SYNTH_FREQ_BS) + 1) * 4;
10045d78:	4b18      	ldr	r3, [pc, #96]	@ (10045ddc <HAL_MRSubG_SetFrequencyDev+0x6c>)
10045d7a:	68db      	ldr	r3, [r3, #12]
10045d7c:	0f9b      	lsrs	r3, r3, #30
10045d7e:	2201      	movs	r2, #1
10045d80:	4013      	ands	r3, r2
10045d82:	3301      	adds	r3, #1
10045d84:	b2da      	uxtb	r2, r3
10045d86:	210f      	movs	r1, #15
10045d88:	187b      	adds	r3, r7, r1
10045d8a:	0092      	lsls	r2, r2, #2
10045d8c:	701a      	strb	r2, [r3, #0]
#endif /* STM32WL3RX */
#endif /* STM32WL33XA */

  /* Calculates the frequency deviation mantissa and exponent */
  MRSubG_SearchFreqDevME(lFDev, &uFDevM, &uFDevE, bs);
10045d8e:	187b      	adds	r3, r7, r1
10045d90:	781b      	ldrb	r3, [r3, #0]
10045d92:	240d      	movs	r4, #13
10045d94:	193a      	adds	r2, r7, r4
10045d96:	250e      	movs	r5, #14
10045d98:	1979      	adds	r1, r7, r5
10045d9a:	6878      	ldr	r0, [r7, #4]
10045d9c:	f7ff fc11 	bl	100455c2 <MRSubG_SearchFreqDevME>

  MODIFY_REG_FIELD(MR_SUBG_GLOB_DYNAMIC->MOD1_CONFIG, MR_SUBG_GLOB_DYNAMIC_MOD1_CONFIG_FDEV_M, uFDevM);
10045da0:	4b0e      	ldr	r3, [pc, #56]	@ (10045ddc <HAL_MRSubG_SetFrequencyDev+0x6c>)
10045da2:	689b      	ldr	r3, [r3, #8]
10045da4:	22ff      	movs	r2, #255	@ 0xff
10045da6:	4393      	bics	r3, r2
10045da8:	001a      	movs	r2, r3
10045daa:	197b      	adds	r3, r7, r5
10045dac:	781b      	ldrb	r3, [r3, #0]
10045dae:	0019      	movs	r1, r3
10045db0:	4b0a      	ldr	r3, [pc, #40]	@ (10045ddc <HAL_MRSubG_SetFrequencyDev+0x6c>)
10045db2:	430a      	orrs	r2, r1
10045db4:	609a      	str	r2, [r3, #8]
  MODIFY_REG_FIELD(MR_SUBG_GLOB_DYNAMIC->MOD1_CONFIG, MR_SUBG_GLOB_DYNAMIC_MOD1_CONFIG_FDEV_E, uFDevE);
10045db6:	4b09      	ldr	r3, [pc, #36]	@ (10045ddc <HAL_MRSubG_SetFrequencyDev+0x6c>)
10045db8:	689b      	ldr	r3, [r3, #8]
10045dba:	4a09      	ldr	r2, [pc, #36]	@ (10045de0 <HAL_MRSubG_SetFrequencyDev+0x70>)
10045dbc:	4013      	ands	r3, r2
10045dbe:	0019      	movs	r1, r3
10045dc0:	193b      	adds	r3, r7, r4
10045dc2:	781b      	ldrb	r3, [r3, #0]
10045dc4:	021a      	lsls	r2, r3, #8
10045dc6:	23f0      	movs	r3, #240	@ 0xf0
10045dc8:	011b      	lsls	r3, r3, #4
10045dca:	401a      	ands	r2, r3
10045dcc:	4b03      	ldr	r3, [pc, #12]	@ (10045ddc <HAL_MRSubG_SetFrequencyDev+0x6c>)
10045dce:	430a      	orrs	r2, r1
10045dd0:	609a      	str	r2, [r3, #8]
}
10045dd2:	46c0      	nop			@ (mov r8, r8)
10045dd4:	46bd      	mov	sp, r7
10045dd6:	b004      	add	sp, #16
10045dd8:	bdb0      	pop	{r4, r5, r7, pc}
10045dda:	46c0      	nop			@ (mov r8, r8)
10045ddc:	49000500 	.word	0x49000500
10045de0:	fffff0ff 	.word	0xfffff0ff

10045de4 <HAL_MRSubG_SetChannelBW>:
  *         bandwidth values (@ref s_Channel_Filter_Bandwidth).
  *         To verify the settled channel bandwidth it is possible to use the HAL_MRSubG_GetChannelBW API.
  * @retval None.
  */
void HAL_MRSubG_SetChannelBW(uint32_t lBandwidth)
{
10045de4:	b5b0      	push	{r4, r5, r7, lr}
10045de6:	b088      	sub	sp, #32
10045de8:	af00      	add	r7, sp, #0
10045dea:	6078      	str	r0, [r7, #4]
  uint8_t uBwM = 0;
10045dec:	240f      	movs	r4, #15
10045dee:	193b      	adds	r3, r7, r4
10045df0:	2200      	movs	r2, #0
10045df2:	701a      	strb	r2, [r3, #0]
  uint8_t uBwE = 0;
10045df4:	250e      	movs	r5, #14
10045df6:	197b      	adds	r3, r7, r5
10045df8:	2200      	movs	r2, #0
10045dfa:	701a      	strb	r2, [r3, #0]
  uint32_t f_if = 0;
10045dfc:	2300      	movs	r3, #0
10045dfe:	61fb      	str	r3, [r7, #28]
  uint32_t if_offset = 0;
10045e00:	2300      	movs	r3, #0
10045e02:	61bb      	str	r3, [r7, #24]
  uint32_t chf_threshold = CHANNEL_FILTER_THRESHOLD;
10045e04:	4b38      	ldr	r3, [pc, #224]	@ (10045ee8 <HAL_MRSubG_SetChannelBW+0x104>)
10045e06:	617b      	str	r3, [r7, #20]
  uint32_t f_dig = LL_GetXTALFreq() / 3;
10045e08:	f003 fb94 	bl	10049534 <LL_GetXTALFreq>
10045e0c:	0003      	movs	r3, r0
10045e0e:	2103      	movs	r1, #3
10045e10:	0018      	movs	r0, r3
10045e12:	f7fa f955 	bl	100400c0 <__udivsi3>
10045e16:	0003      	movs	r3, r0
10045e18:	613b      	str	r3, [r7, #16]

  /* Calculates the channel bandwidth mantissa and exponent */
  MRSubG_SearchChannelBwME(lBandwidth, &uBwM, &uBwE);
10045e1a:	197a      	adds	r2, r7, r5
10045e1c:	1939      	adds	r1, r7, r4
10045e1e:	687b      	ldr	r3, [r7, #4]
10045e20:	0018      	movs	r0, r3
10045e22:	f7ff fcdf 	bl	100457e4 <MRSubG_SearchChannelBwME>

  MODIFY_REG_FIELD(MR_SUBG_GLOB_DYNAMIC->MOD1_CONFIG, MR_SUBG_GLOB_DYNAMIC_MOD1_CONFIG_CHFLT_M, uBwM);
10045e26:	4b31      	ldr	r3, [pc, #196]	@ (10045eec <HAL_MRSubG_SetChannelBW+0x108>)
10045e28:	689b      	ldr	r3, [r3, #8]
10045e2a:	4a31      	ldr	r2, [pc, #196]	@ (10045ef0 <HAL_MRSubG_SetChannelBW+0x10c>)
10045e2c:	4013      	ands	r3, r2
10045e2e:	0019      	movs	r1, r3
10045e30:	193b      	adds	r3, r7, r4
10045e32:	781b      	ldrb	r3, [r3, #0]
10045e34:	041a      	lsls	r2, r3, #16
10045e36:	23f0      	movs	r3, #240	@ 0xf0
10045e38:	031b      	lsls	r3, r3, #12
10045e3a:	401a      	ands	r2, r3
10045e3c:	4b2b      	ldr	r3, [pc, #172]	@ (10045eec <HAL_MRSubG_SetChannelBW+0x108>)
10045e3e:	430a      	orrs	r2, r1
10045e40:	609a      	str	r2, [r3, #8]
  MODIFY_REG_FIELD(MR_SUBG_GLOB_DYNAMIC->MOD1_CONFIG, MR_SUBG_GLOB_DYNAMIC_MOD1_CONFIG_CHFLT_E, uBwE);
10045e42:	4b2a      	ldr	r3, [pc, #168]	@ (10045eec <HAL_MRSubG_SetChannelBW+0x108>)
10045e44:	689b      	ldr	r3, [r3, #8]
10045e46:	4a2b      	ldr	r2, [pc, #172]	@ (10045ef4 <HAL_MRSubG_SetChannelBW+0x110>)
10045e48:	4013      	ands	r3, r2
10045e4a:	0019      	movs	r1, r3
10045e4c:	197b      	adds	r3, r7, r5
10045e4e:	781b      	ldrb	r3, [r3, #0]
10045e50:	051a      	lsls	r2, r3, #20
10045e52:	23f0      	movs	r3, #240	@ 0xf0
10045e54:	041b      	lsls	r3, r3, #16
10045e56:	401a      	ands	r2, r3
10045e58:	4b24      	ldr	r3, [pc, #144]	@ (10045eec <HAL_MRSubG_SetChannelBW+0x108>)
10045e5a:	430a      	orrs	r2, r1
10045e5c:	609a      	str	r2, [r3, #8]

  /* Set IF to 600 kHz, if channel filter requested is greater than CHF threshold */
  if (lBandwidth > chf_threshold)
10045e5e:	687a      	ldr	r2, [r7, #4]
10045e60:	697b      	ldr	r3, [r7, #20]
10045e62:	429a      	cmp	r2, r3
10045e64:	d90a      	bls.n	10045e7c <HAL_MRSubG_SetChannelBW+0x98>
  {
    SET_BIT(MR_SUBG_GLOB_STATIC->IF_CTRL, MR_SUBG_GLOB_STATIC_IF_CTRL_IF_MODE);
10045e66:	4b24      	ldr	r3, [pc, #144]	@ (10045ef8 <HAL_MRSubG_SetChannelBW+0x114>)
10045e68:	6ada      	ldr	r2, [r3, #44]	@ 0x2c
10045e6a:	4b23      	ldr	r3, [pc, #140]	@ (10045ef8 <HAL_MRSubG_SetChannelBW+0x114>)
10045e6c:	2180      	movs	r1, #128	@ 0x80
10045e6e:	0609      	lsls	r1, r1, #24
10045e70:	430a      	orrs	r2, r1
10045e72:	62da      	str	r2, [r3, #44]	@ 0x2c

    /* Define f_if */
    f_if = IF_FREQ_HIGH;
10045e74:	2396      	movs	r3, #150	@ 0x96
10045e76:	009b      	lsls	r3, r3, #2
10045e78:	61fb      	str	r3, [r7, #28]
10045e7a:	e008      	b.n	10045e8e <HAL_MRSubG_SetChannelBW+0xaa>
  }
  else
  {
    /* Set antialiasing filter to 684kHz */
    CLEAR_BIT(MR_SUBG_GLOB_STATIC->IF_CTRL, MR_SUBG_GLOB_STATIC_IF_CTRL_IF_MODE);
10045e7c:	4b1e      	ldr	r3, [pc, #120]	@ (10045ef8 <HAL_MRSubG_SetChannelBW+0x114>)
10045e7e:	6ada      	ldr	r2, [r3, #44]	@ 0x2c
10045e80:	4b1d      	ldr	r3, [pc, #116]	@ (10045ef8 <HAL_MRSubG_SetChannelBW+0x114>)
10045e82:	0052      	lsls	r2, r2, #1
10045e84:	0852      	lsrs	r2, r2, #1
10045e86:	62da      	str	r2, [r3, #44]	@ 0x2c

    /* Define f_if */
    f_if = IF_FREQ_LOW;
10045e88:	2396      	movs	r3, #150	@ 0x96
10045e8a:	005b      	lsls	r3, r3, #1
10045e8c:	61fb      	str	r3, [r7, #28]
  }

  if_offset = (((f_if * 100) * 65536) / f_dig) * 10;
10045e8e:	69fa      	ldr	r2, [r7, #28]
10045e90:	0013      	movs	r3, r2
10045e92:	009b      	lsls	r3, r3, #2
10045e94:	189b      	adds	r3, r3, r2
10045e96:	009a      	lsls	r2, r3, #2
10045e98:	189b      	adds	r3, r3, r2
10045e9a:	049b      	lsls	r3, r3, #18
10045e9c:	6939      	ldr	r1, [r7, #16]
10045e9e:	0018      	movs	r0, r3
10045ea0:	f7fa f90e 	bl	100400c0 <__udivsi3>
10045ea4:	0003      	movs	r3, r0
10045ea6:	001a      	movs	r2, r3
10045ea8:	0013      	movs	r3, r2
10045eaa:	009b      	lsls	r3, r3, #2
10045eac:	189b      	adds	r3, r3, r2
10045eae:	005b      	lsls	r3, r3, #1
10045eb0:	61bb      	str	r3, [r7, #24]
  else
  {
    MODIFY_REG_FIELD(MR_SUBG_GLOB_STATIC->IF_CTRL, MR_SUBG_GLOB_STATIC_IF_CTRL_IF_OFFSET_ANA, if_offset);
  }
#else
  MODIFY_REG_FIELD(MR_SUBG_GLOB_STATIC->IF_CTRL, MR_SUBG_GLOB_STATIC_IF_CTRL_IF_OFFSET_ANA, if_offset);
10045eb2:	4b11      	ldr	r3, [pc, #68]	@ (10045ef8 <HAL_MRSubG_SetChannelBW+0x114>)
10045eb4:	6adb      	ldr	r3, [r3, #44]	@ 0x2c
10045eb6:	4a11      	ldr	r2, [pc, #68]	@ (10045efc <HAL_MRSubG_SetChannelBW+0x118>)
10045eb8:	4013      	ands	r3, r2
10045eba:	0019      	movs	r1, r3
10045ebc:	69bb      	ldr	r3, [r7, #24]
10045ebe:	041b      	lsls	r3, r3, #16
10045ec0:	4a0f      	ldr	r2, [pc, #60]	@ (10045f00 <HAL_MRSubG_SetChannelBW+0x11c>)
10045ec2:	401a      	ands	r2, r3
10045ec4:	4b0c      	ldr	r3, [pc, #48]	@ (10045ef8 <HAL_MRSubG_SetChannelBW+0x114>)
10045ec6:	430a      	orrs	r2, r1
10045ec8:	62da      	str	r2, [r3, #44]	@ 0x2c
#endif /*STM32WL3RX*/

  MODIFY_REG_FIELD(MR_SUBG_GLOB_STATIC->IF_CTRL, MR_SUBG_GLOB_STATIC_IF_CTRL_IF_OFFSET_DIG, if_offset);
10045eca:	4b0b      	ldr	r3, [pc, #44]	@ (10045ef8 <HAL_MRSubG_SetChannelBW+0x114>)
10045ecc:	6adb      	ldr	r3, [r3, #44]	@ 0x2c
10045ece:	0b5b      	lsrs	r3, r3, #13
10045ed0:	0359      	lsls	r1, r3, #13
10045ed2:	69bb      	ldr	r3, [r7, #24]
10045ed4:	04db      	lsls	r3, r3, #19
10045ed6:	0cda      	lsrs	r2, r3, #19
10045ed8:	4b07      	ldr	r3, [pc, #28]	@ (10045ef8 <HAL_MRSubG_SetChannelBW+0x114>)
10045eda:	430a      	orrs	r2, r1
10045edc:	62da      	str	r2, [r3, #44]	@ 0x2c
}
10045ede:	46c0      	nop			@ (mov r8, r8)
10045ee0:	46bd      	mov	sp, r7
10045ee2:	b008      	add	sp, #32
10045ee4:	bdb0      	pop	{r4, r5, r7, pc}
10045ee6:	46c0      	nop			@ (mov r8, r8)
10045ee8:	00061a80 	.word	0x00061a80
10045eec:	49000500 	.word	0x49000500
10045ef0:	fff0ffff 	.word	0xfff0ffff
10045ef4:	ff0fffff 	.word	0xff0fffff
10045ef8:	49000400 	.word	0x49000400
10045efc:	e000ffff 	.word	0xe000ffff
10045f00:	1fff0000 	.word	0x1fff0000

10045f04 <HAL_MRSubG_SetModulation>:
  *         This parameter shall be of type @ref MRSubGModSelect.
  * @param  dsssExponent the DSSS spreading exponent. 0 means DSSS disabled.
  * @retval None.
  */
void HAL_MRSubG_SetModulation(MRSubGModSelect xModulation, uint8_t dsssExponent)
{
10045f04:	b580      	push	{r7, lr}
10045f06:	b082      	sub	sp, #8
10045f08:	af00      	add	r7, sp, #0
10045f0a:	0002      	movs	r2, r0
10045f0c:	1dfb      	adds	r3, r7, #7
10045f0e:	701a      	strb	r2, [r3, #0]
10045f10:	1dbb      	adds	r3, r7, #6
10045f12:	1c0a      	adds	r2, r1, #0
10045f14:	701a      	strb	r2, [r3, #0]
  assert_param(IS_MODULATION(xModulation));

  /* Internal equalizer */
  switch (xModulation)
10045f16:	1dfb      	adds	r3, r7, #7
10045f18:	781b      	ldrb	r3, [r3, #0]
10045f1a:	2b03      	cmp	r3, #3
10045f1c:	dc02      	bgt.n	10045f24 <HAL_MRSubG_SetModulation+0x20>
10045f1e:	2b02      	cmp	r3, #2
10045f20:	da03      	bge.n	10045f2a <HAL_MRSubG_SetModulation+0x26>
10045f22:	e00c      	b.n	10045f3e <HAL_MRSubG_SetModulation+0x3a>
10045f24:	3b12      	subs	r3, #18
10045f26:	2b01      	cmp	r3, #1
10045f28:	d809      	bhi.n	10045f3e <HAL_MRSubG_SetModulation+0x3a>
    case MOD_4GFSK05:
    case MOD_2GFSK1:
    case MOD_4GFSK1:
      /*In case of gaussian filter, in order to reduce intersymbol interference (ISI),
      * we have to set the internal equalizer to 2 symbols */
      MODIFY_REG_FIELD(MR_SUBG_GLOB_STATIC->AS_QI_CTRL, MR_SUBG_GLOB_STATIC_AS_QI_CTRL_AS_EQU_CTRL, 0x02);
10045f2a:	4b33      	ldr	r3, [pc, #204]	@ (10045ff8 <HAL_MRSubG_SetModulation+0xf4>)
10045f2c:	6b1b      	ldr	r3, [r3, #48]	@ 0x30
10045f2e:	4a33      	ldr	r2, [pc, #204]	@ (10045ffc <HAL_MRSubG_SetModulation+0xf8>)
10045f30:	401a      	ands	r2, r3
10045f32:	4b31      	ldr	r3, [pc, #196]	@ (10045ff8 <HAL_MRSubG_SetModulation+0xf4>)
10045f34:	2180      	movs	r1, #128	@ 0x80
10045f36:	0509      	lsls	r1, r1, #20
10045f38:	430a      	orrs	r2, r1
10045f3a:	631a      	str	r2, [r3, #48]	@ 0x30
      break;
10045f3c:	e005      	b.n	10045f4a <HAL_MRSubG_SetModulation+0x46>
    default:
      /* For non gaussian modulation set internal equalizer to 0 symbols */
      MODIFY_REG_FIELD(MR_SUBG_GLOB_STATIC->AS_QI_CTRL, MR_SUBG_GLOB_STATIC_AS_QI_CTRL_AS_EQU_CTRL, 0x00);
10045f3e:	4b2e      	ldr	r3, [pc, #184]	@ (10045ff8 <HAL_MRSubG_SetModulation+0xf4>)
10045f40:	6b1a      	ldr	r2, [r3, #48]	@ 0x30
10045f42:	4b2d      	ldr	r3, [pc, #180]	@ (10045ff8 <HAL_MRSubG_SetModulation+0xf4>)
10045f44:	492d      	ldr	r1, [pc, #180]	@ (10045ffc <HAL_MRSubG_SetModulation+0xf8>)
10045f46:	400a      	ands	r2, r1
10045f48:	631a      	str	r2, [r3, #48]	@ 0x30
  }

  /* Post filter */
  switch (xModulation)
10045f4a:	1dfb      	adds	r3, r7, #7
10045f4c:	781b      	ldrb	r3, [r3, #0]
10045f4e:	2213      	movs	r2, #19
10045f50:	429a      	cmp	r2, r3
10045f52:	4192      	sbcs	r2, r2
10045f54:	4252      	negs	r2, r2
10045f56:	b2d2      	uxtb	r2, r2
10045f58:	2a00      	cmp	r2, #0
10045f5a:	d112      	bne.n	10045f82 <HAL_MRSubG_SetModulation+0x7e>
10045f5c:	4a28      	ldr	r2, [pc, #160]	@ (10046000 <HAL_MRSubG_SetModulation+0xfc>)
10045f5e:	40da      	lsrs	r2, r3
10045f60:	0013      	movs	r3, r2
10045f62:	2201      	movs	r2, #1
10045f64:	4013      	ands	r3, r2
10045f66:	1e5a      	subs	r2, r3, #1
10045f68:	4193      	sbcs	r3, r2
10045f6a:	b2db      	uxtb	r3, r3
10045f6c:	2b00      	cmp	r3, #0
10045f6e:	d008      	beq.n	10045f82 <HAL_MRSubG_SetModulation+0x7e>
    case MOD_4GFSK05:
    case MOD_4GFSK1:
    case MOD_4FSK:
      /*In case of 4 level FSK modulation, in order to reduce intersymbol interference (ISI),
      * we have to set the post filter len equal to 8 (register value 0). */
      MODIFY_REG_FIELD(MR_SUBG_RADIO->CLKREC_CTRL0, MR_SUBG_RADIO_CLKREC_CTRL0_PSTFLT_LEN, 0x00);
10045f70:	2392      	movs	r3, #146	@ 0x92
10045f72:	05db      	lsls	r3, r3, #23
10045f74:	6b1a      	ldr	r2, [r3, #48]	@ 0x30
10045f76:	2392      	movs	r3, #146	@ 0x92
10045f78:	05db      	lsls	r3, r3, #23
10045f7a:	2180      	movs	r1, #128	@ 0x80
10045f7c:	438a      	bics	r2, r1
10045f7e:	631a      	str	r2, [r3, #48]	@ 0x30
      break;
10045f80:	e007      	b.n	10045f92 <HAL_MRSubG_SetModulation+0x8e>
    default:
      MODIFY_REG_FIELD(MR_SUBG_RADIO->CLKREC_CTRL0, MR_SUBG_RADIO_CLKREC_CTRL0_PSTFLT_LEN, 0x01);
10045f82:	2392      	movs	r3, #146	@ 0x92
10045f84:	05db      	lsls	r3, r3, #23
10045f86:	6b1a      	ldr	r2, [r3, #48]	@ 0x30
10045f88:	2392      	movs	r3, #146	@ 0x92
10045f8a:	05db      	lsls	r3, r3, #23
10045f8c:	2180      	movs	r1, #128	@ 0x80
10045f8e:	430a      	orrs	r2, r1
10045f90:	631a      	str	r2, [r3, #48]	@ 0x30
  }

  /* Modulation */
  switch (xModulation)
10045f92:	1dfb      	adds	r3, r7, #7
10045f94:	781b      	ldrb	r3, [r3, #0]
10045f96:	3b12      	subs	r3, #18
10045f98:	2b01      	cmp	r3, #1
10045f9a:	d80d      	bhi.n	10045fb8 <HAL_MRSubG_SetModulation+0xb4>
  {
    case MOD_2GFSK05:
    case MOD_4GFSK05:
      MODIFY_REG_FIELD(MR_SUBG_GLOB_DYNAMIC->MOD0_CONFIG, MR_SUBG_GLOB_DYNAMIC_MOD0_CONFIG_BT_SEL, 1);
10045f9c:	4b19      	ldr	r3, [pc, #100]	@ (10046004 <HAL_MRSubG_SetModulation+0x100>)
10045f9e:	685a      	ldr	r2, [r3, #4]
10045fa0:	4b18      	ldr	r3, [pc, #96]	@ (10046004 <HAL_MRSubG_SetModulation+0x100>)
10045fa2:	2180      	movs	r1, #128	@ 0x80
10045fa4:	04c9      	lsls	r1, r1, #19
10045fa6:	430a      	orrs	r2, r1
10045fa8:	605a      	str	r2, [r3, #4]
      xModulation &= 0x0F;
10045faa:	1dfb      	adds	r3, r7, #7
10045fac:	1dfa      	adds	r2, r7, #7
10045fae:	7812      	ldrb	r2, [r2, #0]
10045fb0:	210f      	movs	r1, #15
10045fb2:	400a      	ands	r2, r1
10045fb4:	701a      	strb	r2, [r3, #0]
      break;
10045fb6:	e005      	b.n	10045fc4 <HAL_MRSubG_SetModulation+0xc0>
    default:
      MODIFY_REG_FIELD(MR_SUBG_GLOB_DYNAMIC->MOD0_CONFIG, MR_SUBG_GLOB_DYNAMIC_MOD0_CONFIG_BT_SEL, 0);
10045fb8:	4b12      	ldr	r3, [pc, #72]	@ (10046004 <HAL_MRSubG_SetModulation+0x100>)
10045fba:	685a      	ldr	r2, [r3, #4]
10045fbc:	4b11      	ldr	r3, [pc, #68]	@ (10046004 <HAL_MRSubG_SetModulation+0x100>)
10045fbe:	4912      	ldr	r1, [pc, #72]	@ (10046008 <HAL_MRSubG_SetModulation+0x104>)
10045fc0:	400a      	ands	r2, r1
10045fc2:	605a      	str	r2, [r3, #4]
  }

  /* Evaluate DSSS settings */
  MRSUBG_EvaluateDSSS(xModulation, dsssExponent);
10045fc4:	1dbb      	adds	r3, r7, #6
10045fc6:	781a      	ldrb	r2, [r3, #0]
10045fc8:	1dfb      	adds	r3, r7, #7
10045fca:	781b      	ldrb	r3, [r3, #0]
10045fcc:	0011      	movs	r1, r2
10045fce:	0018      	movs	r0, r3
10045fd0:	f7ff fd62 	bl	10045a98 <MRSUBG_EvaluateDSSS>

  MODIFY_REG_FIELD(MR_SUBG_GLOB_DYNAMIC->MOD0_CONFIG, MR_SUBG_GLOB_DYNAMIC_MOD0_CONFIG_MOD_TYPE, xModulation);
10045fd4:	4b0b      	ldr	r3, [pc, #44]	@ (10046004 <HAL_MRSubG_SetModulation+0x100>)
10045fd6:	685b      	ldr	r3, [r3, #4]
10045fd8:	4a0c      	ldr	r2, [pc, #48]	@ (1004600c <HAL_MRSubG_SetModulation+0x108>)
10045fda:	4013      	ands	r3, r2
10045fdc:	0019      	movs	r1, r3
10045fde:	1dfb      	adds	r3, r7, #7
10045fe0:	781b      	ldrb	r3, [r3, #0]
10045fe2:	051a      	lsls	r2, r3, #20
10045fe4:	23e0      	movs	r3, #224	@ 0xe0
10045fe6:	03db      	lsls	r3, r3, #15
10045fe8:	401a      	ands	r2, r3
10045fea:	4b06      	ldr	r3, [pc, #24]	@ (10046004 <HAL_MRSubG_SetModulation+0x100>)
10045fec:	430a      	orrs	r2, r1
10045fee:	605a      	str	r2, [r3, #4]
}
10045ff0:	46c0      	nop			@ (mov r8, r8)
10045ff2:	46bd      	mov	sp, r7
10045ff4:	b002      	add	sp, #8
10045ff6:	bd80      	pop	{r7, pc}
10045ff8:	49000400 	.word	0x49000400
10045ffc:	f3ffffff 	.word	0xf3ffffff
10046000:	0008000a 	.word	0x0008000a
10046004:	49000500 	.word	0x49000500
10046008:	fbffffff 	.word	0xfbffffff
1004600c:	ff8fffff 	.word	0xff8fffff

10046010 <HAL_MRSubG_SetPALeveldBm>:
  * @param  lPowerdBm PA value to write expressed in dBm.
  * @param  drvMode PA drive modes.
  * @retval None.
  */
void HAL_MRSubG_SetPALeveldBm(uint8_t cIndex, int8_t lPowerdBm, MRSubG_PA_DRVMode drvMode)
{
10046010:	b5b0      	push	{r4, r5, r7, lr}
10046012:	b086      	sub	sp, #24
10046014:	af00      	add	r7, sp, #0
10046016:	0004      	movs	r4, r0
10046018:	0008      	movs	r0, r1
1004601a:	0011      	movs	r1, r2
1004601c:	1dfb      	adds	r3, r7, #7
1004601e:	1c22      	adds	r2, r4, #0
10046020:	701a      	strb	r2, [r3, #0]
10046022:	1dbb      	adds	r3, r7, #6
10046024:	1c02      	adds	r2, r0, #0
10046026:	701a      	strb	r2, [r3, #0]
10046028:	1d7b      	adds	r3, r7, #5
1004602a:	1c0a      	adds	r2, r1, #0
1004602c:	701a      	strb	r2, [r3, #0]
  int32_t pa03 = 0;
1004602e:	2300      	movs	r3, #0
10046030:	617b      	str	r3, [r7, #20]
  int32_t pa07 = 0;
10046032:	2300      	movs	r3, #0
10046034:	613b      	str	r3, [r7, #16]
  uint8_t maxAllowedValue;

  SET_BIT(MR_SUBG_GLOB_STATIC->PA_CONFIG, MR_SUBG_GLOB_STATIC_PA_CONFIG_PA_RAMP_ENABLE);
10046036:	4b50      	ldr	r3, [pc, #320]	@ (10046178 <HAL_MRSubG_SetPALeveldBm+0x168>)
10046038:	6a9a      	ldr	r2, [r3, #40]	@ 0x28
1004603a:	4b4f      	ldr	r3, [pc, #316]	@ (10046178 <HAL_MRSubG_SetPALeveldBm+0x168>)
1004603c:	2180      	movs	r1, #128	@ 0x80
1004603e:	01c9      	lsls	r1, r1, #7
10046040:	430a      	orrs	r2, r1
10046042:	629a      	str	r2, [r3, #40]	@ 0x28

  LL_MRSubG_SetPAMode(PA_LEGACY);
10046044:	2000      	movs	r0, #0
10046046:	f7fe ffed 	bl	10045024 <LL_MRSubG_SetPAMode>
  LL_MRSubG_SetPADriveMode(drvMode);
1004604a:	1d7b      	adds	r3, r7, #5
1004604c:	781b      	ldrb	r3, [r3, #0]
1004604e:	0018      	movs	r0, r3
10046050:	f7ff f804 	bl	1004505c <LL_MRSubG_SetPADriveMode>

  MODIFY_REG_FIELD(MR_SUBG_GLOB_STATIC->PA_CONFIG, MR_SUBG_GLOB_STATIC_PA_CONFIG_PA_LEVEL_MAX_INDEX, cIndex);
10046054:	4b48      	ldr	r3, [pc, #288]	@ (10046178 <HAL_MRSubG_SetPALeveldBm+0x168>)
10046056:	6a9b      	ldr	r3, [r3, #40]	@ 0x28
10046058:	221c      	movs	r2, #28
1004605a:	4393      	bics	r3, r2
1004605c:	0019      	movs	r1, r3
1004605e:	1dfb      	adds	r3, r7, #7
10046060:	781b      	ldrb	r3, [r3, #0]
10046062:	009b      	lsls	r3, r3, #2
10046064:	221c      	movs	r2, #28
10046066:	401a      	ands	r2, r3
10046068:	4b43      	ldr	r3, [pc, #268]	@ (10046178 <HAL_MRSubG_SetPALeveldBm+0x168>)
1004606a:	430a      	orrs	r2, r1
1004606c:	629a      	str	r2, [r3, #40]	@ 0x28

  maxAllowedValue = MRSubG_GetAllowedMaxOutputPower(drvMode);
1004606e:	250d      	movs	r5, #13
10046070:	197c      	adds	r4, r7, r5
10046072:	1d7b      	adds	r3, r7, #5
10046074:	781b      	ldrb	r3, [r3, #0]
10046076:	0018      	movs	r0, r3
10046078:	f7ff fce4 	bl	10045a44 <MRSubG_GetAllowedMaxOutputPower>
1004607c:	0003      	movs	r3, r0
1004607e:	7023      	strb	r3, [r4, #0]

  if (lPowerdBm > maxAllowedValue)
10046080:	1dbb      	adds	r3, r7, #6
10046082:	2200      	movs	r2, #0
10046084:	569a      	ldrsb	r2, [r3, r2]
10046086:	197b      	adds	r3, r7, r5
10046088:	781b      	ldrb	r3, [r3, #0]
1004608a:	429a      	cmp	r2, r3
1004608c:	dd06      	ble.n	1004609c <HAL_MRSubG_SetPALeveldBm+0x8c>
  {
    lPowerdBm = MAX_DBM;
1004608e:	1dbb      	adds	r3, r7, #6
10046090:	2251      	movs	r2, #81	@ 0x51
10046092:	701a      	strb	r2, [r3, #0]
    LL_MRSubG_SetPADegen(ENABLE);
10046094:	2001      	movs	r0, #1
10046096:	f7fe fffd 	bl	10045094 <LL_MRSubG_SetPADegen>
1004609a:	e017      	b.n	100460cc <HAL_MRSubG_SetPALeveldBm+0xbc>
  }
  else
  {
    int8_t tmpPow;
    tmpPow = MAX_DBM - ((maxAllowedValue - lPowerdBm) * 2);
1004609c:	230d      	movs	r3, #13
1004609e:	18fb      	adds	r3, r7, r3
100460a0:	781a      	ldrb	r2, [r3, #0]
100460a2:	1dbb      	adds	r3, r7, #6
100460a4:	781b      	ldrb	r3, [r3, #0]
100460a6:	b25b      	sxtb	r3, r3
100460a8:	1ad3      	subs	r3, r2, r3
100460aa:	b2db      	uxtb	r3, r3
100460ac:	18db      	adds	r3, r3, r3
100460ae:	b2db      	uxtb	r3, r3
100460b0:	2251      	movs	r2, #81	@ 0x51
100460b2:	1ad3      	subs	r3, r2, r3
100460b4:	b2da      	uxtb	r2, r3
100460b6:	210c      	movs	r1, #12
100460b8:	187b      	adds	r3, r7, r1
100460ba:	701a      	strb	r2, [r3, #0]

    lPowerdBm = tmpPow > 0 ? tmpPow : 0;
100460bc:	1dba      	adds	r2, r7, #6
100460be:	187b      	adds	r3, r7, r1
100460c0:	781b      	ldrb	r3, [r3, #0]
100460c2:	b259      	sxtb	r1, r3
100460c4:	2900      	cmp	r1, #0
100460c6:	da00      	bge.n	100460ca <HAL_MRSubG_SetPALeveldBm+0xba>
100460c8:	2300      	movs	r3, #0
100460ca:	7013      	strb	r3, [r2, #0]
  }

  for (int16_t i = cIndex; i >= 0; i--)
100460cc:	230e      	movs	r3, #14
100460ce:	18fb      	adds	r3, r7, r3
100460d0:	1dfa      	adds	r2, r7, #7
100460d2:	7812      	ldrb	r2, [r2, #0]
100460d4:	801a      	strh	r2, [r3, #0]
100460d6:	e03f      	b.n	10046158 <HAL_MRSubG_SetPALeveldBm+0x148>
  {
    if (i < 4)
100460d8:	210e      	movs	r1, #14
100460da:	187b      	adds	r3, r7, r1
100460dc:	2200      	movs	r2, #0
100460de:	5e9b      	ldrsh	r3, [r3, r2]
100460e0:	2b03      	cmp	r3, #3
100460e2:	dc0c      	bgt.n	100460fe <HAL_MRSubG_SetPALeveldBm+0xee>
    {
      pa03 |= (int32_t)(lPowerdBm) << (i * 8);
100460e4:	1dbb      	adds	r3, r7, #6
100460e6:	2200      	movs	r2, #0
100460e8:	569a      	ldrsb	r2, [r3, r2]
100460ea:	187b      	adds	r3, r7, r1
100460ec:	2100      	movs	r1, #0
100460ee:	5e5b      	ldrsh	r3, [r3, r1]
100460f0:	00db      	lsls	r3, r3, #3
100460f2:	409a      	lsls	r2, r3
100460f4:	0013      	movs	r3, r2
100460f6:	697a      	ldr	r2, [r7, #20]
100460f8:	4313      	orrs	r3, r2
100460fa:	617b      	str	r3, [r7, #20]
100460fc:	e015      	b.n	1004612a <HAL_MRSubG_SetPALeveldBm+0x11a>
    }
    else
      pa07 |= (int32_t)lPowerdBm
100460fe:	1dbb      	adds	r3, r7, #6
10046100:	2200      	movs	r2, #0
10046102:	569a      	ldrsb	r2, [r3, r2]
              << ((i % 4) * 8);
10046104:	230e      	movs	r3, #14
10046106:	18fb      	adds	r3, r7, r3
10046108:	2100      	movs	r1, #0
1004610a:	5e5b      	ldrsh	r3, [r3, r1]
1004610c:	491b      	ldr	r1, [pc, #108]	@ (1004617c <HAL_MRSubG_SetPALeveldBm+0x16c>)
1004610e:	400b      	ands	r3, r1
10046110:	d504      	bpl.n	1004611c <HAL_MRSubG_SetPALeveldBm+0x10c>
10046112:	3b01      	subs	r3, #1
10046114:	2104      	movs	r1, #4
10046116:	4249      	negs	r1, r1
10046118:	430b      	orrs	r3, r1
1004611a:	3301      	adds	r3, #1
1004611c:	b21b      	sxth	r3, r3
1004611e:	00db      	lsls	r3, r3, #3
10046120:	409a      	lsls	r2, r3
10046122:	0013      	movs	r3, r2
      pa07 |= (int32_t)lPowerdBm
10046124:	693a      	ldr	r2, [r7, #16]
10046126:	4313      	orrs	r3, r2
10046128:	613b      	str	r3, [r7, #16]
    lPowerdBm = (lPowerdBm - 10) > 0 ? lPowerdBm - 10 : 0;
1004612a:	1dbb      	adds	r3, r7, #6
1004612c:	781b      	ldrb	r3, [r3, #0]
1004612e:	b25b      	sxtb	r3, r3
10046130:	2b0a      	cmp	r3, #10
10046132:	dd05      	ble.n	10046140 <HAL_MRSubG_SetPALeveldBm+0x130>
10046134:	1dbb      	adds	r3, r7, #6
10046136:	781b      	ldrb	r3, [r3, #0]
10046138:	3b0a      	subs	r3, #10
1004613a:	b2db      	uxtb	r3, r3
1004613c:	b25a      	sxtb	r2, r3
1004613e:	e000      	b.n	10046142 <HAL_MRSubG_SetPALeveldBm+0x132>
10046140:	2200      	movs	r2, #0
10046142:	1dbb      	adds	r3, r7, #6
10046144:	701a      	strb	r2, [r3, #0]
  for (int16_t i = cIndex; i >= 0; i--)
10046146:	210e      	movs	r1, #14
10046148:	187b      	adds	r3, r7, r1
1004614a:	2200      	movs	r2, #0
1004614c:	5e9b      	ldrsh	r3, [r3, r2]
1004614e:	b29b      	uxth	r3, r3
10046150:	3b01      	subs	r3, #1
10046152:	b29a      	uxth	r2, r3
10046154:	187b      	adds	r3, r7, r1
10046156:	801a      	strh	r2, [r3, #0]
10046158:	230e      	movs	r3, #14
1004615a:	18fb      	adds	r3, r7, r3
1004615c:	2200      	movs	r2, #0
1004615e:	5e9b      	ldrsh	r3, [r3, r2]
10046160:	2b00      	cmp	r3, #0
10046162:	dab9      	bge.n	100460d8 <HAL_MRSubG_SetPALeveldBm+0xc8>
  }

  WRITE_REG(MR_SUBG_GLOB_STATIC->PA_LEVEL_3_0, pa03);
10046164:	4b04      	ldr	r3, [pc, #16]	@ (10046178 <HAL_MRSubG_SetPALeveldBm+0x168>)
10046166:	697a      	ldr	r2, [r7, #20]
10046168:	621a      	str	r2, [r3, #32]
  WRITE_REG(MR_SUBG_GLOB_STATIC->PA_LEVEL_7_4, pa07);
1004616a:	4b03      	ldr	r3, [pc, #12]	@ (10046178 <HAL_MRSubG_SetPALeveldBm+0x168>)
1004616c:	693a      	ldr	r2, [r7, #16]
1004616e:	625a      	str	r2, [r3, #36]	@ 0x24
}
10046170:	46c0      	nop			@ (mov r8, r8)
10046172:	46bd      	mov	sp, r7
10046174:	b006      	add	sp, #24
10046176:	bdb0      	pop	{r4, r5, r7, pc}
10046178:	49000400 	.word	0x49000400
1004617c:	80000003 	.word	0x80000003

10046180 <HAL_MRSubG_802_15_4_PacketInit>:
  * @param  px802_15_4PktInit 802.15.4 packet init structure.
  *         This parameter is a pointer to @ref MRSubG_802_15_4_PcktFields_t.
  * @retval 1 in case of errors.
  */
void HAL_MRSubG_802_15_4_PacketInit(MRSubG_802_15_4_PcktFields_t *px802_15_4PktInit)
{
10046180:	b580      	push	{r7, lr}
10046182:	b084      	sub	sp, #16
10046184:	af00      	add	r7, sp, #0
10046186:	6078      	str	r0, [r7, #4]
  assert_param(IS_PREAMBLE_15_4G_LEN(px802_15_4PktInit->PreambleLength));
  assert_param(IS_FEC_TYPE(px802_15_4PktInit->FecType));
  assert_param(IS_FUNCTIONAL_STATE(px802_15_4PktInit->Whitening));
  assert_param(IS_FRAME_LEN(px802_15_4PktInit->FrameLength));

  if (px802_15_4PktInit->Modulation == MOD_2FSK)
10046188:	687b      	ldr	r3, [r7, #4]
1004618a:	781b      	ldrb	r3, [r3, #0]
1004618c:	2b00      	cmp	r3, #0
1004618e:	d10d      	bne.n	100461ac <HAL_MRSubG_802_15_4_PacketInit+0x2c>
  {
    sync_word_ptr = SFD_2FSK;
10046190:	4b70      	ldr	r3, [pc, #448]	@ (10046354 <HAL_MRSubG_802_15_4_PacketInit+0x1d4>)
10046192:	60fb      	str	r3, [r7, #12]
    sync_word_len = 2;
10046194:	230b      	movs	r3, #11
10046196:	18fb      	adds	r3, r7, r3
10046198:	2202      	movs	r2, #2
1004619a:	701a      	strb	r2, [r3, #0]
    preamble_len = px802_15_4PktInit->PreambleLength * 8;
1004619c:	687b      	ldr	r3, [r7, #4]
1004619e:	785b      	ldrb	r3, [r3, #1]
100461a0:	001a      	movs	r2, r3
100461a2:	2308      	movs	r3, #8
100461a4:	18fb      	adds	r3, r7, r3
100461a6:	00d2      	lsls	r2, r2, #3
100461a8:	801a      	strh	r2, [r3, #0]
100461aa:	e00c      	b.n	100461c6 <HAL_MRSubG_802_15_4_PacketInit+0x46>
  }
  else
  {
    sync_word_ptr = SFD_4FSK;
100461ac:	4b6a      	ldr	r3, [pc, #424]	@ (10046358 <HAL_MRSubG_802_15_4_PacketInit+0x1d8>)
100461ae:	60fb      	str	r3, [r7, #12]
    sync_word_len = 4;
100461b0:	230b      	movs	r3, #11
100461b2:	18fb      	adds	r3, r7, r3
100461b4:	2204      	movs	r2, #4
100461b6:	701a      	strb	r2, [r3, #0]
    preamble_len = px802_15_4PktInit->PreambleLength * 16;
100461b8:	687b      	ldr	r3, [r7, #4]
100461ba:	785b      	ldrb	r3, [r3, #1]
100461bc:	001a      	movs	r2, r3
100461be:	2308      	movs	r3, #8
100461c0:	18fb      	adds	r3, r7, r3
100461c2:	0112      	lsls	r2, r2, #4
100461c4:	801a      	strh	r2, [r3, #0]
  }

  /* Init the Whitening to 0x1FF */
  LL_MRSubG_PacketHandlerSetWhiteningInit(0x1FF);
100461c6:	4b65      	ldr	r3, [pc, #404]	@ (1004635c <HAL_MRSubG_802_15_4_PacketInit+0x1dc>)
100461c8:	0018      	movs	r0, r3
100461ca:	f7fe ff87 	bl	100450dc <LL_MRSubG_PacketHandlerSetWhiteningInit>

  /* Set the Packet Format to 802.15.4 Packet */
  MODIFY_REG_FIELD(MR_SUBG_GLOB_STATIC->PCKT_CTRL, MR_SUBG_GLOB_STATIC_PCKT_CTRL_PCKT_FORMAT, PKT_802_15_4);
100461ce:	4b64      	ldr	r3, [pc, #400]	@ (10046360 <HAL_MRSubG_802_15_4_PacketInit+0x1e0>)
100461d0:	691a      	ldr	r2, [r3, #16]
100461d2:	4b63      	ldr	r3, [pc, #396]	@ (10046360 <HAL_MRSubG_802_15_4_PacketInit+0x1e0>)
100461d4:	2101      	movs	r1, #1
100461d6:	430a      	orrs	r2, r1
100461d8:	611a      	str	r2, [r3, #16]

  WRITE_REG(MR_SUBG_GLOB_STATIC->SYNC, sync_word_ptr[0]);
100461da:	4a61      	ldr	r2, [pc, #388]	@ (10046360 <HAL_MRSubG_802_15_4_PacketInit+0x1e0>)
100461dc:	68fb      	ldr	r3, [r7, #12]
100461de:	681b      	ldr	r3, [r3, #0]
100461e0:	6053      	str	r3, [r2, #4]

  WRITE_REG(MR_SUBG_GLOB_STATIC->SEC_SYNC, sync_word_ptr[1]);
100461e2:	68fb      	ldr	r3, [r7, #12]
100461e4:	3304      	adds	r3, #4
100461e6:	4a5e      	ldr	r2, [pc, #376]	@ (10046360 <HAL_MRSubG_802_15_4_PacketInit+0x1e0>)
100461e8:	681b      	ldr	r3, [r3, #0]
100461ea:	6093      	str	r3, [r2, #8]

  MODIFY_REG_FIELD(MR_SUBG_GLOB_STATIC->PCKT_CONFIG, MR_SUBG_GLOB_STATIC_PCKT_CONFIG_PREAMBLE_SEQ, PRE_SEQ_0101);
100461ec:	4b5c      	ldr	r3, [pc, #368]	@ (10046360 <HAL_MRSubG_802_15_4_PacketInit+0x1e0>)
100461ee:	681a      	ldr	r2, [r3, #0]
100461f0:	4b5b      	ldr	r3, [pc, #364]	@ (10046360 <HAL_MRSubG_802_15_4_PacketInit+0x1e0>)
100461f2:	495c      	ldr	r1, [pc, #368]	@ (10046364 <HAL_MRSubG_802_15_4_PacketInit+0x1e4>)
100461f4:	400a      	ands	r2, r1
100461f6:	601a      	str	r2, [r3, #0]

  MODIFY_REG_FIELD(MR_SUBG_GLOB_STATIC->PCKT_CONFIG, MR_SUBG_GLOB_STATIC_PCKT_CONFIG_PREAMBLE_LENGTH, preamble_len / 2);
100461f8:	4b59      	ldr	r3, [pc, #356]	@ (10046360 <HAL_MRSubG_802_15_4_PacketInit+0x1e0>)
100461fa:	681b      	ldr	r3, [r3, #0]
100461fc:	4a5a      	ldr	r2, [pc, #360]	@ (10046368 <HAL_MRSubG_802_15_4_PacketInit+0x1e8>)
100461fe:	4013      	ands	r3, r2
10046200:	0019      	movs	r1, r3
10046202:	2308      	movs	r3, #8
10046204:	18fb      	adds	r3, r7, r3
10046206:	881b      	ldrh	r3, [r3, #0]
10046208:	085b      	lsrs	r3, r3, #1
1004620a:	b29b      	uxth	r3, r3
1004620c:	031b      	lsls	r3, r3, #12
1004620e:	4a57      	ldr	r2, [pc, #348]	@ (1004636c <HAL_MRSubG_802_15_4_PacketInit+0x1ec>)
10046210:	401a      	ands	r2, r3
10046212:	4b53      	ldr	r3, [pc, #332]	@ (10046360 <HAL_MRSubG_802_15_4_PacketInit+0x1e0>)
10046214:	430a      	orrs	r2, r1
10046216:	601a      	str	r2, [r3, #0]

  MODIFY_REG_FIELD(MR_SUBG_GLOB_STATIC->PCKT_CONFIG, MR_SUBG_GLOB_STATIC_PCKT_CONFIG_SYNC_PRESENT, 1);
10046218:	4b51      	ldr	r3, [pc, #324]	@ (10046360 <HAL_MRSubG_802_15_4_PacketInit+0x1e0>)
1004621a:	681a      	ldr	r2, [r3, #0]
1004621c:	4b50      	ldr	r3, [pc, #320]	@ (10046360 <HAL_MRSubG_802_15_4_PacketInit+0x1e0>)
1004621e:	2180      	movs	r1, #128	@ 0x80
10046220:	0089      	lsls	r1, r1, #2
10046222:	430a      	orrs	r2, r1
10046224:	601a      	str	r2, [r3, #0]

  MODIFY_REG_FIELD(
10046226:	4b4e      	ldr	r3, [pc, #312]	@ (10046360 <HAL_MRSubG_802_15_4_PacketInit+0x1e0>)
10046228:	681b      	ldr	r3, [r3, #0]
1004622a:	4a51      	ldr	r2, [pc, #324]	@ (10046370 <HAL_MRSubG_802_15_4_PacketInit+0x1f0>)
1004622c:	4013      	ands	r3, r2
1004622e:	0019      	movs	r1, r3
10046230:	230b      	movs	r3, #11
10046232:	18fb      	adds	r3, r7, r3
10046234:	781b      	ldrb	r3, [r3, #0]
10046236:	00db      	lsls	r3, r3, #3
10046238:	3b01      	subs	r3, #1
1004623a:	011a      	lsls	r2, r3, #4
1004623c:	23f8      	movs	r3, #248	@ 0xf8
1004623e:	005b      	lsls	r3, r3, #1
10046240:	401a      	ands	r2, r3
10046242:	4b47      	ldr	r3, [pc, #284]	@ (10046360 <HAL_MRSubG_802_15_4_PacketInit+0x1e0>)
10046244:	430a      	orrs	r2, r1
10046246:	601a      	str	r2, [r3, #0]
    MR_SUBG_GLOB_STATIC->PCKT_CONFIG,
    MR_SUBG_GLOB_STATIC_PCKT_CONFIG_SYNC_LEN,
    SYNC_BYTE(sync_word_len)
  );

  MODIFY_REG_FIELD(MR_SUBG_GLOB_STATIC->PCKT_CONFIG, MR_SUBG_GLOB_STATIC_PCKT_CONFIG_CRC_MODE,
10046248:	4b45      	ldr	r3, [pc, #276]	@ (10046360 <HAL_MRSubG_802_15_4_PacketInit+0x1e0>)
1004624a:	681b      	ldr	r3, [r3, #0]
1004624c:	2207      	movs	r2, #7
1004624e:	4393      	bics	r3, r2
10046250:	0019      	movs	r1, r3
10046252:	687b      	ldr	r3, [r7, #4]
10046254:	789b      	ldrb	r3, [r3, #2]
10046256:	001a      	movs	r2, r3
10046258:	2307      	movs	r3, #7
1004625a:	401a      	ands	r2, r3
1004625c:	4b40      	ldr	r3, [pc, #256]	@ (10046360 <HAL_MRSubG_802_15_4_PacketInit+0x1e0>)
1004625e:	430a      	orrs	r2, r1
10046260:	601a      	str	r2, [r3, #0]
                   px802_15_4PktInit->FCSType);

  MODIFY_REG_FIELD(MR_SUBG_GLOB_DYNAMIC->PCKTLEN_CONFIG, MR_SUBG_GLOB_DYNAMIC_PCKTLEN_CONFIG_PCKTLEN,
10046262:	4b44      	ldr	r3, [pc, #272]	@ (10046374 <HAL_MRSubG_802_15_4_PacketInit+0x1f4>)
10046264:	681b      	ldr	r3, [r3, #0]
10046266:	0c1b      	lsrs	r3, r3, #16
10046268:	041a      	lsls	r2, r3, #16
1004626a:	687b      	ldr	r3, [r7, #4]
1004626c:	88db      	ldrh	r3, [r3, #6]
1004626e:	0019      	movs	r1, r3
10046270:	4b40      	ldr	r3, [pc, #256]	@ (10046374 <HAL_MRSubG_802_15_4_PacketInit+0x1f4>)
10046272:	430a      	orrs	r2, r1
10046274:	601a      	str	r2, [r3, #0]
                   px802_15_4PktInit->FrameLength);

  MODIFY_REG_FIELD(MR_SUBG_GLOB_STATIC->PCKT_CTRL, MR_SUBG_GLOB_STATIC_PCKT_CTRL_FCS_TYPE_4G,
10046276:	4b3a      	ldr	r3, [pc, #232]	@ (10046360 <HAL_MRSubG_802_15_4_PacketInit+0x1e0>)
10046278:	691b      	ldr	r3, [r3, #16]
1004627a:	4a3f      	ldr	r2, [pc, #252]	@ (10046378 <HAL_MRSubG_802_15_4_PacketInit+0x1f8>)
1004627c:	4013      	ands	r3, r2
1004627e:	0019      	movs	r1, r3
10046280:	687b      	ldr	r3, [r7, #4]
10046282:	789b      	ldrb	r3, [r3, #2]
10046284:	2b03      	cmp	r3, #3
10046286:	d102      	bne.n	1004628e <HAL_MRSubG_802_15_4_PacketInit+0x10e>
10046288:	2380      	movs	r3, #128	@ 0x80
1004628a:	051a      	lsls	r2, r3, #20
1004628c:	e000      	b.n	10046290 <HAL_MRSubG_802_15_4_PacketInit+0x110>
1004628e:	2200      	movs	r2, #0
10046290:	4b33      	ldr	r3, [pc, #204]	@ (10046360 <HAL_MRSubG_802_15_4_PacketInit+0x1e0>)
10046292:	430a      	orrs	r2, r1
10046294:	611a      	str	r2, [r3, #16]
                   (px802_15_4PktInit->FCSType == FCS_16BIT) ? 1 : 0);

  MODIFY_REG_FIELD(MR_SUBG_GLOB_STATIC->PCKT_CTRL, MR_SUBG_GLOB_STATIC_PCKT_CTRL_FEC_TYPE_4G,
10046296:	4b32      	ldr	r3, [pc, #200]	@ (10046360 <HAL_MRSubG_802_15_4_PacketInit+0x1e0>)
10046298:	691b      	ldr	r3, [r3, #16]
1004629a:	4a38      	ldr	r2, [pc, #224]	@ (1004637c <HAL_MRSubG_802_15_4_PacketInit+0x1fc>)
1004629c:	4013      	ands	r3, r2
1004629e:	0019      	movs	r1, r3
100462a0:	687b      	ldr	r3, [r7, #4]
100462a2:	791b      	ldrb	r3, [r3, #4]
100462a4:	2b01      	cmp	r3, #1
100462a6:	d902      	bls.n	100462ae <HAL_MRSubG_802_15_4_PacketInit+0x12e>
100462a8:	2380      	movs	r3, #128	@ 0x80
100462aa:	04da      	lsls	r2, r3, #19
100462ac:	e000      	b.n	100462b0 <HAL_MRSubG_802_15_4_PacketInit+0x130>
100462ae:	2200      	movs	r2, #0
100462b0:	4b2b      	ldr	r3, [pc, #172]	@ (10046360 <HAL_MRSubG_802_15_4_PacketInit+0x1e0>)
100462b2:	430a      	orrs	r2, r1
100462b4:	611a      	str	r2, [r3, #16]
                   (px802_15_4PktInit->FecType > 1 ? 1 : 0));

  MODIFY_REG_FIELD(
100462b6:	4b2a      	ldr	r3, [pc, #168]	@ (10046360 <HAL_MRSubG_802_15_4_PacketInit+0x1e0>)
100462b8:	691b      	ldr	r3, [r3, #16]
100462ba:	4a31      	ldr	r2, [pc, #196]	@ (10046380 <HAL_MRSubG_802_15_4_PacketInit+0x200>)
100462bc:	4013      	ands	r3, r2
100462be:	0019      	movs	r1, r3
100462c0:	687b      	ldr	r3, [r7, #4]
100462c2:	791b      	ldrb	r3, [r3, #4]
100462c4:	2b01      	cmp	r3, #1
100462c6:	d003      	beq.n	100462d0 <HAL_MRSubG_802_15_4_PacketInit+0x150>
100462c8:	687b      	ldr	r3, [r7, #4]
100462ca:	791b      	ldrb	r3, [r3, #4]
100462cc:	2b03      	cmp	r3, #3
100462ce:	d101      	bne.n	100462d4 <HAL_MRSubG_802_15_4_PacketInit+0x154>
100462d0:	2301      	movs	r3, #1
100462d2:	e000      	b.n	100462d6 <HAL_MRSubG_802_15_4_PacketInit+0x156>
100462d4:	2300      	movs	r3, #0
100462d6:	065a      	lsls	r2, r3, #25
100462d8:	2380      	movs	r3, #128	@ 0x80
100462da:	049b      	lsls	r3, r3, #18
100462dc:	401a      	ands	r2, r3
100462de:	4b20      	ldr	r3, [pc, #128]	@ (10046360 <HAL_MRSubG_802_15_4_PacketInit+0x1e0>)
100462e0:	430a      	orrs	r2, r1
100462e2:	611a      	str	r2, [r3, #16]
    MR_SUBG_GLOB_STATIC_PCKT_CTRL_INT_EN_4G,
    ((px802_15_4PktInit->FecType == FEC_15_4_G_NRNSC) ||
     (px802_15_4PktInit->FecType == FEC_15_4_G_RSC_Interleaving))
  );

  MODIFY_REG_FIELD(MR_SUBG_GLOB_STATIC->PCKT_CTRL, MR_SUBG_GLOB_STATIC_PCKT_CTRL_CODING_SEL,
100462e4:	4b1e      	ldr	r3, [pc, #120]	@ (10046360 <HAL_MRSubG_802_15_4_PacketInit+0x1e0>)
100462e6:	691b      	ldr	r3, [r3, #16]
100462e8:	4a26      	ldr	r2, [pc, #152]	@ (10046384 <HAL_MRSubG_802_15_4_PacketInit+0x204>)
100462ea:	4013      	ands	r3, r2
100462ec:	0019      	movs	r1, r3
100462ee:	687b      	ldr	r3, [r7, #4]
100462f0:	791b      	ldrb	r3, [r3, #4]
100462f2:	2b00      	cmp	r3, #0
100462f4:	d002      	beq.n	100462fc <HAL_MRSubG_802_15_4_PacketInit+0x17c>
100462f6:	2380      	movs	r3, #128	@ 0x80
100462f8:	039a      	lsls	r2, r3, #14
100462fa:	e000      	b.n	100462fe <HAL_MRSubG_802_15_4_PacketInit+0x17e>
100462fc:	2200      	movs	r2, #0
100462fe:	4b18      	ldr	r3, [pc, #96]	@ (10046360 <HAL_MRSubG_802_15_4_PacketInit+0x1e0>)
10046300:	430a      	orrs	r2, r1
10046302:	611a      	str	r2, [r3, #16]
                   (px802_15_4PktInit->FecType > 0));

  MODIFY_REG_FIELD(MR_SUBG_GLOB_STATIC->PCKT_CTRL, MR_SUBG_GLOB_STATIC_PCKT_CTRL_WHIT_EN, px802_15_4PktInit->Whitening);
10046304:	4b16      	ldr	r3, [pc, #88]	@ (10046360 <HAL_MRSubG_802_15_4_PacketInit+0x1e0>)
10046306:	691b      	ldr	r3, [r3, #16]
10046308:	4a1f      	ldr	r2, [pc, #124]	@ (10046388 <HAL_MRSubG_802_15_4_PacketInit+0x208>)
1004630a:	4013      	ands	r3, r2
1004630c:	0019      	movs	r1, r3
1004630e:	687b      	ldr	r3, [r7, #4]
10046310:	78db      	ldrb	r3, [r3, #3]
10046312:	02da      	lsls	r2, r3, #11
10046314:	2380      	movs	r3, #128	@ 0x80
10046316:	011b      	lsls	r3, r3, #4
10046318:	401a      	ands	r2, r3
1004631a:	4b11      	ldr	r3, [pc, #68]	@ (10046360 <HAL_MRSubG_802_15_4_PacketInit+0x1e0>)
1004631c:	430a      	orrs	r2, r1
1004631e:	611a      	str	r2, [r3, #16]

  MODIFY_REG_FIELD(MR_SUBG_GLOB_STATIC->PCKT_CTRL, MR_SUBG_GLOB_STATIC_PCKT_CTRL_WHIT_BF_FEC, 0);
10046320:	4b0f      	ldr	r3, [pc, #60]	@ (10046360 <HAL_MRSubG_802_15_4_PacketInit+0x1e0>)
10046322:	691a      	ldr	r2, [r3, #16]
10046324:	4b0e      	ldr	r3, [pc, #56]	@ (10046360 <HAL_MRSubG_802_15_4_PacketInit+0x1e0>)
10046326:	4919      	ldr	r1, [pc, #100]	@ (1004638c <HAL_MRSubG_802_15_4_PacketInit+0x20c>)
10046328:	400a      	ands	r2, r1
1004632a:	611a      	str	r2, [r3, #16]

  MODIFY_REG_FIELD(MR_SUBG_GLOB_STATIC->PCKT_CTRL, MR_SUBG_GLOB_STATIC_PCKT_CTRL_BYTE_SWAP, 1);
1004632c:	4b0c      	ldr	r3, [pc, #48]	@ (10046360 <HAL_MRSubG_802_15_4_PacketInit+0x1e0>)
1004632e:	691a      	ldr	r2, [r3, #16]
10046330:	4b0b      	ldr	r3, [pc, #44]	@ (10046360 <HAL_MRSubG_802_15_4_PacketInit+0x1e0>)
10046332:	2104      	movs	r1, #4
10046334:	430a      	orrs	r2, r1
10046336:	611a      	str	r2, [r3, #16]

  WRITE_REG(MR_SUBG_GLOB_STATIC->CRC_INIT, ((px802_15_4PktInit->FCSType == FCS_16BIT) ? 0 : 0xFFFFFFFF));
10046338:	687b      	ldr	r3, [r7, #4]
1004633a:	789b      	ldrb	r3, [r3, #2]
1004633c:	2b03      	cmp	r3, #3
1004633e:	d101      	bne.n	10046344 <HAL_MRSubG_802_15_4_PacketInit+0x1c4>
10046340:	2200      	movs	r2, #0
10046342:	e001      	b.n	10046348 <HAL_MRSubG_802_15_4_PacketInit+0x1c8>
10046344:	2301      	movs	r3, #1
10046346:	425a      	negs	r2, r3
10046348:	4b05      	ldr	r3, [pc, #20]	@ (10046360 <HAL_MRSubG_802_15_4_PacketInit+0x1e0>)
1004634a:	60da      	str	r2, [r3, #12]
}
1004634c:	46c0      	nop			@ (mov r8, r8)
1004634e:	46bd      	mov	sp, r7
10046350:	b004      	add	sp, #16
10046352:	bd80      	pop	{r7, pc}
10046354:	100497e4 	.word	0x100497e4
10046358:	100497ec 	.word	0x100497ec
1004635c:	000001ff 	.word	0x000001ff
10046360:	49000400 	.word	0x49000400
10046364:	ff3fffff 	.word	0xff3fffff
10046368:	ffc00fff 	.word	0xffc00fff
1004636c:	003ff000 	.word	0x003ff000
10046370:	fffffe0f 	.word	0xfffffe0f
10046374:	49000500 	.word	0x49000500
10046378:	f7ffffff 	.word	0xf7ffffff
1004637c:	fbffffff 	.word	0xfbffffff
10046380:	fdffffff 	.word	0xfdffffff
10046384:	ff9fffff 	.word	0xff9fffff
10046388:	fffff7ff 	.word	0xfffff7ff
1004638c:	fffffbff 	.word	0xfffffbff

10046390 <HAL_PWREx_EnableGPIOPullUp>:
  *         PWR_GPIO_BIT_0, ..., PWR_GPIO_BIT_15 or the logical OR
  *         of several of them to setseveral bits for a given port in a single API call.
  * @retval HAL Status
  */
HAL_StatusTypeDef HAL_PWREx_EnableGPIOPullUp(uint32_t GPIO, uint32_t GPIONumber)
{
10046390:	b580      	push	{r7, lr}
10046392:	b084      	sub	sp, #16
10046394:	af00      	add	r7, sp, #0
10046396:	6078      	str	r0, [r7, #4]
10046398:	6039      	str	r1, [r7, #0]
  HAL_StatusTypeDef status = HAL_OK;
1004639a:	230f      	movs	r3, #15
1004639c:	18fb      	adds	r3, r7, r3
1004639e:	2200      	movs	r2, #0
100463a0:	701a      	strb	r2, [r3, #0]

  assert_param(IS_PWR_GPIO(GPIO));
  assert_param(IS_PWR_GPIO_BIT_NUMBER(GPIONumber));

  switch (GPIO)
100463a2:	687b      	ldr	r3, [r7, #4]
100463a4:	2b00      	cmp	r3, #0
100463a6:	d003      	beq.n	100463b0 <HAL_PWREx_EnableGPIOPullUp+0x20>
100463a8:	687b      	ldr	r3, [r7, #4]
100463aa:	2b01      	cmp	r3, #1
100463ac:	d00e      	beq.n	100463cc <HAL_PWREx_EnableGPIOPullUp+0x3c>
100463ae:	e01b      	b.n	100463e8 <HAL_PWREx_EnableGPIOPullUp+0x58>
  {
    case PWR_GPIO_A:
      SET_BIT(PWR->PUCRA, GPIONumber);
100463b0:	4b13      	ldr	r3, [pc, #76]	@ (10046400 <HAL_PWREx_EnableGPIOPullUp+0x70>)
100463b2:	6a19      	ldr	r1, [r3, #32]
100463b4:	4b12      	ldr	r3, [pc, #72]	@ (10046400 <HAL_PWREx_EnableGPIOPullUp+0x70>)
100463b6:	683a      	ldr	r2, [r7, #0]
100463b8:	430a      	orrs	r2, r1
100463ba:	621a      	str	r2, [r3, #32]
      CLEAR_BIT(PWR->PDCRA, GPIONumber);
100463bc:	4b10      	ldr	r3, [pc, #64]	@ (10046400 <HAL_PWREx_EnableGPIOPullUp+0x70>)
100463be:	6a5a      	ldr	r2, [r3, #36]	@ 0x24
100463c0:	683b      	ldr	r3, [r7, #0]
100463c2:	43d9      	mvns	r1, r3
100463c4:	4b0e      	ldr	r3, [pc, #56]	@ (10046400 <HAL_PWREx_EnableGPIOPullUp+0x70>)
100463c6:	400a      	ands	r2, r1
100463c8:	625a      	str	r2, [r3, #36]	@ 0x24
      break;
100463ca:	e012      	b.n	100463f2 <HAL_PWREx_EnableGPIOPullUp+0x62>
    case PWR_GPIO_B:
      SET_BIT(PWR->PUCRB, GPIONumber);
100463cc:	4b0c      	ldr	r3, [pc, #48]	@ (10046400 <HAL_PWREx_EnableGPIOPullUp+0x70>)
100463ce:	6a99      	ldr	r1, [r3, #40]	@ 0x28
100463d0:	4b0b      	ldr	r3, [pc, #44]	@ (10046400 <HAL_PWREx_EnableGPIOPullUp+0x70>)
100463d2:	683a      	ldr	r2, [r7, #0]
100463d4:	430a      	orrs	r2, r1
100463d6:	629a      	str	r2, [r3, #40]	@ 0x28
      CLEAR_BIT(PWR->PDCRB, GPIONumber);
100463d8:	4b09      	ldr	r3, [pc, #36]	@ (10046400 <HAL_PWREx_EnableGPIOPullUp+0x70>)
100463da:	6ada      	ldr	r2, [r3, #44]	@ 0x2c
100463dc:	683b      	ldr	r3, [r7, #0]
100463de:	43d9      	mvns	r1, r3
100463e0:	4b07      	ldr	r3, [pc, #28]	@ (10046400 <HAL_PWREx_EnableGPIOPullUp+0x70>)
100463e2:	400a      	ands	r2, r1
100463e4:	62da      	str	r2, [r3, #44]	@ 0x2c
      break;
100463e6:	e004      	b.n	100463f2 <HAL_PWREx_EnableGPIOPullUp+0x62>
    default:
      status = HAL_ERROR;
100463e8:	230f      	movs	r3, #15
100463ea:	18fb      	adds	r3, r7, r3
100463ec:	2201      	movs	r2, #1
100463ee:	701a      	strb	r2, [r3, #0]
      break;
100463f0:	46c0      	nop			@ (mov r8, r8)
  }

  return status;
100463f2:	230f      	movs	r3, #15
100463f4:	18fb      	adds	r3, r7, r3
100463f6:	781b      	ldrb	r3, [r3, #0]
}
100463f8:	0018      	movs	r0, r3
100463fa:	46bd      	mov	sp, r7
100463fc:	b004      	add	sp, #16
100463fe:	bd80      	pop	{r7, pc}
10046400:	48500000 	.word	0x48500000

10046404 <HAL_PWREx_DisableGPIOPullUp>:
  *         or the logical OR of several of them to reset
  *         several bits for a given port in a single API call.
  * @retval HAL Status
  */
HAL_StatusTypeDef HAL_PWREx_DisableGPIOPullUp(uint32_t GPIO, uint32_t GPIONumber)
{
10046404:	b580      	push	{r7, lr}
10046406:	b084      	sub	sp, #16
10046408:	af00      	add	r7, sp, #0
1004640a:	6078      	str	r0, [r7, #4]
1004640c:	6039      	str	r1, [r7, #0]
  HAL_StatusTypeDef status = HAL_OK;
1004640e:	230f      	movs	r3, #15
10046410:	18fb      	adds	r3, r7, r3
10046412:	2200      	movs	r2, #0
10046414:	701a      	strb	r2, [r3, #0]

  assert_param(IS_PWR_GPIO(GPIO));
  assert_param(IS_PWR_GPIO_BIT_NUMBER(GPIONumber));

  switch (GPIO)
10046416:	687b      	ldr	r3, [r7, #4]
10046418:	2b00      	cmp	r3, #0
1004641a:	d003      	beq.n	10046424 <HAL_PWREx_DisableGPIOPullUp+0x20>
1004641c:	687b      	ldr	r3, [r7, #4]
1004641e:	2b01      	cmp	r3, #1
10046420:	d008      	beq.n	10046434 <HAL_PWREx_DisableGPIOPullUp+0x30>
10046422:	e00f      	b.n	10046444 <HAL_PWREx_DisableGPIOPullUp+0x40>
  {
    case PWR_GPIO_A:
      CLEAR_BIT(PWR->PUCRA, GPIONumber);
10046424:	4b0d      	ldr	r3, [pc, #52]	@ (1004645c <HAL_PWREx_DisableGPIOPullUp+0x58>)
10046426:	6a1a      	ldr	r2, [r3, #32]
10046428:	683b      	ldr	r3, [r7, #0]
1004642a:	43d9      	mvns	r1, r3
1004642c:	4b0b      	ldr	r3, [pc, #44]	@ (1004645c <HAL_PWREx_DisableGPIOPullUp+0x58>)
1004642e:	400a      	ands	r2, r1
10046430:	621a      	str	r2, [r3, #32]
      break;
10046432:	e00c      	b.n	1004644e <HAL_PWREx_DisableGPIOPullUp+0x4a>
    case PWR_GPIO_B:
      CLEAR_BIT(PWR->PUCRB, GPIONumber);
10046434:	4b09      	ldr	r3, [pc, #36]	@ (1004645c <HAL_PWREx_DisableGPIOPullUp+0x58>)
10046436:	6a9a      	ldr	r2, [r3, #40]	@ 0x28
10046438:	683b      	ldr	r3, [r7, #0]
1004643a:	43d9      	mvns	r1, r3
1004643c:	4b07      	ldr	r3, [pc, #28]	@ (1004645c <HAL_PWREx_DisableGPIOPullUp+0x58>)
1004643e:	400a      	ands	r2, r1
10046440:	629a      	str	r2, [r3, #40]	@ 0x28
      break;
10046442:	e004      	b.n	1004644e <HAL_PWREx_DisableGPIOPullUp+0x4a>
    default:
      status = HAL_ERROR;
10046444:	230f      	movs	r3, #15
10046446:	18fb      	adds	r3, r7, r3
10046448:	2201      	movs	r2, #1
1004644a:	701a      	strb	r2, [r3, #0]
      break;
1004644c:	46c0      	nop			@ (mov r8, r8)
  }

  return status;
1004644e:	230f      	movs	r3, #15
10046450:	18fb      	adds	r3, r7, r3
10046452:	781b      	ldrb	r3, [r3, #0]
}
10046454:	0018      	movs	r0, r3
10046456:	46bd      	mov	sp, r7
10046458:	b004      	add	sp, #16
1004645a:	bd80      	pop	{r7, pc}
1004645c:	48500000 	.word	0x48500000

10046460 <HAL_PWREx_DisableGPIOPullDown>:
  *         or the logical OR of several of them to reset
  *         several bits for a given port in a single API call.
  * @retval HAL Status
  */
HAL_StatusTypeDef HAL_PWREx_DisableGPIOPullDown(uint32_t GPIO, uint32_t GPIONumber)
{
10046460:	b580      	push	{r7, lr}
10046462:	b084      	sub	sp, #16
10046464:	af00      	add	r7, sp, #0
10046466:	6078      	str	r0, [r7, #4]
10046468:	6039      	str	r1, [r7, #0]
  HAL_StatusTypeDef status = HAL_OK;
1004646a:	230f      	movs	r3, #15
1004646c:	18fb      	adds	r3, r7, r3
1004646e:	2200      	movs	r2, #0
10046470:	701a      	strb	r2, [r3, #0]

  assert_param(IS_PWR_GPIO(GPIO));
  assert_param(IS_PWR_GPIO_BIT_NUMBER(GPIONumber));

  switch (GPIO)
10046472:	687b      	ldr	r3, [r7, #4]
10046474:	2b00      	cmp	r3, #0
10046476:	d003      	beq.n	10046480 <HAL_PWREx_DisableGPIOPullDown+0x20>
10046478:	687b      	ldr	r3, [r7, #4]
1004647a:	2b01      	cmp	r3, #1
1004647c:	d008      	beq.n	10046490 <HAL_PWREx_DisableGPIOPullDown+0x30>
1004647e:	e00f      	b.n	100464a0 <HAL_PWREx_DisableGPIOPullDown+0x40>
  {
    case PWR_GPIO_A:
      CLEAR_BIT(PWR->PDCRA, GPIONumber);
10046480:	4b0d      	ldr	r3, [pc, #52]	@ (100464b8 <HAL_PWREx_DisableGPIOPullDown+0x58>)
10046482:	6a5a      	ldr	r2, [r3, #36]	@ 0x24
10046484:	683b      	ldr	r3, [r7, #0]
10046486:	43d9      	mvns	r1, r3
10046488:	4b0b      	ldr	r3, [pc, #44]	@ (100464b8 <HAL_PWREx_DisableGPIOPullDown+0x58>)
1004648a:	400a      	ands	r2, r1
1004648c:	625a      	str	r2, [r3, #36]	@ 0x24
      break;
1004648e:	e00c      	b.n	100464aa <HAL_PWREx_DisableGPIOPullDown+0x4a>
    case PWR_GPIO_B:
      CLEAR_BIT(PWR->PDCRB, GPIONumber);
10046490:	4b09      	ldr	r3, [pc, #36]	@ (100464b8 <HAL_PWREx_DisableGPIOPullDown+0x58>)
10046492:	6ada      	ldr	r2, [r3, #44]	@ 0x2c
10046494:	683b      	ldr	r3, [r7, #0]
10046496:	43d9      	mvns	r1, r3
10046498:	4b07      	ldr	r3, [pc, #28]	@ (100464b8 <HAL_PWREx_DisableGPIOPullDown+0x58>)
1004649a:	400a      	ands	r2, r1
1004649c:	62da      	str	r2, [r3, #44]	@ 0x2c
      break;
1004649e:	e004      	b.n	100464aa <HAL_PWREx_DisableGPIOPullDown+0x4a>
    default:
      status = HAL_ERROR;
100464a0:	230f      	movs	r3, #15
100464a2:	18fb      	adds	r3, r7, r3
100464a4:	2201      	movs	r2, #1
100464a6:	701a      	strb	r2, [r3, #0]
      break;
100464a8:	46c0      	nop			@ (mov r8, r8)
  }

  return status;
100464aa:	230f      	movs	r3, #15
100464ac:	18fb      	adds	r3, r7, r3
100464ae:	781b      	ldrb	r3, [r3, #0]
}
100464b0:	0018      	movs	r0, r3
100464b2:	46bd      	mov	sp, r7
100464b4:	b004      	add	sp, #16
100464b6:	bd80      	pop	{r7, pc}
100464b8:	48500000 	.word	0x48500000

100464bc <LL_PWR_SetNoPullB>:
  * @retval None
  * @note   Please refer the user manual to know which IOs are able for this
  *         feature.
  */
__STATIC_INLINE void LL_PWR_SetNoPullB(uint32_t IO)
{
100464bc:	b580      	push	{r7, lr}
100464be:	b082      	sub	sp, #8
100464c0:	af00      	add	r7, sp, #0
100464c2:	6078      	str	r0, [r7, #4]
  CLEAR_BIT(PWR->PUCRB, IO);
100464c4:	4b08      	ldr	r3, [pc, #32]	@ (100464e8 <LL_PWR_SetNoPullB+0x2c>)
100464c6:	6a9a      	ldr	r2, [r3, #40]	@ 0x28
100464c8:	687b      	ldr	r3, [r7, #4]
100464ca:	43d9      	mvns	r1, r3
100464cc:	4b06      	ldr	r3, [pc, #24]	@ (100464e8 <LL_PWR_SetNoPullB+0x2c>)
100464ce:	400a      	ands	r2, r1
100464d0:	629a      	str	r2, [r3, #40]	@ 0x28
  CLEAR_BIT(PWR->PDCRB, IO);
100464d2:	4b05      	ldr	r3, [pc, #20]	@ (100464e8 <LL_PWR_SetNoPullB+0x2c>)
100464d4:	6ada      	ldr	r2, [r3, #44]	@ 0x2c
100464d6:	687b      	ldr	r3, [r7, #4]
100464d8:	43d9      	mvns	r1, r3
100464da:	4b03      	ldr	r3, [pc, #12]	@ (100464e8 <LL_PWR_SetNoPullB+0x2c>)
100464dc:	400a      	ands	r2, r1
100464de:	62da      	str	r2, [r3, #44]	@ 0x2c
}
100464e0:	46c0      	nop			@ (mov r8, r8)
100464e2:	46bd      	mov	sp, r7
100464e4:	b002      	add	sp, #8
100464e6:	bd80      	pop	{r7, pc}
100464e8:	48500000 	.word	0x48500000

100464ec <LL_RCC_HSE_Enable>:
  * @brief  Enable HSE crystal oscillator (HSE ON)
  * @rmtoll CR           HSEON         LL_RCC_HSE_Enable
  * @retval None
  */
__STATIC_INLINE void LL_RCC_HSE_Enable(void)
{
100464ec:	b580      	push	{r7, lr}
100464ee:	af00      	add	r7, sp, #0
  SET_BIT(RCC->CR, RCC_CR_HSEON);
100464f0:	4b04      	ldr	r3, [pc, #16]	@ (10046504 <LL_RCC_HSE_Enable+0x18>)
100464f2:	681a      	ldr	r2, [r3, #0]
100464f4:	4b03      	ldr	r3, [pc, #12]	@ (10046504 <LL_RCC_HSE_Enable+0x18>)
100464f6:	2180      	movs	r1, #128	@ 0x80
100464f8:	0249      	lsls	r1, r1, #9
100464fa:	430a      	orrs	r2, r1
100464fc:	601a      	str	r2, [r3, #0]
}
100464fe:	46c0      	nop			@ (mov r8, r8)
10046500:	46bd      	mov	sp, r7
10046502:	bd80      	pop	{r7, pc}
10046504:	48400000 	.word	0x48400000

10046508 <LL_RCC_HSE_Disable>:
  * @brief  Disable HSE crystal oscillator (HSE ON)
  * @rmtoll CR           HSEON         LL_RCC_HSE_Disable
  * @retval None
  */
__STATIC_INLINE void LL_RCC_HSE_Disable(void)
{
10046508:	b580      	push	{r7, lr}
1004650a:	af00      	add	r7, sp, #0
  CLEAR_BIT(RCC->CR, RCC_CR_HSEON);
1004650c:	4b04      	ldr	r3, [pc, #16]	@ (10046520 <LL_RCC_HSE_Disable+0x18>)
1004650e:	681a      	ldr	r2, [r3, #0]
10046510:	4b03      	ldr	r3, [pc, #12]	@ (10046520 <LL_RCC_HSE_Disable+0x18>)
10046512:	4904      	ldr	r1, [pc, #16]	@ (10046524 <LL_RCC_HSE_Disable+0x1c>)
10046514:	400a      	ands	r2, r1
10046516:	601a      	str	r2, [r3, #0]
}
10046518:	46c0      	nop			@ (mov r8, r8)
1004651a:	46bd      	mov	sp, r7
1004651c:	bd80      	pop	{r7, pc}
1004651e:	46c0      	nop			@ (mov r8, r8)
10046520:	48400000 	.word	0x48400000
10046524:	fffeffff 	.word	0xfffeffff

10046528 <LL_RCC_HSE_IsReady>:
  * @brief  Check if HSE oscillator Ready
  * @rmtoll CR           HSERDY        LL_RCC_HSE_IsReady
  * @retval State of bit (1 or 0).
  */
__STATIC_INLINE uint32_t LL_RCC_HSE_IsReady(void)
{
10046528:	b580      	push	{r7, lr}
1004652a:	af00      	add	r7, sp, #0
  return ((READ_BIT(RCC->CR, RCC_CR_HSERDY) == (RCC_CR_HSERDY)) ? 1UL : 0UL);
1004652c:	4b07      	ldr	r3, [pc, #28]	@ (1004654c <LL_RCC_HSE_IsReady+0x24>)
1004652e:	681a      	ldr	r2, [r3, #0]
10046530:	2380      	movs	r3, #128	@ 0x80
10046532:	029b      	lsls	r3, r3, #10
10046534:	401a      	ands	r2, r3
10046536:	2380      	movs	r3, #128	@ 0x80
10046538:	029b      	lsls	r3, r3, #10
1004653a:	429a      	cmp	r2, r3
1004653c:	d101      	bne.n	10046542 <LL_RCC_HSE_IsReady+0x1a>
1004653e:	2301      	movs	r3, #1
10046540:	e000      	b.n	10046544 <LL_RCC_HSE_IsReady+0x1c>
10046542:	2300      	movs	r3, #0
}
10046544:	0018      	movs	r0, r3
10046546:	46bd      	mov	sp, r7
10046548:	bd80      	pop	{r7, pc}
1004654a:	46c0      	nop			@ (mov r8, r8)
1004654c:	48400000 	.word	0x48400000

10046550 <LL_RCC_HSE_SetCapacitorTuning>:
  * @rmtoll RFSWHSECR        SWXOTUNE       LL_RCC_HSE_SetCapacitorTuning
  * @param  Value Between Min_Data = 0 and Max_Data = 63
  * @retval None
  */
__STATIC_INLINE void LL_RCC_HSE_SetCapacitorTuning(uint32_t Value)
{
10046550:	b580      	push	{r7, lr}
10046552:	b082      	sub	sp, #8
10046554:	af00      	add	r7, sp, #0
10046556:	6078      	str	r0, [r7, #4]
  MODIFY_REG(RCC->RFSWHSECR, RCC_RFSWHSECR_SWXOTUNE, Value << RCC_RFSWHSECR_SWXOTUNE_Pos);
10046558:	4a0b      	ldr	r2, [pc, #44]	@ (10046588 <LL_RCC_HSE_SetCapacitorTuning+0x38>)
1004655a:	2398      	movs	r3, #152	@ 0x98
1004655c:	58d3      	ldr	r3, [r2, r3]
1004655e:	4a0b      	ldr	r2, [pc, #44]	@ (1004658c <LL_RCC_HSE_SetCapacitorTuning+0x3c>)
10046560:	401a      	ands	r2, r3
10046562:	687b      	ldr	r3, [r7, #4]
10046564:	021b      	lsls	r3, r3, #8
10046566:	4908      	ldr	r1, [pc, #32]	@ (10046588 <LL_RCC_HSE_SetCapacitorTuning+0x38>)
10046568:	4313      	orrs	r3, r2
1004656a:	2298      	movs	r2, #152	@ 0x98
1004656c:	508b      	str	r3, [r1, r2]
  SET_BIT(RCC->RFSWHSECR, RCC_RFSWHSECR_SWXOTUNEEN);
1004656e:	4a06      	ldr	r2, [pc, #24]	@ (10046588 <LL_RCC_HSE_SetCapacitorTuning+0x38>)
10046570:	2398      	movs	r3, #152	@ 0x98
10046572:	58d3      	ldr	r3, [r2, r3]
10046574:	4904      	ldr	r1, [pc, #16]	@ (10046588 <LL_RCC_HSE_SetCapacitorTuning+0x38>)
10046576:	2280      	movs	r2, #128	@ 0x80
10046578:	4313      	orrs	r3, r2
1004657a:	2298      	movs	r2, #152	@ 0x98
1004657c:	508b      	str	r3, [r1, r2]
}
1004657e:	46c0      	nop			@ (mov r8, r8)
10046580:	46bd      	mov	sp, r7
10046582:	b002      	add	sp, #8
10046584:	bd80      	pop	{r7, pc}
10046586:	46c0      	nop			@ (mov r8, r8)
10046588:	48400000 	.word	0x48400000
1004658c:	ffffc0ff 	.word	0xffffc0ff

10046590 <LL_RCC_HSE_SetCurrentControl>:
  *         Example GMC[6:0]=0b1111001=25*40uA
  * @rmtoll RFSWHSECR        GMC       LL_RCC_HSE_SetCurrentControl
  * @param  CurrentMax HSE current calculated with the previous formula
  */
__STATIC_INLINE void LL_RCC_HSE_SetCurrentControl(uint32_t CurrentMax)
{
10046590:	b580      	push	{r7, lr}
10046592:	b082      	sub	sp, #8
10046594:	af00      	add	r7, sp, #0
10046596:	6078      	str	r0, [r7, #4]
  MODIFY_REG_FIELD(RCC->RFSWHSECR, RCC_RFSWHSECR_GMC, CurrentMax);
10046598:	4a08      	ldr	r2, [pc, #32]	@ (100465bc <LL_RCC_HSE_SetCurrentControl+0x2c>)
1004659a:	2398      	movs	r3, #152	@ 0x98
1004659c:	58d3      	ldr	r3, [r2, r3]
1004659e:	227f      	movs	r2, #127	@ 0x7f
100465a0:	4393      	bics	r3, r2
100465a2:	001a      	movs	r2, r3
100465a4:	687b      	ldr	r3, [r7, #4]
100465a6:	217f      	movs	r1, #127	@ 0x7f
100465a8:	400b      	ands	r3, r1
100465aa:	4904      	ldr	r1, [pc, #16]	@ (100465bc <LL_RCC_HSE_SetCurrentControl+0x2c>)
100465ac:	4313      	orrs	r3, r2
100465ae:	2298      	movs	r2, #152	@ 0x98
100465b0:	508b      	str	r3, [r1, r2]
}
100465b2:	46c0      	nop			@ (mov r8, r8)
100465b4:	46bd      	mov	sp, r7
100465b6:	b002      	add	sp, #8
100465b8:	bd80      	pop	{r7, pc}
100465ba:	46c0      	nop			@ (mov r8, r8)
100465bc:	48400000 	.word	0x48400000

100465c0 <LL_RCC_HSE_SetStartupCurrent>:
  * @brief  Set HSE startup current
  * @rmtoll RFSWHSECR        ISTARTUP      LL_RCC_HSE_SetStartupCurrent
  * @param  StartupCurrent HSE startup current
  */
__STATIC_INLINE void LL_RCC_HSE_SetStartupCurrent(uint32_t StartupCurrent)
{
100465c0:	b580      	push	{r7, lr}
100465c2:	b082      	sub	sp, #8
100465c4:	af00      	add	r7, sp, #0
100465c6:	6078      	str	r0, [r7, #4]
  MODIFY_REG_FIELD(RCC->RFSWHSECR, RCC_RFSWHSECR_ISTARTUP, StartupCurrent);
100465c8:	4a08      	ldr	r2, [pc, #32]	@ (100465ec <LL_RCC_HSE_SetStartupCurrent+0x2c>)
100465ca:	2398      	movs	r3, #152	@ 0x98
100465cc:	58d3      	ldr	r3, [r2, r3]
100465ce:	4a08      	ldr	r2, [pc, #32]	@ (100465f0 <LL_RCC_HSE_SetStartupCurrent+0x30>)
100465d0:	401a      	ands	r2, r3
100465d2:	687b      	ldr	r3, [r7, #4]
100465d4:	039b      	lsls	r3, r3, #14
100465d6:	041b      	lsls	r3, r3, #16
100465d8:	0c1b      	lsrs	r3, r3, #16
100465da:	4904      	ldr	r1, [pc, #16]	@ (100465ec <LL_RCC_HSE_SetStartupCurrent+0x2c>)
100465dc:	4313      	orrs	r3, r2
100465de:	2298      	movs	r2, #152	@ 0x98
100465e0:	508b      	str	r3, [r1, r2]
}
100465e2:	46c0      	nop			@ (mov r8, r8)
100465e4:	46bd      	mov	sp, r7
100465e6:	b002      	add	sp, #8
100465e8:	bd80      	pop	{r7, pc}
100465ea:	46c0      	nop			@ (mov r8, r8)
100465ec:	48400000 	.word	0x48400000
100465f0:	ffff3fff 	.word	0xffff3fff

100465f4 <LL_RCC_HSE_SetAmplitudeThreshold>:
  * @brief  Set HSE Amplitude Control threshold
  * @rmtoll RFSWHSECR        AMPLTHRESH      LL_RCC_HSE_SetAmplitudeThreshold
  * @param  AmplThr HSE Amplitude Control threshold
  */
__STATIC_INLINE void LL_RCC_HSE_SetAmplitudeThreshold(uint32_t AmplThr)
{
100465f4:	b580      	push	{r7, lr}
100465f6:	b082      	sub	sp, #8
100465f8:	af00      	add	r7, sp, #0
100465fa:	6078      	str	r0, [r7, #4]
  MODIFY_REG_FIELD(RCC->RFSWHSECR, RCC_RFSWHSECR_AMPLTHRESH, AmplThr);
100465fc:	4a08      	ldr	r2, [pc, #32]	@ (10046620 <LL_RCC_HSE_SetAmplitudeThreshold+0x2c>)
100465fe:	2398      	movs	r3, #152	@ 0x98
10046600:	58d3      	ldr	r3, [r2, r3]
10046602:	4a08      	ldr	r2, [pc, #32]	@ (10046624 <LL_RCC_HSE_SetAmplitudeThreshold+0x30>)
10046604:	401a      	ands	r2, r3
10046606:	687b      	ldr	r3, [r7, #4]
10046608:	0419      	lsls	r1, r3, #16
1004660a:	23e0      	movs	r3, #224	@ 0xe0
1004660c:	02db      	lsls	r3, r3, #11
1004660e:	400b      	ands	r3, r1
10046610:	4903      	ldr	r1, [pc, #12]	@ (10046620 <LL_RCC_HSE_SetAmplitudeThreshold+0x2c>)
10046612:	4313      	orrs	r3, r2
10046614:	2298      	movs	r2, #152	@ 0x98
10046616:	508b      	str	r3, [r1, r2]
}
10046618:	46c0      	nop			@ (mov r8, r8)
1004661a:	46bd      	mov	sp, r7
1004661c:	b002      	add	sp, #8
1004661e:	bd80      	pop	{r7, pc}
10046620:	48400000 	.word	0x48400000
10046624:	fff8ffff 	.word	0xfff8ffff

10046628 <LL_RCC_HSI_Enable>:
  * @brief  Enable HSI
  * @rmtoll CFGR           STOPHSI        LL_RCC_HSI_Enable
  * @retval None
  */
__STATIC_INLINE void LL_RCC_HSI_Enable(void)
{
10046628:	b580      	push	{r7, lr}
1004662a:	af00      	add	r7, sp, #0
  CLEAR_BIT(RCC->CFGR, RCC_CFGR_STOPHSI);
1004662c:	4b07      	ldr	r3, [pc, #28]	@ (1004664c <LL_RCC_HSI_Enable+0x24>)
1004662e:	689a      	ldr	r2, [r3, #8]
10046630:	4b06      	ldr	r3, [pc, #24]	@ (1004664c <LL_RCC_HSI_Enable+0x24>)
10046632:	2104      	movs	r1, #4
10046634:	438a      	bics	r2, r1
10046636:	609a      	str	r2, [r3, #8]
  CLEAR_BIT(RCC->CFGR, RCC_CFGR_HSESEL);
10046638:	4b04      	ldr	r3, [pc, #16]	@ (1004664c <LL_RCC_HSI_Enable+0x24>)
1004663a:	689a      	ldr	r2, [r3, #8]
1004663c:	4b03      	ldr	r3, [pc, #12]	@ (1004664c <LL_RCC_HSI_Enable+0x24>)
1004663e:	2102      	movs	r1, #2
10046640:	438a      	bics	r2, r1
10046642:	609a      	str	r2, [r3, #8]
}
10046644:	46c0      	nop			@ (mov r8, r8)
10046646:	46bd      	mov	sp, r7
10046648:	bd80      	pop	{r7, pc}
1004664a:	46c0      	nop			@ (mov r8, r8)
1004664c:	48400000 	.word	0x48400000

10046650 <LL_RCC_HSI_Disable>:
  * @brief  Disable HSI
  * @rmtoll CFGR           STOPHSI        LL_RCC_HSI_Disable
  * @retval None
  */
__STATIC_INLINE void LL_RCC_HSI_Disable(void)
{
10046650:	b580      	push	{r7, lr}
10046652:	af00      	add	r7, sp, #0
  SET_BIT(RCC->CFGR, RCC_CFGR_HSESEL);
10046654:	4b07      	ldr	r3, [pc, #28]	@ (10046674 <LL_RCC_HSI_Disable+0x24>)
10046656:	689a      	ldr	r2, [r3, #8]
10046658:	4b06      	ldr	r3, [pc, #24]	@ (10046674 <LL_RCC_HSI_Disable+0x24>)
1004665a:	2102      	movs	r1, #2
1004665c:	430a      	orrs	r2, r1
1004665e:	609a      	str	r2, [r3, #8]
  SET_BIT(RCC->CFGR, RCC_CFGR_STOPHSI);
10046660:	4b04      	ldr	r3, [pc, #16]	@ (10046674 <LL_RCC_HSI_Disable+0x24>)
10046662:	689a      	ldr	r2, [r3, #8]
10046664:	4b03      	ldr	r3, [pc, #12]	@ (10046674 <LL_RCC_HSI_Disable+0x24>)
10046666:	2104      	movs	r1, #4
10046668:	430a      	orrs	r2, r1
1004666a:	609a      	str	r2, [r3, #8]
}
1004666c:	46c0      	nop			@ (mov r8, r8)
1004666e:	46bd      	mov	sp, r7
10046670:	bd80      	pop	{r7, pc}
10046672:	46c0      	nop			@ (mov r8, r8)
10046674:	48400000 	.word	0x48400000

10046678 <LL_RCC_HSI_IsReady>:
  * @brief  Check if HSI clock is ready
  * @rmtoll CR           HSIRDY        LL_RCC_HSI_IsReady
  * @retval State of bit (1 or 0).
  */
__STATIC_INLINE uint32_t LL_RCC_HSI_IsReady(void)
{
10046678:	b580      	push	{r7, lr}
1004667a:	af00      	add	r7, sp, #0
  return ((READ_BIT(RCC->CR, RCC_CR_HSIRDY) == (RCC_CR_HSIRDY)) ? 1UL : 0UL);
1004667c:	4b07      	ldr	r3, [pc, #28]	@ (1004669c <LL_RCC_HSI_IsReady+0x24>)
1004667e:	681a      	ldr	r2, [r3, #0]
10046680:	2380      	movs	r3, #128	@ 0x80
10046682:	00db      	lsls	r3, r3, #3
10046684:	401a      	ands	r2, r3
10046686:	2380      	movs	r3, #128	@ 0x80
10046688:	00db      	lsls	r3, r3, #3
1004668a:	429a      	cmp	r2, r3
1004668c:	d101      	bne.n	10046692 <LL_RCC_HSI_IsReady+0x1a>
1004668e:	2301      	movs	r3, #1
10046690:	e000      	b.n	10046694 <LL_RCC_HSI_IsReady+0x1c>
10046692:	2300      	movs	r3, #0
}
10046694:	0018      	movs	r0, r3
10046696:	46bd      	mov	sp, r7
10046698:	bd80      	pop	{r7, pc}
1004669a:	46c0      	nop			@ (mov r8, r8)
1004669c:	48400000 	.word	0x48400000

100466a0 <LL_RCC_DIRECT_HSE_Enable>:
  * @brief  Enable DIRECT_HSE mode
  * @rmtoll CFGR       HSESEL/STOPHSI         LL_RCC_HSE_Enable
  * @retval None
  */
__STATIC_INLINE void LL_RCC_DIRECT_HSE_Enable(void)
{
100466a0:	b580      	push	{r7, lr}
100466a2:	b082      	sub	sp, #8
100466a4:	af00      	add	r7, sp, #0
  while (READ_BIT(RCC->CR, RCC_CR_HSERDY) == 0);
100466a6:	46c0      	nop			@ (mov r8, r8)
100466a8:	4b0f      	ldr	r3, [pc, #60]	@ (100466e8 <LL_RCC_DIRECT_HSE_Enable+0x48>)
100466aa:	681a      	ldr	r2, [r3, #0]
100466ac:	2380      	movs	r3, #128	@ 0x80
100466ae:	029b      	lsls	r3, r3, #10
100466b0:	4013      	ands	r3, r2
100466b2:	d0f9      	beq.n	100466a8 <LL_RCC_DIRECT_HSE_Enable+0x8>
  SET_BIT(RCC->CFGR, RCC_CFGR_HSESEL);
100466b4:	4b0c      	ldr	r3, [pc, #48]	@ (100466e8 <LL_RCC_DIRECT_HSE_Enable+0x48>)
100466b6:	689a      	ldr	r2, [r3, #8]
100466b8:	4b0b      	ldr	r3, [pc, #44]	@ (100466e8 <LL_RCC_DIRECT_HSE_Enable+0x48>)
100466ba:	2102      	movs	r1, #2
100466bc:	430a      	orrs	r2, r1
100466be:	609a      	str	r2, [r3, #8]
  for (volatile int i = 0; i < 6; i++)
100466c0:	2300      	movs	r3, #0
100466c2:	607b      	str	r3, [r7, #4]
100466c4:	e003      	b.n	100466ce <LL_RCC_DIRECT_HSE_Enable+0x2e>
  {
    __asm("NOP");
100466c6:	46c0      	nop			@ (mov r8, r8)
  for (volatile int i = 0; i < 6; i++)
100466c8:	687b      	ldr	r3, [r7, #4]
100466ca:	3301      	adds	r3, #1
100466cc:	607b      	str	r3, [r7, #4]
100466ce:	687b      	ldr	r3, [r7, #4]
100466d0:	2b05      	cmp	r3, #5
100466d2:	ddf8      	ble.n	100466c6 <LL_RCC_DIRECT_HSE_Enable+0x26>
  }
  SET_BIT(RCC->CFGR, RCC_CFGR_STOPHSI);
100466d4:	4b04      	ldr	r3, [pc, #16]	@ (100466e8 <LL_RCC_DIRECT_HSE_Enable+0x48>)
100466d6:	689a      	ldr	r2, [r3, #8]
100466d8:	4b03      	ldr	r3, [pc, #12]	@ (100466e8 <LL_RCC_DIRECT_HSE_Enable+0x48>)
100466da:	2104      	movs	r1, #4
100466dc:	430a      	orrs	r2, r1
100466de:	609a      	str	r2, [r3, #8]
}
100466e0:	46c0      	nop			@ (mov r8, r8)
100466e2:	46bd      	mov	sp, r7
100466e4:	b002      	add	sp, #8
100466e6:	bd80      	pop	{r7, pc}
100466e8:	48400000 	.word	0x48400000

100466ec <LL_RCC_LSCO_SetSource>:
  *         @arg @ref LL_RCC_LSCO_CLKSOURCE_LSI
  *         @arg @ref LL_RCC_LSCO_CLKSOURCE_HSI64M_DIV2048
  * @retval None
  */
__STATIC_INLINE void LL_RCC_LSCO_SetSource(uint32_t Source)
{
100466ec:	b580      	push	{r7, lr}
100466ee:	b082      	sub	sp, #8
100466f0:	af00      	add	r7, sp, #0
100466f2:	6078      	str	r0, [r7, #4]
  MODIFY_REG(RCC->CFGR, RCC_CFGR_CLKSLOWSEL, Source);
100466f4:	4b06      	ldr	r3, [pc, #24]	@ (10046710 <LL_RCC_LSCO_SetSource+0x24>)
100466f6:	689b      	ldr	r3, [r3, #8]
100466f8:	4a06      	ldr	r2, [pc, #24]	@ (10046714 <LL_RCC_LSCO_SetSource+0x28>)
100466fa:	4013      	ands	r3, r2
100466fc:	0019      	movs	r1, r3
100466fe:	4b04      	ldr	r3, [pc, #16]	@ (10046710 <LL_RCC_LSCO_SetSource+0x24>)
10046700:	687a      	ldr	r2, [r7, #4]
10046702:	430a      	orrs	r2, r1
10046704:	609a      	str	r2, [r3, #8]
}
10046706:	46c0      	nop			@ (mov r8, r8)
10046708:	46bd      	mov	sp, r7
1004670a:	b002      	add	sp, #8
1004670c:	bd80      	pop	{r7, pc}
1004670e:	46c0      	nop			@ (mov r8, r8)
10046710:	48400000 	.word	0x48400000
10046714:	fffe7fff 	.word	0xfffe7fff

10046718 <LL_RCC_LSE_Enable>:
  * @brief  Enable  Low Speed External (LSE) crystal.
  * @rmtoll CR         LSEON         LL_RCC_LSE_Enable
  * @retval None
  */
__STATIC_INLINE void LL_RCC_LSE_Enable(void)
{
10046718:	b580      	push	{r7, lr}
1004671a:	af00      	add	r7, sp, #0
  SET_BIT(RCC->CR, RCC_CR_LSEON);
1004671c:	4b04      	ldr	r3, [pc, #16]	@ (10046730 <LL_RCC_LSE_Enable+0x18>)
1004671e:	681a      	ldr	r2, [r3, #0]
10046720:	4b03      	ldr	r3, [pc, #12]	@ (10046730 <LL_RCC_LSE_Enable+0x18>)
10046722:	2110      	movs	r1, #16
10046724:	430a      	orrs	r2, r1
10046726:	601a      	str	r2, [r3, #0]
}
10046728:	46c0      	nop			@ (mov r8, r8)
1004672a:	46bd      	mov	sp, r7
1004672c:	bd80      	pop	{r7, pc}
1004672e:	46c0      	nop			@ (mov r8, r8)
10046730:	48400000 	.word	0x48400000

10046734 <LL_RCC_LSE_Disable>:
  * @brief  Disable  Low Speed External (LSE) crystal.
  * @rmtoll CR         LSEON         LL_RCC_LSE_Disable
  * @retval None
  */
__STATIC_INLINE void LL_RCC_LSE_Disable(void)
{
10046734:	b580      	push	{r7, lr}
10046736:	af00      	add	r7, sp, #0
  CLEAR_BIT(RCC->CR, RCC_CR_LSEON);
10046738:	4b04      	ldr	r3, [pc, #16]	@ (1004674c <LL_RCC_LSE_Disable+0x18>)
1004673a:	681a      	ldr	r2, [r3, #0]
1004673c:	4b03      	ldr	r3, [pc, #12]	@ (1004674c <LL_RCC_LSE_Disable+0x18>)
1004673e:	2110      	movs	r1, #16
10046740:	438a      	bics	r2, r1
10046742:	601a      	str	r2, [r3, #0]
}
10046744:	46c0      	nop			@ (mov r8, r8)
10046746:	46bd      	mov	sp, r7
10046748:	bd80      	pop	{r7, pc}
1004674a:	46c0      	nop			@ (mov r8, r8)
1004674c:	48400000 	.word	0x48400000

10046750 <LL_RCC_LSE_IsReady>:
  * @brief  Check if LSE oscillator Ready
  * @rmtoll CR         LSERDY        LL_RCC_LSE_IsReady
  * @retval State of bit (1 or 0).
  */
__STATIC_INLINE uint32_t LL_RCC_LSE_IsReady(void)
{
10046750:	b580      	push	{r7, lr}
10046752:	af00      	add	r7, sp, #0
  return ((READ_BIT(RCC->CR, RCC_CR_LSERDY) == (RCC_CR_LSERDY)) ? 1UL : 0UL);
10046754:	4b05      	ldr	r3, [pc, #20]	@ (1004676c <LL_RCC_LSE_IsReady+0x1c>)
10046756:	681b      	ldr	r3, [r3, #0]
10046758:	2220      	movs	r2, #32
1004675a:	4013      	ands	r3, r2
1004675c:	2b20      	cmp	r3, #32
1004675e:	d101      	bne.n	10046764 <LL_RCC_LSE_IsReady+0x14>
10046760:	2301      	movs	r3, #1
10046762:	e000      	b.n	10046766 <LL_RCC_LSE_IsReady+0x16>
10046764:	2300      	movs	r3, #0
}
10046766:	0018      	movs	r0, r3
10046768:	46bd      	mov	sp, r7
1004676a:	bd80      	pop	{r7, pc}
1004676c:	48400000 	.word	0x48400000

10046770 <LL_RCC_LSE_EnableBypass>:
  * @brief  Enable external clock source (LSE bypass).
  * @rmtoll CR         LSEBYP        LL_RCC_LSE_EnableBypass
  * @retval None
  */
__STATIC_INLINE void LL_RCC_LSE_EnableBypass(void)
{
10046770:	b580      	push	{r7, lr}
10046772:	af00      	add	r7, sp, #0
  SET_BIT(RCC->CR, RCC_CR_LSEBYP);
10046774:	4b04      	ldr	r3, [pc, #16]	@ (10046788 <LL_RCC_LSE_EnableBypass+0x18>)
10046776:	681a      	ldr	r2, [r3, #0]
10046778:	4b03      	ldr	r3, [pc, #12]	@ (10046788 <LL_RCC_LSE_EnableBypass+0x18>)
1004677a:	2140      	movs	r1, #64	@ 0x40
1004677c:	430a      	orrs	r2, r1
1004677e:	601a      	str	r2, [r3, #0]
}
10046780:	46c0      	nop			@ (mov r8, r8)
10046782:	46bd      	mov	sp, r7
10046784:	bd80      	pop	{r7, pc}
10046786:	46c0      	nop			@ (mov r8, r8)
10046788:	48400000 	.word	0x48400000

1004678c <LL_RCC_LSE_DisableBypass>:
  * @brief  Disable external clock source (LSE bypass).
  * @rmtoll CR         LSEBYP        LL_RCC_LSE_DisableBypass
  * @retval None
  */
__STATIC_INLINE void LL_RCC_LSE_DisableBypass(void)
{
1004678c:	b580      	push	{r7, lr}
1004678e:	af00      	add	r7, sp, #0
  CLEAR_BIT(RCC->CR, RCC_CR_LSEBYP);
10046790:	4b04      	ldr	r3, [pc, #16]	@ (100467a4 <LL_RCC_LSE_DisableBypass+0x18>)
10046792:	681a      	ldr	r2, [r3, #0]
10046794:	4b03      	ldr	r3, [pc, #12]	@ (100467a4 <LL_RCC_LSE_DisableBypass+0x18>)
10046796:	2140      	movs	r1, #64	@ 0x40
10046798:	438a      	bics	r2, r1
1004679a:	601a      	str	r2, [r3, #0]
}
1004679c:	46c0      	nop			@ (mov r8, r8)
1004679e:	46bd      	mov	sp, r7
100467a0:	bd80      	pop	{r7, pc}
100467a2:	46c0      	nop			@ (mov r8, r8)
100467a4:	48400000 	.word	0x48400000

100467a8 <LL_RCC_LSE_IsBypassEnabled>:
  * @brief  Check if LSE bypass configuration is enabled.
  * @rmtoll CR         LSEBYP        LL_RCC_LSE_IsBypassEnabled
  * @retval State of bit (1 or 0).
  */
__STATIC_INLINE uint32_t LL_RCC_LSE_IsBypassEnabled(void)
{
100467a8:	b580      	push	{r7, lr}
100467aa:	af00      	add	r7, sp, #0
  return ((READ_BIT(RCC->CR, RCC_CR_LSEBYP) == (RCC_CR_LSEBYP)) ? 1UL : 0UL);
100467ac:	4b05      	ldr	r3, [pc, #20]	@ (100467c4 <LL_RCC_LSE_IsBypassEnabled+0x1c>)
100467ae:	681b      	ldr	r3, [r3, #0]
100467b0:	2240      	movs	r2, #64	@ 0x40
100467b2:	4013      	ands	r3, r2
100467b4:	2b40      	cmp	r3, #64	@ 0x40
100467b6:	d101      	bne.n	100467bc <LL_RCC_LSE_IsBypassEnabled+0x14>
100467b8:	2301      	movs	r3, #1
100467ba:	e000      	b.n	100467be <LL_RCC_LSE_IsBypassEnabled+0x16>
100467bc:	2300      	movs	r3, #0
}
100467be:	0018      	movs	r0, r3
100467c0:	46bd      	mov	sp, r7
100467c2:	bd80      	pop	{r7, pc}
100467c4:	48400000 	.word	0x48400000

100467c8 <LL_RCC_LSE_SetDriveCapability>:
  *         @arg @ref LL_RCC_LSEDRIVE_MEDIUMHIGH
  *         @arg @ref LL_RCC_LSEDRIVE_HIGH
  * @retval None
  */
__STATIC_INLINE void LL_RCC_LSE_SetDriveCapability(uint32_t LSEDrive)
{
100467c8:	b580      	push	{r7, lr}
100467ca:	b082      	sub	sp, #8
100467cc:	af00      	add	r7, sp, #0
100467ce:	6078      	str	r0, [r7, #4]
  MODIFY_REG(RCC->CSSWCR, RCC_CSSWCR_LSEDRV, LSEDrive);
100467d0:	4b06      	ldr	r3, [pc, #24]	@ (100467ec <LL_RCC_LSE_SetDriveCapability+0x24>)
100467d2:	68db      	ldr	r3, [r3, #12]
100467d4:	2260      	movs	r2, #96	@ 0x60
100467d6:	4393      	bics	r3, r2
100467d8:	0019      	movs	r1, r3
100467da:	4b04      	ldr	r3, [pc, #16]	@ (100467ec <LL_RCC_LSE_SetDriveCapability+0x24>)
100467dc:	687a      	ldr	r2, [r7, #4]
100467de:	430a      	orrs	r2, r1
100467e0:	60da      	str	r2, [r3, #12]
}
100467e2:	46c0      	nop			@ (mov r8, r8)
100467e4:	46bd      	mov	sp, r7
100467e6:	b002      	add	sp, #8
100467e8:	bd80      	pop	{r7, pc}
100467ea:	46c0      	nop			@ (mov r8, r8)
100467ec:	48400000 	.word	0x48400000

100467f0 <LL_RCC_LSI_Enable>:
  * @brief  Enable LSI Oscillator
  * @rmtoll CR          LSION         LL_RCC_LSI_Enable
  * @retval None
  */
__STATIC_INLINE void LL_RCC_LSI_Enable(void)
{
100467f0:	b580      	push	{r7, lr}
100467f2:	af00      	add	r7, sp, #0
  SET_BIT(RCC->CR, RCC_CR_LSION);
100467f4:	4b04      	ldr	r3, [pc, #16]	@ (10046808 <LL_RCC_LSI_Enable+0x18>)
100467f6:	681a      	ldr	r2, [r3, #0]
100467f8:	4b03      	ldr	r3, [pc, #12]	@ (10046808 <LL_RCC_LSI_Enable+0x18>)
100467fa:	2104      	movs	r1, #4
100467fc:	430a      	orrs	r2, r1
100467fe:	601a      	str	r2, [r3, #0]
}
10046800:	46c0      	nop			@ (mov r8, r8)
10046802:	46bd      	mov	sp, r7
10046804:	bd80      	pop	{r7, pc}
10046806:	46c0      	nop			@ (mov r8, r8)
10046808:	48400000 	.word	0x48400000

1004680c <LL_RCC_LSI_Disable>:
  * @brief  Disable LSI Oscillator
  * @rmtoll CR          LSION         LL_RCC_LSI_Disable
  * @retval None
  */
__STATIC_INLINE void LL_RCC_LSI_Disable(void)
{
1004680c:	b580      	push	{r7, lr}
1004680e:	af00      	add	r7, sp, #0
  CLEAR_BIT(RCC->CR, RCC_CR_LSION);
10046810:	4b04      	ldr	r3, [pc, #16]	@ (10046824 <LL_RCC_LSI_Disable+0x18>)
10046812:	681a      	ldr	r2, [r3, #0]
10046814:	4b03      	ldr	r3, [pc, #12]	@ (10046824 <LL_RCC_LSI_Disable+0x18>)
10046816:	2104      	movs	r1, #4
10046818:	438a      	bics	r2, r1
1004681a:	601a      	str	r2, [r3, #0]
}
1004681c:	46c0      	nop			@ (mov r8, r8)
1004681e:	46bd      	mov	sp, r7
10046820:	bd80      	pop	{r7, pc}
10046822:	46c0      	nop			@ (mov r8, r8)
10046824:	48400000 	.word	0x48400000

10046828 <LL_RCC_LSI_IsReady>:
  * @brief  Check if LSI is Ready
  * @rmtoll CR          LSIRDY        LL_RCC_LSI_IsReady
  * @retval State of bit (1 or 0).
  */
__STATIC_INLINE uint32_t LL_RCC_LSI_IsReady(void)
{
10046828:	b580      	push	{r7, lr}
1004682a:	af00      	add	r7, sp, #0
  return ((READ_BIT(RCC->CR, RCC_CR_LSIRDY) == (RCC_CR_LSIRDY)) ? 1UL : 0UL);
1004682c:	4b05      	ldr	r3, [pc, #20]	@ (10046844 <LL_RCC_LSI_IsReady+0x1c>)
1004682e:	681b      	ldr	r3, [r3, #0]
10046830:	2208      	movs	r2, #8
10046832:	4013      	ands	r3, r2
10046834:	2b08      	cmp	r3, #8
10046836:	d101      	bne.n	1004683c <LL_RCC_LSI_IsReady+0x14>
10046838:	2301      	movs	r3, #1
1004683a:	e000      	b.n	1004683e <LL_RCC_LSI_IsReady+0x16>
1004683c:	2300      	movs	r3, #0
}
1004683e:	0018      	movs	r0, r3
10046840:	46bd      	mov	sp, r7
10046842:	bd80      	pop	{r7, pc}
10046844:	48400000 	.word	0x48400000

10046848 <LL_RCC_RC64MPLL_Enable>:
  * @brief  Enable RC64MPLL
  * @rmtoll CR           HSIPLLON         LL_RCC_RC64MPLL_Enable
  * @retval None
  */
__STATIC_INLINE void LL_RCC_RC64MPLL_Enable(void)
{
10046848:	b580      	push	{r7, lr}
1004684a:	af00      	add	r7, sp, #0
  SET_BIT(RCC->CR, RCC_CR_HSIPLLON);
1004684c:	4b04      	ldr	r3, [pc, #16]	@ (10046860 <LL_RCC_RC64MPLL_Enable+0x18>)
1004684e:	681a      	ldr	r2, [r3, #0]
10046850:	4b03      	ldr	r3, [pc, #12]	@ (10046860 <LL_RCC_RC64MPLL_Enable+0x18>)
10046852:	2180      	movs	r1, #128	@ 0x80
10046854:	0189      	lsls	r1, r1, #6
10046856:	430a      	orrs	r2, r1
10046858:	601a      	str	r2, [r3, #0]
}
1004685a:	46c0      	nop			@ (mov r8, r8)
1004685c:	46bd      	mov	sp, r7
1004685e:	bd80      	pop	{r7, pc}
10046860:	48400000 	.word	0x48400000

10046864 <LL_RCC_RC64MPLL_Disable>:
  * @note Cannot be disabled if the RC64MPLL clock is used as the system clock
  * @rmtoll CR           HSIPLLON         LL_RCC_RC64MPLL_Disable
  * @retval None
  */
__STATIC_INLINE void LL_RCC_RC64MPLL_Disable(void)
{
10046864:	b580      	push	{r7, lr}
10046866:	af00      	add	r7, sp, #0
  CLEAR_BIT(RCC->CR, RCC_CR_HSIPLLON);
10046868:	4b04      	ldr	r3, [pc, #16]	@ (1004687c <LL_RCC_RC64MPLL_Disable+0x18>)
1004686a:	681a      	ldr	r2, [r3, #0]
1004686c:	4b03      	ldr	r3, [pc, #12]	@ (1004687c <LL_RCC_RC64MPLL_Disable+0x18>)
1004686e:	4904      	ldr	r1, [pc, #16]	@ (10046880 <LL_RCC_RC64MPLL_Disable+0x1c>)
10046870:	400a      	ands	r2, r1
10046872:	601a      	str	r2, [r3, #0]
}
10046874:	46c0      	nop			@ (mov r8, r8)
10046876:	46bd      	mov	sp, r7
10046878:	bd80      	pop	{r7, pc}
1004687a:	46c0      	nop			@ (mov r8, r8)
1004687c:	48400000 	.word	0x48400000
10046880:	ffffdfff 	.word	0xffffdfff

10046884 <LL_RCC_RC64MPLL_IsReady>:
  * @brief  Check if RC64MPLL is Ready
  * @rmtoll CR           HSIPLLRDY        LL_RCC_RC64MPLL_IsReady
  * @retval State of bit (1 or 0).
  */
__STATIC_INLINE uint32_t LL_RCC_RC64MPLL_IsReady(void)
{
10046884:	b580      	push	{r7, lr}
10046886:	af00      	add	r7, sp, #0
  return ((READ_BIT(RCC->CR, RCC_CR_HSIPLLRDY) == (RCC_CR_HSIPLLRDY)) ? 1UL : 0UL);
10046888:	4b07      	ldr	r3, [pc, #28]	@ (100468a8 <LL_RCC_RC64MPLL_IsReady+0x24>)
1004688a:	681a      	ldr	r2, [r3, #0]
1004688c:	2380      	movs	r3, #128	@ 0x80
1004688e:	01db      	lsls	r3, r3, #7
10046890:	401a      	ands	r2, r3
10046892:	2380      	movs	r3, #128	@ 0x80
10046894:	01db      	lsls	r3, r3, #7
10046896:	429a      	cmp	r2, r3
10046898:	d101      	bne.n	1004689e <LL_RCC_RC64MPLL_IsReady+0x1a>
1004689a:	2301      	movs	r3, #1
1004689c:	e000      	b.n	100468a0 <LL_RCC_RC64MPLL_IsReady+0x1c>
1004689e:	2300      	movs	r3, #0
}
100468a0:	0018      	movs	r0, r3
100468a2:	46bd      	mov	sp, r7
100468a4:	bd80      	pop	{r7, pc}
100468a6:	46c0      	nop			@ (mov r8, r8)
100468a8:	48400000 	.word	0x48400000

100468ac <LL_RCC_SetRC64MPLLPrescaler>:
  *         @arg @ref LL_RCC_RC64MPLL_DIV_32
  *         @arg @ref LL_RCC_RC64MPLL_DIV_64
  * @retval None
  */
__STATIC_INLINE void LL_RCC_SetRC64MPLLPrescaler(uint32_t Prescaler)
{
100468ac:	b580      	push	{r7, lr}
100468ae:	b082      	sub	sp, #8
100468b0:	af00      	add	r7, sp, #0
100468b2:	6078      	str	r0, [r7, #4]
  MODIFY_REG(RCC->CFGR, RCC_CFGR_CLKSYSDIV, Prescaler);
100468b4:	4b06      	ldr	r3, [pc, #24]	@ (100468d0 <LL_RCC_SetRC64MPLLPrescaler+0x24>)
100468b6:	689b      	ldr	r3, [r3, #8]
100468b8:	22e0      	movs	r2, #224	@ 0xe0
100468ba:	4393      	bics	r3, r2
100468bc:	0019      	movs	r1, r3
100468be:	4b04      	ldr	r3, [pc, #16]	@ (100468d0 <LL_RCC_SetRC64MPLLPrescaler+0x24>)
100468c0:	687a      	ldr	r2, [r7, #4]
100468c2:	430a      	orrs	r2, r1
100468c4:	609a      	str	r2, [r3, #8]
}
100468c6:	46c0      	nop			@ (mov r8, r8)
100468c8:	46bd      	mov	sp, r7
100468ca:	b002      	add	sp, #8
100468cc:	bd80      	pop	{r7, pc}
100468ce:	46c0      	nop			@ (mov r8, r8)
100468d0:	48400000 	.word	0x48400000

100468d4 <HAL_RCC_OscConfig>:
  * @param  RCC_OscInitStruct  pointer to a @ref RCC_OscInitTypeDef structure that
  *         contains the configuration information for the RCC Oscillators.
  * @retval HAL status
  */
HAL_StatusTypeDef HAL_RCC_OscConfig(RCC_OscInitTypeDef  *RCC_OscInitStruct)
{
100468d4:	b580      	push	{r7, lr}
100468d6:	b084      	sub	sp, #16
100468d8:	af00      	add	r7, sp, #0
100468da:	6078      	str	r0, [r7, #4]
  uint32_t tickstart;

  /* Check Null pointer */
  if (RCC_OscInitStruct == NULL)
100468dc:	687b      	ldr	r3, [r7, #4]
100468de:	2b00      	cmp	r3, #0
100468e0:	d101      	bne.n	100468e6 <HAL_RCC_OscConfig+0x12>
  {
    return HAL_ERROR;
100468e2:	2301      	movs	r3, #1
100468e4:	e146      	b.n	10046b74 <HAL_RCC_OscConfig+0x2a0>

  /* Check the parameters */
  assert_param(IS_RCC_OSCILLATORTYPE(RCC_OscInitStruct->OscillatorType));

  /*------------------------------- HSI Configuration ------------------------*/
  if (((RCC_OscInitStruct->OscillatorType) & RCC_OSCILLATORTYPE_HSI) == RCC_OSCILLATORTYPE_HSI)
100468e6:	687b      	ldr	r3, [r7, #4]
100468e8:	681b      	ldr	r3, [r3, #0]
100468ea:	2210      	movs	r2, #16
100468ec:	4013      	ands	r3, r2
100468ee:	d033      	beq.n	10046958 <HAL_RCC_OscConfig+0x84>
  {
    assert_param(IS_RCC_HSI(RCC_OscInitStruct->HSIState));
    __HAL_RCC_HSI_CONFIG(RCC_OscInitStruct->HSIState);
100468f0:	687b      	ldr	r3, [r7, #4]
100468f2:	689b      	ldr	r3, [r3, #8]
100468f4:	2b00      	cmp	r3, #0
100468f6:	d102      	bne.n	100468fe <HAL_RCC_OscConfig+0x2a>
100468f8:	f7ff fe96 	bl	10046628 <LL_RCC_HSI_Enable>
100468fc:	e001      	b.n	10046902 <HAL_RCC_OscConfig+0x2e>
100468fe:	f7ff fea7 	bl	10046650 <LL_RCC_HSI_Disable>

    if(RCC_OscInitStruct->HSIState == RCC_HSI_OFF)
10046902:	687b      	ldr	r3, [r7, #4]
10046904:	689b      	ldr	r3, [r3, #8]
10046906:	2b04      	cmp	r3, #4
10046908:	d113      	bne.n	10046932 <HAL_RCC_OscConfig+0x5e>
    {
      /* Get Start Tick*/
      tickstart = HAL_GetTick();
1004690a:	f7fd fb63 	bl	10043fd4 <HAL_GetTick>
1004690e:	0003      	movs	r3, r0
10046910:	60fb      	str	r3, [r7, #12]

      /* Wait till HSI is disabled */
      while (LL_RCC_HSI_IsReady() == 1U)
10046912:	e008      	b.n	10046926 <HAL_RCC_OscConfig+0x52>
      {
        if ((HAL_GetTick() - tickstart) > HSE_TIMEOUT_VALUE)
10046914:	f7fd fb5e 	bl	10043fd4 <HAL_GetTick>
10046918:	0002      	movs	r2, r0
1004691a:	68fb      	ldr	r3, [r7, #12]
1004691c:	1ad3      	subs	r3, r2, r3
1004691e:	2b64      	cmp	r3, #100	@ 0x64
10046920:	d901      	bls.n	10046926 <HAL_RCC_OscConfig+0x52>
        {
          return HAL_TIMEOUT;
10046922:	2303      	movs	r3, #3
10046924:	e126      	b.n	10046b74 <HAL_RCC_OscConfig+0x2a0>
      while (LL_RCC_HSI_IsReady() == 1U)
10046926:	f7ff fea7 	bl	10046678 <LL_RCC_HSI_IsReady>
1004692a:	0003      	movs	r3, r0
1004692c:	2b01      	cmp	r3, #1
1004692e:	d0f1      	beq.n	10046914 <HAL_RCC_OscConfig+0x40>
10046930:	e012      	b.n	10046958 <HAL_RCC_OscConfig+0x84>
      }
    }
    else
    {
      /* Get Start Tick*/
      tickstart = HAL_GetTick();
10046932:	f7fd fb4f 	bl	10043fd4 <HAL_GetTick>
10046936:	0003      	movs	r3, r0
10046938:	60fb      	str	r3, [r7, #12]

      /* Wait till HSI is enabled */
      while (LL_RCC_HSI_IsReady() != 1U)
1004693a:	e008      	b.n	1004694e <HAL_RCC_OscConfig+0x7a>
      {
        if ((HAL_GetTick() - tickstart) > HSE_TIMEOUT_VALUE)
1004693c:	f7fd fb4a 	bl	10043fd4 <HAL_GetTick>
10046940:	0002      	movs	r2, r0
10046942:	68fb      	ldr	r3, [r7, #12]
10046944:	1ad3      	subs	r3, r2, r3
10046946:	2b64      	cmp	r3, #100	@ 0x64
10046948:	d901      	bls.n	1004694e <HAL_RCC_OscConfig+0x7a>
        {
          return HAL_TIMEOUT;
1004694a:	2303      	movs	r3, #3
1004694c:	e112      	b.n	10046b74 <HAL_RCC_OscConfig+0x2a0>
      while (LL_RCC_HSI_IsReady() != 1U)
1004694e:	f7ff fe93 	bl	10046678 <LL_RCC_HSI_IsReady>
10046952:	0003      	movs	r3, r0
10046954:	2b01      	cmp	r3, #1
10046956:	d1f1      	bne.n	1004693c <HAL_RCC_OscConfig+0x68>
      }
    }
  }

  /*------------------------------- HSE Configuration ------------------------*/
  if (((RCC_OscInitStruct->OscillatorType) & RCC_OSCILLATORTYPE_HSE) == RCC_OSCILLATORTYPE_HSE)
10046958:	687b      	ldr	r3, [r7, #4]
1004695a:	681b      	ldr	r3, [r3, #0]
1004695c:	2201      	movs	r2, #1
1004695e:	4013      	ands	r3, r2
10046960:	d03f      	beq.n	100469e2 <HAL_RCC_OscConfig+0x10e>
  {
    /* Check the parameters */
    assert_param(IS_RCC_HSE(RCC_OscInitStruct->HSEState));

    /* Set HSE Capacitor Tuning */
    LL_RCC_HSE_SetCapacitorTuning(CFG_HW_RCC_HSE_CAPACITOR_TUNE);
10046962:	2020      	movs	r0, #32
10046964:	f7ff fdf4 	bl	10046550 <LL_RCC_HSE_SetCapacitorTuning>

    /* Set HSE startup Current */
    LL_RCC_HSE_SetStartupCurrent(0);
10046968:	2000      	movs	r0, #0
1004696a:	f7ff fe29 	bl	100465c0 <LL_RCC_HSE_SetStartupCurrent>

    /*  Set HSE Amplitude Threshold */
    LL_RCC_HSE_SetAmplitudeThreshold(0);
1004696e:	2000      	movs	r0, #0
10046970:	f7ff fe40 	bl	100465f4 <LL_RCC_HSE_SetAmplitudeThreshold>

    /* Set HSE Current Control */
    LL_RCC_HSE_SetCurrentControl(40);
10046974:	2028      	movs	r0, #40	@ 0x28
10046976:	f7ff fe0b 	bl	10046590 <LL_RCC_HSE_SetCurrentControl>

    /* Set the new HSE configuration ---------------------------------------*/
    __HAL_RCC_HSE_CONFIG(RCC_OscInitStruct->HSEState);
1004697a:	687b      	ldr	r3, [r7, #4]
1004697c:	685a      	ldr	r2, [r3, #4]
1004697e:	2380      	movs	r3, #128	@ 0x80
10046980:	025b      	lsls	r3, r3, #9
10046982:	429a      	cmp	r2, r3
10046984:	d102      	bne.n	1004698c <HAL_RCC_OscConfig+0xb8>
10046986:	f7ff fdb1 	bl	100464ec <LL_RCC_HSE_Enable>
1004698a:	e001      	b.n	10046990 <HAL_RCC_OscConfig+0xbc>
1004698c:	f7ff fdbc 	bl	10046508 <LL_RCC_HSE_Disable>

    /* Check the HSE State */
    if (RCC_OscInitStruct->HSEState != RCC_HSE_OFF)
10046990:	687b      	ldr	r3, [r7, #4]
10046992:	685b      	ldr	r3, [r3, #4]
10046994:	2b00      	cmp	r3, #0
10046996:	d012      	beq.n	100469be <HAL_RCC_OscConfig+0xea>
    {
      /* Get Start Tick*/
      tickstart = HAL_GetTick();
10046998:	f7fd fb1c 	bl	10043fd4 <HAL_GetTick>
1004699c:	0003      	movs	r3, r0
1004699e:	60fb      	str	r3, [r7, #12]

      /* Wait till HSE is ready */
      while (LL_RCC_HSE_IsReady() == 0U)
100469a0:	e008      	b.n	100469b4 <HAL_RCC_OscConfig+0xe0>
      {
        if ((HAL_GetTick() - tickstart) > HSE_TIMEOUT_VALUE)
100469a2:	f7fd fb17 	bl	10043fd4 <HAL_GetTick>
100469a6:	0002      	movs	r2, r0
100469a8:	68fb      	ldr	r3, [r7, #12]
100469aa:	1ad3      	subs	r3, r2, r3
100469ac:	2b64      	cmp	r3, #100	@ 0x64
100469ae:	d901      	bls.n	100469b4 <HAL_RCC_OscConfig+0xe0>
        {
          return HAL_TIMEOUT;
100469b0:	2303      	movs	r3, #3
100469b2:	e0df      	b.n	10046b74 <HAL_RCC_OscConfig+0x2a0>
      while (LL_RCC_HSE_IsReady() == 0U)
100469b4:	f7ff fdb8 	bl	10046528 <LL_RCC_HSE_IsReady>
100469b8:	1e03      	subs	r3, r0, #0
100469ba:	d0f2      	beq.n	100469a2 <HAL_RCC_OscConfig+0xce>
100469bc:	e011      	b.n	100469e2 <HAL_RCC_OscConfig+0x10e>
      }
    }
    else
    {
      /* Get Start Tick*/
      tickstart = HAL_GetTick();
100469be:	f7fd fb09 	bl	10043fd4 <HAL_GetTick>
100469c2:	0003      	movs	r3, r0
100469c4:	60fb      	str	r3, [r7, #12]

      /* Wait till HSE is disabled */
      while (LL_RCC_HSE_IsReady() != 0U)
100469c6:	e008      	b.n	100469da <HAL_RCC_OscConfig+0x106>
      {
        if ((HAL_GetTick() - tickstart) > HSE_TIMEOUT_VALUE)
100469c8:	f7fd fb04 	bl	10043fd4 <HAL_GetTick>
100469cc:	0002      	movs	r2, r0
100469ce:	68fb      	ldr	r3, [r7, #12]
100469d0:	1ad3      	subs	r3, r2, r3
100469d2:	2b64      	cmp	r3, #100	@ 0x64
100469d4:	d901      	bls.n	100469da <HAL_RCC_OscConfig+0x106>
        {
          return HAL_TIMEOUT;
100469d6:	2303      	movs	r3, #3
100469d8:	e0cc      	b.n	10046b74 <HAL_RCC_OscConfig+0x2a0>
      while (LL_RCC_HSE_IsReady() != 0U)
100469da:	f7ff fda5 	bl	10046528 <LL_RCC_HSE_IsReady>
100469de:	1e03      	subs	r3, r0, #0
100469e0:	d1f2      	bne.n	100469c8 <HAL_RCC_OscConfig+0xf4>
      }
    }
  }

  /*--------------------------------- LSI Configuration -----------------------------*/
  if (((RCC_OscInitStruct->OscillatorType) & RCC_OSCILLATORTYPE_LSI) == RCC_OSCILLATORTYPE_LSI)
100469e2:	687b      	ldr	r3, [r7, #4]
100469e4:	681b      	ldr	r3, [r3, #0]
100469e6:	2204      	movs	r2, #4
100469e8:	4013      	ands	r3, r2
100469ea:	d03a      	beq.n	10046a62 <HAL_RCC_OscConfig+0x18e>
  {
    /* Check the parameters */
    assert_param(IS_RCC_LSI(RCC_OscInitStruct->LSIState));

    /* Check the LSI State */
    if (RCC_OscInitStruct->LSIState != RCC_LSI_OFF)
100469ec:	687b      	ldr	r3, [r7, #4]
100469ee:	691b      	ldr	r3, [r3, #16]
100469f0:	2b00      	cmp	r3, #0
100469f2:	d022      	beq.n	10046a3a <HAL_RCC_OscConfig+0x166>
    {
      /* Disable the LSI */
      __HAL_RCC_LSI_DISABLE();
100469f4:	f7ff ff0a 	bl	1004680c <LL_RCC_LSI_Disable>
      while (__HAL_RCC_GET_LSI_READYFLAG() != 0U);
100469f8:	46c0      	nop			@ (mov r8, r8)
100469fa:	f7ff ff15 	bl	10046828 <LL_RCC_LSI_IsReady>
100469fe:	1e03      	subs	r3, r0, #0
10046a00:	d1fb      	bne.n	100469fa <HAL_RCC_OscConfig+0x126>

      /* Disable the LSE */
      __HAL_RCC_LSE_CONFIG(RCC_LSE_OFF);
10046a02:	f7ff fe97 	bl	10046734 <LL_RCC_LSE_Disable>

      /* Configure the Low Speed Clock to LSI */
      LL_RCC_LSCO_SetSource(LL_RCC_LSCO_CLKSOURCE_LSI);
10046a06:	2380      	movs	r3, #128	@ 0x80
10046a08:	025b      	lsls	r3, r3, #9
10046a0a:	0018      	movs	r0, r3
10046a0c:	f7ff fe6e 	bl	100466ec <LL_RCC_LSCO_SetSource>

      /*  Enable the Internal Low Speed oscillator (LSI)  */
      __HAL_RCC_LSI_ENABLE();
10046a10:	f7ff feee 	bl	100467f0 <LL_RCC_LSI_Enable>

      /* Get Start Tick*/
      tickstart = HAL_GetTick();
10046a14:	f7fd fade 	bl	10043fd4 <HAL_GetTick>
10046a18:	0003      	movs	r3, r0
10046a1a:	60fb      	str	r3, [r7, #12]

      /* Wait till LSI is ready */
      while (__HAL_RCC_GET_LSI_READYFLAG() == 0U)
10046a1c:	e008      	b.n	10046a30 <HAL_RCC_OscConfig+0x15c>
      {
        if ((HAL_GetTick() - tickstart) > LSI_TIMEOUT_VALUE)
10046a1e:	f7fd fad9 	bl	10043fd4 <HAL_GetTick>
10046a22:	0002      	movs	r2, r0
10046a24:	68fb      	ldr	r3, [r7, #12]
10046a26:	1ad3      	subs	r3, r2, r3
10046a28:	2b02      	cmp	r3, #2
10046a2a:	d901      	bls.n	10046a30 <HAL_RCC_OscConfig+0x15c>
        {
          return HAL_TIMEOUT;
10046a2c:	2303      	movs	r3, #3
10046a2e:	e0a1      	b.n	10046b74 <HAL_RCC_OscConfig+0x2a0>
      while (__HAL_RCC_GET_LSI_READYFLAG() == 0U)
10046a30:	f7ff fefa 	bl	10046828 <LL_RCC_LSI_IsReady>
10046a34:	1e03      	subs	r3, r0, #0
10046a36:	d0f2      	beq.n	10046a1e <HAL_RCC_OscConfig+0x14a>
10046a38:	e013      	b.n	10046a62 <HAL_RCC_OscConfig+0x18e>
    }
    else
    {

      /* Disable the Internal Low Speed oscillator (LSI). */
      __HAL_RCC_LSI_DISABLE();
10046a3a:	f7ff fee7 	bl	1004680c <LL_RCC_LSI_Disable>

      /* Get Start Tick*/
      tickstart = HAL_GetTick();
10046a3e:	f7fd fac9 	bl	10043fd4 <HAL_GetTick>
10046a42:	0003      	movs	r3, r0
10046a44:	60fb      	str	r3, [r7, #12]

      /* Wait till LSI is disabled */
      while (__HAL_RCC_GET_LSI_READYFLAG() != 0U)
10046a46:	e008      	b.n	10046a5a <HAL_RCC_OscConfig+0x186>
      {
        if ((HAL_GetTick() - tickstart) > LSI_TIMEOUT_VALUE)
10046a48:	f7fd fac4 	bl	10043fd4 <HAL_GetTick>
10046a4c:	0002      	movs	r2, r0
10046a4e:	68fb      	ldr	r3, [r7, #12]
10046a50:	1ad3      	subs	r3, r2, r3
10046a52:	2b02      	cmp	r3, #2
10046a54:	d901      	bls.n	10046a5a <HAL_RCC_OscConfig+0x186>
        {
          return HAL_TIMEOUT;
10046a56:	2303      	movs	r3, #3
10046a58:	e08c      	b.n	10046b74 <HAL_RCC_OscConfig+0x2a0>
      while (__HAL_RCC_GET_LSI_READYFLAG() != 0U)
10046a5a:	f7ff fee5 	bl	10046828 <LL_RCC_LSI_IsReady>
10046a5e:	1e03      	subs	r3, r0, #0
10046a60:	d1f2      	bne.n	10046a48 <HAL_RCC_OscConfig+0x174>
      }
    }
  }

  /*------------------------------ LSE Configuration -------------------------*/
  if (((RCC_OscInitStruct->OscillatorType) & RCC_OSCILLATORTYPE_LSE) == RCC_OSCILLATORTYPE_LSE)
10046a62:	687b      	ldr	r3, [r7, #4]
10046a64:	681b      	ldr	r3, [r3, #0]
10046a66:	2202      	movs	r2, #2
10046a68:	4013      	ands	r3, r2
10046a6a:	d049      	beq.n	10046b00 <HAL_RCC_OscConfig+0x22c>

    /* Check the parameters */
    assert_param(IS_RCC_LSE(RCC_OscInitStruct->LSEState));

    /* Disable LSI */
    __HAL_RCC_LSI_DISABLE();
10046a6c:	f7ff fece 	bl	1004680c <LL_RCC_LSI_Disable>

    /* Disable LSE */
    __HAL_RCC_LSE_CONFIG(RCC_LSE_OFF);
10046a70:	f7ff fe60 	bl	10046734 <LL_RCC_LSE_Disable>
    while (__HAL_RCC_GET_LSE_READYFLAG() != 0);
10046a74:	46c0      	nop			@ (mov r8, r8)
10046a76:	f7ff fe6b 	bl	10046750 <LL_RCC_LSE_IsReady>
10046a7a:	1e03      	subs	r3, r0, #0
10046a7c:	d1fb      	bne.n	10046a76 <HAL_RCC_OscConfig+0x1a2>

    /* Configure the PB12 and PB13 in NO PULL mode */
    LL_PWR_SetNoPullB(LL_PWR_GPIO_BIT_12 |
10046a7e:	23c0      	movs	r3, #192	@ 0xc0
10046a80:	019b      	lsls	r3, r3, #6
10046a82:	0018      	movs	r0, r3
10046a84:	f7ff fd1a 	bl	100464bc <LL_PWR_SetNoPullB>
                      LL_PWR_GPIO_BIT_13);

    /* Configure the Low Speed Clock to LSE */
    LL_RCC_LSCO_SetSource(LL_RCC_LSCO_CLKSOURCE_LSE);
10046a88:	2380      	movs	r3, #128	@ 0x80
10046a8a:	021b      	lsls	r3, r3, #8
10046a8c:	0018      	movs	r0, r3
10046a8e:	f7ff fe2d 	bl	100466ec <LL_RCC_LSCO_SetSource>

    /* Set LSE oscillator drive capability */
    __HAL_RCC_LSEDRIVE_CONFIG(RCC_LSEDRIVE_MEDIUMLOW);
10046a92:	2020      	movs	r0, #32
10046a94:	f7ff fe98 	bl	100467c8 <LL_RCC_LSE_SetDriveCapability>

    /* Set the new LSE state */
    __HAL_RCC_LSE_CONFIG(RCC_OscInitStruct->LSEState);
10046a98:	687b      	ldr	r3, [r7, #4]
10046a9a:	68db      	ldr	r3, [r3, #12]
10046a9c:	2b10      	cmp	r3, #16
10046a9e:	d102      	bne.n	10046aa6 <HAL_RCC_OscConfig+0x1d2>
10046aa0:	f7ff fe3a 	bl	10046718 <LL_RCC_LSE_Enable>
10046aa4:	e001      	b.n	10046aaa <HAL_RCC_OscConfig+0x1d6>
10046aa6:	f7ff fe45 	bl	10046734 <LL_RCC_LSE_Disable>

    /* Check the LSE State */
    if (RCC_OscInitStruct->LSEState != RCC_LSE_OFF)
10046aaa:	687b      	ldr	r3, [r7, #4]
10046aac:	68db      	ldr	r3, [r3, #12]
10046aae:	2b00      	cmp	r3, #0
10046ab0:	d013      	beq.n	10046ada <HAL_RCC_OscConfig+0x206>
    {
      /* Get Start Tick*/
      tickstart = HAL_GetTick();
10046ab2:	f7fd fa8f 	bl	10043fd4 <HAL_GetTick>
10046ab6:	0003      	movs	r3, r0
10046ab8:	60fb      	str	r3, [r7, #12]

      /* Wait till LSE is ready */
      while (__HAL_RCC_GET_LSE_READYFLAG() == 0U)
10046aba:	e009      	b.n	10046ad0 <HAL_RCC_OscConfig+0x1fc>
      {
        if ((HAL_GetTick() - tickstart) > RCC_LSE_TIMEOUT_VALUE)
10046abc:	f7fd fa8a 	bl	10043fd4 <HAL_GetTick>
10046ac0:	0002      	movs	r2, r0
10046ac2:	68fb      	ldr	r3, [r7, #12]
10046ac4:	1ad3      	subs	r3, r2, r3
10046ac6:	4a2d      	ldr	r2, [pc, #180]	@ (10046b7c <HAL_RCC_OscConfig+0x2a8>)
10046ac8:	4293      	cmp	r3, r2
10046aca:	d901      	bls.n	10046ad0 <HAL_RCC_OscConfig+0x1fc>
        {
          return HAL_TIMEOUT;
10046acc:	2303      	movs	r3, #3
10046ace:	e051      	b.n	10046b74 <HAL_RCC_OscConfig+0x2a0>
      while (__HAL_RCC_GET_LSE_READYFLAG() == 0U)
10046ad0:	f7ff fe3e 	bl	10046750 <LL_RCC_LSE_IsReady>
10046ad4:	1e03      	subs	r3, r0, #0
10046ad6:	d0f1      	beq.n	10046abc <HAL_RCC_OscConfig+0x1e8>
10046ad8:	e012      	b.n	10046b00 <HAL_RCC_OscConfig+0x22c>
      }
    }
    else
    {
      /* Get Start Tick*/
      tickstart = HAL_GetTick();
10046ada:	f7fd fa7b 	bl	10043fd4 <HAL_GetTick>
10046ade:	0003      	movs	r3, r0
10046ae0:	60fb      	str	r3, [r7, #12]

      /* Wait till LSE is disabled */
      while (__HAL_RCC_GET_LSE_READYFLAG() != 0U)
10046ae2:	e009      	b.n	10046af8 <HAL_RCC_OscConfig+0x224>
      {
        if ((HAL_GetTick() - tickstart) > RCC_LSE_TIMEOUT_VALUE)
10046ae4:	f7fd fa76 	bl	10043fd4 <HAL_GetTick>
10046ae8:	0002      	movs	r2, r0
10046aea:	68fb      	ldr	r3, [r7, #12]
10046aec:	1ad3      	subs	r3, r2, r3
10046aee:	4a23      	ldr	r2, [pc, #140]	@ (10046b7c <HAL_RCC_OscConfig+0x2a8>)
10046af0:	4293      	cmp	r3, r2
10046af2:	d901      	bls.n	10046af8 <HAL_RCC_OscConfig+0x224>
        {
          return HAL_TIMEOUT;
10046af4:	2303      	movs	r3, #3
10046af6:	e03d      	b.n	10046b74 <HAL_RCC_OscConfig+0x2a0>
      while (__HAL_RCC_GET_LSE_READYFLAG() != 0U)
10046af8:	f7ff fe2a 	bl	10046750 <LL_RCC_LSE_IsReady>
10046afc:	1e03      	subs	r3, r0, #0
10046afe:	d1f1      	bne.n	10046ae4 <HAL_RCC_OscConfig+0x210>
      }
    }
  }

  /*------------------------------ LSE Bypass Configuration ------------------*/
  if (((RCC_OscInitStruct->OscillatorType) & RCC_OSCILLATORTYPE_LSE_BYPASS) == RCC_OSCILLATORTYPE_LSE_BYPASS)
10046b00:	687b      	ldr	r3, [r7, #4]
10046b02:	681b      	ldr	r3, [r3, #0]
10046b04:	2208      	movs	r2, #8
10046b06:	4013      	ands	r3, r2
10046b08:	d033      	beq.n	10046b72 <HAL_RCC_OscConfig+0x29e>

    /* Check the parameters */
    assert_param(IS_RCC_LSE_BYPASS(RCC_OscInitStruct->LSEBYPASSState));

    /* Set the new LSE Bypass configuration -----------------------------------------*/
    __HAL_RCC_LSE_BYPASS_CONFIG(RCC_OscInitStruct->LSEBYPASSState);
10046b0a:	687b      	ldr	r3, [r7, #4]
10046b0c:	695b      	ldr	r3, [r3, #20]
10046b0e:	2b40      	cmp	r3, #64	@ 0x40
10046b10:	d102      	bne.n	10046b18 <HAL_RCC_OscConfig+0x244>
10046b12:	f7ff fe2d 	bl	10046770 <LL_RCC_LSE_EnableBypass>
10046b16:	e001      	b.n	10046b1c <HAL_RCC_OscConfig+0x248>
10046b18:	f7ff fe38 	bl	1004678c <LL_RCC_LSE_DisableBypass>

    /* Check the LSE Bypass State */
    if (RCC_OscInitStruct->LSEBYPASSState != RCC_LSE_OFF)
10046b1c:	687b      	ldr	r3, [r7, #4]
10046b1e:	695b      	ldr	r3, [r3, #20]
10046b20:	2b00      	cmp	r3, #0
10046b22:	d013      	beq.n	10046b4c <HAL_RCC_OscConfig+0x278>
    {
      /* Get Start Tick*/
      tickstart = HAL_GetTick();
10046b24:	f7fd fa56 	bl	10043fd4 <HAL_GetTick>
10046b28:	0003      	movs	r3, r0
10046b2a:	60fb      	str	r3, [r7, #12]

      /* Wait till LSE is ready */
      while (LL_RCC_LSE_IsBypassEnabled() == 0U)
10046b2c:	e009      	b.n	10046b42 <HAL_RCC_OscConfig+0x26e>
      {
        if ((HAL_GetTick() - tickstart) > RCC_LSE_TIMEOUT_VALUE)
10046b2e:	f7fd fa51 	bl	10043fd4 <HAL_GetTick>
10046b32:	0002      	movs	r2, r0
10046b34:	68fb      	ldr	r3, [r7, #12]
10046b36:	1ad3      	subs	r3, r2, r3
10046b38:	4a10      	ldr	r2, [pc, #64]	@ (10046b7c <HAL_RCC_OscConfig+0x2a8>)
10046b3a:	4293      	cmp	r3, r2
10046b3c:	d901      	bls.n	10046b42 <HAL_RCC_OscConfig+0x26e>
        {
          return HAL_TIMEOUT;
10046b3e:	2303      	movs	r3, #3
10046b40:	e018      	b.n	10046b74 <HAL_RCC_OscConfig+0x2a0>
      while (LL_RCC_LSE_IsBypassEnabled() == 0U)
10046b42:	f7ff fe31 	bl	100467a8 <LL_RCC_LSE_IsBypassEnabled>
10046b46:	1e03      	subs	r3, r0, #0
10046b48:	d0f1      	beq.n	10046b2e <HAL_RCC_OscConfig+0x25a>
10046b4a:	e012      	b.n	10046b72 <HAL_RCC_OscConfig+0x29e>
      }
    }
    else
    {
      /* Get Start Tick*/
      tickstart = HAL_GetTick();
10046b4c:	f7fd fa42 	bl	10043fd4 <HAL_GetTick>
10046b50:	0003      	movs	r3, r0
10046b52:	60fb      	str	r3, [r7, #12]

      /* Wait till LSE is disabled */
      while (LL_RCC_LSE_IsBypassEnabled() != 0U)
10046b54:	e009      	b.n	10046b6a <HAL_RCC_OscConfig+0x296>
      {
        if ((HAL_GetTick() - tickstart) > RCC_LSE_TIMEOUT_VALUE)
10046b56:	f7fd fa3d 	bl	10043fd4 <HAL_GetTick>
10046b5a:	0002      	movs	r2, r0
10046b5c:	68fb      	ldr	r3, [r7, #12]
10046b5e:	1ad3      	subs	r3, r2, r3
10046b60:	4a06      	ldr	r2, [pc, #24]	@ (10046b7c <HAL_RCC_OscConfig+0x2a8>)
10046b62:	4293      	cmp	r3, r2
10046b64:	d901      	bls.n	10046b6a <HAL_RCC_OscConfig+0x296>
        {
          return HAL_TIMEOUT;
10046b66:	2303      	movs	r3, #3
10046b68:	e004      	b.n	10046b74 <HAL_RCC_OscConfig+0x2a0>
      while (LL_RCC_LSE_IsBypassEnabled() != 0U)
10046b6a:	f7ff fe1d 	bl	100467a8 <LL_RCC_LSE_IsBypassEnabled>
10046b6e:	1e03      	subs	r3, r0, #0
10046b70:	d1f1      	bne.n	10046b56 <HAL_RCC_OscConfig+0x282>
        }
      }
    }
  }

  return HAL_OK;
10046b72:	2300      	movs	r3, #0
}
10046b74:	0018      	movs	r0, r3
10046b76:	46bd      	mov	sp, r7
10046b78:	b004      	add	sp, #16
10046b7a:	bd80      	pop	{r7, pc}
10046b7c:	00001388 	.word	0x00001388

10046b80 <HAL_RCC_ClockConfig>:
  *         currently used as system clock source.
  *
  * @retval HAL status
  */
HAL_StatusTypeDef HAL_RCC_ClockConfig(RCC_ClkInitTypeDef  *RCC_ClkInitStruct, uint32_t FLatency)
{
10046b80:	b580      	push	{r7, lr}
10046b82:	b084      	sub	sp, #16
10046b84:	af00      	add	r7, sp, #0
10046b86:	6078      	str	r0, [r7, #4]
10046b88:	6039      	str	r1, [r7, #0]
  uint32_t tickstart;

  /* Check Null pointer */
  if (RCC_ClkInitStruct == NULL)
10046b8a:	687b      	ldr	r3, [r7, #4]
10046b8c:	2b00      	cmp	r3, #0
10046b8e:	d101      	bne.n	10046b94 <HAL_RCC_ClockConfig+0x14>
  {
    return HAL_ERROR;
10046b90:	2301      	movs	r3, #1
10046b92:	e08e      	b.n	10046cb2 <HAL_RCC_ClockConfig+0x132>

  /* Check the parameters */
  assert_param(IS_FLASH_WAIT_STATES(FLatency));

  /* Set FALSH_WAIT_STATES_1 */
  __HAL_FLASH_SET_WAIT_STATES(FLatency);
10046b94:	4b49      	ldr	r3, [pc, #292]	@ (10046cbc <HAL_RCC_ClockConfig+0x13c>)
10046b96:	685b      	ldr	r3, [r3, #4]
10046b98:	2230      	movs	r2, #48	@ 0x30
10046b9a:	4393      	bics	r3, r2
10046b9c:	0019      	movs	r1, r3
10046b9e:	4b47      	ldr	r3, [pc, #284]	@ (10046cbc <HAL_RCC_ClockConfig+0x13c>)
10046ba0:	683a      	ldr	r2, [r7, #0]
10046ba2:	430a      	orrs	r2, r1
10046ba4:	605a      	str	r2, [r3, #4]
  /*------------------------- SYSCLK Configuration ---------------------------*/
  assert_param(IS_RCC_SYSCLKSOURCE(RCC_ClkInitStruct->SYSCLKSource));
  assert_param(IS_RCC_SYSCLK_DIVIDER(RCC_ClkInitStruct->SYSCLKDivider));

  /* HSI is selected as System Clock Source */
  if (RCC_ClkInitStruct->SYSCLKSource == RCC_SYSCLKSOURCE_HSI)
10046ba6:	687b      	ldr	r3, [r7, #4]
10046ba8:	681b      	ldr	r3, [r3, #0]
10046baa:	2b02      	cmp	r3, #2
10046bac:	d10e      	bne.n	10046bcc <HAL_RCC_ClockConfig+0x4c>
  {
    LL_RCC_HSI_Enable();
10046bae:	f7ff fd3b 	bl	10046628 <LL_RCC_HSI_Enable>
    
    /* Check the HSI ready flag */
    if (LL_RCC_HSI_IsReady() == 0U)
10046bb2:	f7ff fd61 	bl	10046678 <LL_RCC_HSI_IsReady>
10046bb6:	1e03      	subs	r3, r0, #0
10046bb8:	d101      	bne.n	10046bbe <HAL_RCC_ClockConfig+0x3e>
    {
      return HAL_ERROR;
10046bba:	2301      	movs	r3, #1
10046bbc:	e079      	b.n	10046cb2 <HAL_RCC_ClockConfig+0x132>
    }

    /* Disable the RC64MPLL*/
    __HAL_RCC_RC64MPLL_DISABLE();
10046bbe:	f7ff fe51 	bl	10046864 <LL_RCC_RC64MPLL_Disable>
    
    /* Configure the RC64MPLL multiplication factor */
    __HAL_RCC_RC64MPLL_PRESC_CONFIG(RCC_ClkInitStruct->SYSCLKDivider);
10046bc2:	687b      	ldr	r3, [r7, #4]
10046bc4:	685b      	ldr	r3, [r3, #4]
10046bc6:	0018      	movs	r0, r3
10046bc8:	f7ff fe70 	bl	100468ac <LL_RCC_SetRC64MPLLPrescaler>
  }

  /* RC64MPLL is selected as System Clock Source */
  if (RCC_ClkInitStruct->SYSCLKSource == RCC_SYSCLKSOURCE_RC64MPLL)
10046bcc:	687b      	ldr	r3, [r7, #4]
10046bce:	681b      	ldr	r3, [r3, #0]
10046bd0:	2b00      	cmp	r3, #0
10046bd2:	d124      	bne.n	10046c1e <HAL_RCC_ClockConfig+0x9e>
  {
    /* Check the HSI ready flag */
    if (LL_RCC_HSI_IsReady() == 0U)
10046bd4:	f7ff fd50 	bl	10046678 <LL_RCC_HSI_IsReady>
10046bd8:	1e03      	subs	r3, r0, #0
10046bda:	d101      	bne.n	10046be0 <HAL_RCC_ClockConfig+0x60>
    {
      return HAL_ERROR;
10046bdc:	2301      	movs	r3, #1
10046bde:	e068      	b.n	10046cb2 <HAL_RCC_ClockConfig+0x132>
    }

    /* Check the HSE ready flag */
    if (LL_RCC_HSE_IsReady() == 0U)
10046be0:	f7ff fca2 	bl	10046528 <LL_RCC_HSE_IsReady>
10046be4:	1e03      	subs	r3, r0, #0
10046be6:	d101      	bne.n	10046bec <HAL_RCC_ClockConfig+0x6c>
    {
      return HAL_ERROR;
10046be8:	2301      	movs	r3, #1
10046bea:	e062      	b.n	10046cb2 <HAL_RCC_ClockConfig+0x132>
    }

    /* Enable the RC64MPLL*/
    __HAL_RCC_RC64MPLL_ENABLE();
10046bec:	f7ff fe2c 	bl	10046848 <LL_RCC_RC64MPLL_Enable>

    /* Get Start Tick*/
    tickstart = HAL_GetTick();
10046bf0:	f7fd f9f0 	bl	10043fd4 <HAL_GetTick>
10046bf4:	0003      	movs	r3, r0
10046bf6:	60fb      	str	r3, [r7, #12]

    /* Wait till RC64MPLL is ready */
    while (LL_RCC_RC64MPLL_IsReady() == 0)
10046bf8:	e008      	b.n	10046c0c <HAL_RCC_ClockConfig+0x8c>
    {
      if ((HAL_GetTick() - tickstart) > PLL_TIMEOUT_VALUE)
10046bfa:	f7fd f9eb 	bl	10043fd4 <HAL_GetTick>
10046bfe:	0002      	movs	r2, r0
10046c00:	68fb      	ldr	r3, [r7, #12]
10046c02:	1ad3      	subs	r3, r2, r3
10046c04:	2b02      	cmp	r3, #2
10046c06:	d901      	bls.n	10046c0c <HAL_RCC_ClockConfig+0x8c>
      {
        return HAL_TIMEOUT;
10046c08:	2303      	movs	r3, #3
10046c0a:	e052      	b.n	10046cb2 <HAL_RCC_ClockConfig+0x132>
    while (LL_RCC_RC64MPLL_IsReady() == 0)
10046c0c:	f7ff fe3a 	bl	10046884 <LL_RCC_RC64MPLL_IsReady>
10046c10:	1e03      	subs	r3, r0, #0
10046c12:	d0f2      	beq.n	10046bfa <HAL_RCC_ClockConfig+0x7a>
      }
    }

    /* Configure the RC64MPLL multiplication factor */
    __HAL_RCC_RC64MPLL_PRESC_CONFIG(RCC_ClkInitStruct->SYSCLKDivider);
10046c14:	687b      	ldr	r3, [r7, #4]
10046c16:	685b      	ldr	r3, [r3, #4]
10046c18:	0018      	movs	r0, r3
10046c1a:	f7ff fe47 	bl	100468ac <LL_RCC_SetRC64MPLLPrescaler>
  }

  /* DIRECT_HSE is selected as System Clock Source */
  if (RCC_ClkInitStruct->SYSCLKSource == RCC_SYSCLKSOURCE_DIRECT_HSE)
10046c1e:	687b      	ldr	r3, [r7, #4]
10046c20:	681b      	ldr	r3, [r3, #0]
10046c22:	2b01      	cmp	r3, #1
10046c24:	d117      	bne.n	10046c56 <HAL_RCC_ClockConfig+0xd6>
  {
    /* Enable the DIRECT_HSE configuration */
    LL_RCC_DIRECT_HSE_Enable();
10046c26:	f7ff fd3b 	bl	100466a0 <LL_RCC_DIRECT_HSE_Enable>

    /* Check the HSI ready flag */
    if (LL_RCC_HSI_IsReady() != 0U)
10046c2a:	f7ff fd25 	bl	10046678 <LL_RCC_HSI_IsReady>
10046c2e:	1e03      	subs	r3, r0, #0
10046c30:	d001      	beq.n	10046c36 <HAL_RCC_ClockConfig+0xb6>
    {
      return HAL_ERROR;
10046c32:	2301      	movs	r3, #1
10046c34:	e03d      	b.n	10046cb2 <HAL_RCC_ClockConfig+0x132>
    }

    /* Check the HSE ready flag */
    if (LL_RCC_HSE_IsReady() == 0U)
10046c36:	f7ff fc77 	bl	10046528 <LL_RCC_HSE_IsReady>
10046c3a:	1e03      	subs	r3, r0, #0
10046c3c:	d101      	bne.n	10046c42 <HAL_RCC_ClockConfig+0xc2>
    {
      return HAL_ERROR;
10046c3e:	2301      	movs	r3, #1
10046c40:	e037      	b.n	10046cb2 <HAL_RCC_ClockConfig+0x132>
    }

    /* Configure the DIRECT_HSE multiplication factor */
    __HAL_RCC_DIRECT_HSE_PRESC_CONFIG(RCC_ClkInitStruct->SYSCLKDivider);
10046c42:	4b1f      	ldr	r3, [pc, #124]	@ (10046cc0 <HAL_RCC_ClockConfig+0x140>)
10046c44:	689b      	ldr	r3, [r3, #8]
10046c46:	22e0      	movs	r2, #224	@ 0xe0
10046c48:	4393      	bics	r3, r2
10046c4a:	0019      	movs	r1, r3
10046c4c:	687b      	ldr	r3, [r7, #4]
10046c4e:	685a      	ldr	r2, [r3, #4]
10046c50:	4b1b      	ldr	r3, [pc, #108]	@ (10046cc0 <HAL_RCC_ClockConfig+0x140>)
10046c52:	430a      	orrs	r2, r1
10046c54:	609a      	str	r2, [r3, #8]
  /*----------------------- FLASH Latency Configuration ------------------------*/
  /* To correctly read data from FLASH memory, the number of wait states (LATENCY)
     must be correctly programmed according to the frequency of the FLASH clock */

  /* Setup flash wait states because according the system clock frequency */
  if (FLatency != __HAL_FLASH_GET_WAIT_STATES())
10046c56:	4b19      	ldr	r3, [pc, #100]	@ (10046cbc <HAL_RCC_ClockConfig+0x13c>)
10046c58:	685b      	ldr	r3, [r3, #4]
10046c5a:	2230      	movs	r2, #48	@ 0x30
10046c5c:	4013      	ands	r3, r2
10046c5e:	683a      	ldr	r2, [r7, #0]
10046c60:	429a      	cmp	r2, r3
10046c62:	d01d      	beq.n	10046ca0 <HAL_RCC_ClockConfig+0x120>
  {
    /* Program the new number of wait states to the LATENCY bits in the FLASH_CONFIG register */
    __HAL_FLASH_SET_WAIT_STATES(FLatency);
10046c64:	4b15      	ldr	r3, [pc, #84]	@ (10046cbc <HAL_RCC_ClockConfig+0x13c>)
10046c66:	685b      	ldr	r3, [r3, #4]
10046c68:	2230      	movs	r2, #48	@ 0x30
10046c6a:	4393      	bics	r3, r2
10046c6c:	0019      	movs	r1, r3
10046c6e:	4b13      	ldr	r3, [pc, #76]	@ (10046cbc <HAL_RCC_ClockConfig+0x13c>)
10046c70:	683a      	ldr	r2, [r7, #0]
10046c72:	430a      	orrs	r2, r1
10046c74:	605a      	str	r2, [r3, #4]

    /* Get Start Tick*/
    tickstart = HAL_GetTick();
10046c76:	f7fd f9ad 	bl	10043fd4 <HAL_GetTick>
10046c7a:	0003      	movs	r3, r0
10046c7c:	60fb      	str	r3, [r7, #12]

    /* Check that the new number of wait states is taken into account to access the Flash
       memory by reading the FLASH_CONFIG register */
    while (__HAL_FLASH_GET_WAIT_STATES() != FLatency)
10046c7e:	e008      	b.n	10046c92 <HAL_RCC_ClockConfig+0x112>
    {
      if ((HAL_GetTick() - tickstart) > LATENCY_TIMEOUT_VALUE)
10046c80:	f7fd f9a8 	bl	10043fd4 <HAL_GetTick>
10046c84:	0002      	movs	r2, r0
10046c86:	68fb      	ldr	r3, [r7, #12]
10046c88:	1ad3      	subs	r3, r2, r3
10046c8a:	2b02      	cmp	r3, #2
10046c8c:	d901      	bls.n	10046c92 <HAL_RCC_ClockConfig+0x112>
      {
        return HAL_TIMEOUT;
10046c8e:	2303      	movs	r3, #3
10046c90:	e00f      	b.n	10046cb2 <HAL_RCC_ClockConfig+0x132>
    while (__HAL_FLASH_GET_WAIT_STATES() != FLatency)
10046c92:	4b0a      	ldr	r3, [pc, #40]	@ (10046cbc <HAL_RCC_ClockConfig+0x13c>)
10046c94:	685b      	ldr	r3, [r3, #4]
10046c96:	2230      	movs	r2, #48	@ 0x30
10046c98:	4013      	ands	r3, r2
10046c9a:	683a      	ldr	r2, [r7, #0]
10046c9c:	429a      	cmp	r2, r3
10046c9e:	d1ef      	bne.n	10046c80 <HAL_RCC_ClockConfig+0x100>
  }

  /*---------------------------------------------------------------------------*/

  /* Update the SystemCoreClock global variable */
  SystemCoreClockUpdate();
10046ca0:	f7fd f8d8 	bl	10043e54 <SystemCoreClockUpdate>

  /* Configure the source of time base considering new system clocks settings*/
  return HAL_InitTick(HAL_GetTickPrio());
10046ca4:	f7fd f9a0 	bl	10043fe8 <HAL_GetTickPrio>
10046ca8:	0003      	movs	r3, r0
10046caa:	0018      	movs	r0, r3
10046cac:	f7fd f938 	bl	10043f20 <HAL_InitTick>
10046cb0:	0003      	movs	r3, r0
}
10046cb2:	0018      	movs	r0, r3
10046cb4:	46bd      	mov	sp, r7
10046cb6:	b004      	add	sp, #16
10046cb8:	bd80      	pop	{r7, pc}
10046cba:	46c0      	nop			@ (mov r8, r8)
10046cbc:	40001000 	.word	0x40001000
10046cc0:	48400000 	.word	0x48400000

10046cc4 <HAL_RCC_GetSysClockFreq>:
  *         content of the SystemCoreClock CMSIS variable
  *
  * @retval SYSCLK frequency
  */
uint32_t HAL_RCC_GetSysClockFreq(void)
{
10046cc4:	b580      	push	{r7, lr}
10046cc6:	af00      	add	r7, sp, #0
  return SystemCoreClock;
10046cc8:	4b02      	ldr	r3, [pc, #8]	@ (10046cd4 <HAL_RCC_GetSysClockFreq+0x10>)
10046cca:	681b      	ldr	r3, [r3, #0]
}
10046ccc:	0018      	movs	r0, r3
10046cce:	46bd      	mov	sp, r7
10046cd0:	bd80      	pop	{r7, pc}
10046cd2:	46c0      	nop			@ (mov r8, r8)
10046cd4:	20000200 	.word	0x20000200

10046cd8 <LL_RCC_DIRECT_HSE_IsEnabled>:
{
10046cd8:	b580      	push	{r7, lr}
10046cda:	af00      	add	r7, sp, #0
  return ((READ_BIT(RCC->CFGR, RCC_CFGR_HSESEL_STATUS) == (RCC_CFGR_HSESEL_STATUS)) ? 1UL : 0UL);
10046cdc:	4b05      	ldr	r3, [pc, #20]	@ (10046cf4 <LL_RCC_DIRECT_HSE_IsEnabled+0x1c>)
10046cde:	689b      	ldr	r3, [r3, #8]
10046ce0:	2208      	movs	r2, #8
10046ce2:	4013      	ands	r3, r2
10046ce4:	2b08      	cmp	r3, #8
10046ce6:	d101      	bne.n	10046cec <LL_RCC_DIRECT_HSE_IsEnabled+0x14>
10046ce8:	2301      	movs	r3, #1
10046cea:	e000      	b.n	10046cee <LL_RCC_DIRECT_HSE_IsEnabled+0x16>
10046cec:	2300      	movs	r3, #0
}
10046cee:	0018      	movs	r0, r3
10046cf0:	46bd      	mov	sp, r7
10046cf2:	bd80      	pop	{r7, pc}
10046cf4:	48400000 	.word	0x48400000

10046cf8 <LL_RCC_LSCO_SetSource>:
{
10046cf8:	b580      	push	{r7, lr}
10046cfa:	b082      	sub	sp, #8
10046cfc:	af00      	add	r7, sp, #0
10046cfe:	6078      	str	r0, [r7, #4]
  MODIFY_REG(RCC->CFGR, RCC_CFGR_CLKSLOWSEL, Source);
10046d00:	4b06      	ldr	r3, [pc, #24]	@ (10046d1c <LL_RCC_LSCO_SetSource+0x24>)
10046d02:	689b      	ldr	r3, [r3, #8]
10046d04:	4a06      	ldr	r2, [pc, #24]	@ (10046d20 <LL_RCC_LSCO_SetSource+0x28>)
10046d06:	4013      	ands	r3, r2
10046d08:	0019      	movs	r1, r3
10046d0a:	4b04      	ldr	r3, [pc, #16]	@ (10046d1c <LL_RCC_LSCO_SetSource+0x24>)
10046d0c:	687a      	ldr	r2, [r7, #4]
10046d0e:	430a      	orrs	r2, r1
10046d10:	609a      	str	r2, [r3, #8]
}
10046d12:	46c0      	nop			@ (mov r8, r8)
10046d14:	46bd      	mov	sp, r7
10046d16:	b002      	add	sp, #8
10046d18:	bd80      	pop	{r7, pc}
10046d1a:	46c0      	nop			@ (mov r8, r8)
10046d1c:	48400000 	.word	0x48400000
10046d20:	fffe7fff 	.word	0xfffe7fff

10046d24 <LL_RCC_SetSMPSPrescaler>:
{
10046d24:	b580      	push	{r7, lr}
10046d26:	b082      	sub	sp, #8
10046d28:	af00      	add	r7, sp, #0
10046d2a:	6078      	str	r0, [r7, #4]
  MODIFY_REG(RCC->CFGR, RCC_CFGR_SMPSDIV, Prescaler);
10046d2c:	4b06      	ldr	r3, [pc, #24]	@ (10046d48 <LL_RCC_SetSMPSPrescaler+0x24>)
10046d2e:	689b      	ldr	r3, [r3, #8]
10046d30:	4a06      	ldr	r2, [pc, #24]	@ (10046d4c <LL_RCC_SetSMPSPrescaler+0x28>)
10046d32:	4013      	ands	r3, r2
10046d34:	0019      	movs	r1, r3
10046d36:	4b04      	ldr	r3, [pc, #16]	@ (10046d48 <LL_RCC_SetSMPSPrescaler+0x24>)
10046d38:	687a      	ldr	r2, [r7, #4]
10046d3a:	430a      	orrs	r2, r1
10046d3c:	609a      	str	r2, [r3, #8]
}
10046d3e:	46c0      	nop			@ (mov r8, r8)
10046d40:	46bd      	mov	sp, r7
10046d42:	b002      	add	sp, #8
10046d44:	bd80      	pop	{r7, pc}
10046d46:	46c0      	nop			@ (mov r8, r8)
10046d48:	48400000 	.word	0x48400000
10046d4c:	ffffefff 	.word	0xffffefff

10046d50 <LL_RCC_GetSMPSPrescaler>:
{
10046d50:	b580      	push	{r7, lr}
10046d52:	af00      	add	r7, sp, #0
  return (uint32_t)(READ_BIT(RCC->CFGR, RCC_CFGR_SMPSDIV));
10046d54:	4b03      	ldr	r3, [pc, #12]	@ (10046d64 <LL_RCC_GetSMPSPrescaler+0x14>)
10046d56:	689a      	ldr	r2, [r3, #8]
10046d58:	2380      	movs	r3, #128	@ 0x80
10046d5a:	015b      	lsls	r3, r3, #5
10046d5c:	4013      	ands	r3, r2
}
10046d5e:	0018      	movs	r0, r3
10046d60:	46bd      	mov	sp, r7
10046d62:	bd80      	pop	{r7, pc}
10046d64:	48400000 	.word	0x48400000

10046d68 <LL_RCC_KRM_IsEnabled>:
{
10046d68:	b580      	push	{r7, lr}
10046d6a:	af00      	add	r7, sp, #0
  return ((READ_BIT(RCC->KRMR, RCC_KRMR_KRM_EN) == (RCC_KRMR_KRM_EN)) ? 1UL : 0UL);
10046d6c:	4b05      	ldr	r3, [pc, #20]	@ (10046d84 <LL_RCC_KRM_IsEnabled+0x1c>)
10046d6e:	691b      	ldr	r3, [r3, #16]
10046d70:	2201      	movs	r2, #1
10046d72:	4013      	ands	r3, r2
10046d74:	2b01      	cmp	r3, #1
10046d76:	d101      	bne.n	10046d7c <LL_RCC_KRM_IsEnabled+0x14>
10046d78:	2301      	movs	r3, #1
10046d7a:	e000      	b.n	10046d7e <LL_RCC_KRM_IsEnabled+0x16>
10046d7c:	2300      	movs	r3, #0
}
10046d7e:	0018      	movs	r0, r3
10046d80:	46bd      	mov	sp, r7
10046d82:	bd80      	pop	{r7, pc}
10046d84:	48400000 	.word	0x48400000

10046d88 <LL_RCC_KRM_SetRateMultiplier>:
{
10046d88:	b580      	push	{r7, lr}
10046d8a:	b082      	sub	sp, #8
10046d8c:	af00      	add	r7, sp, #0
10046d8e:	6078      	str	r0, [r7, #4]
  MODIFY_REG(RCC->KRMR, RCC_KRMR_KRM, Value << RCC_KRMR_KRM_Pos);
10046d90:	4b06      	ldr	r3, [pc, #24]	@ (10046dac <LL_RCC_KRM_SetRateMultiplier+0x24>)
10046d92:	691b      	ldr	r3, [r3, #16]
10046d94:	4a06      	ldr	r2, [pc, #24]	@ (10046db0 <LL_RCC_KRM_SetRateMultiplier+0x28>)
10046d96:	4013      	ands	r3, r2
10046d98:	0019      	movs	r1, r3
10046d9a:	687b      	ldr	r3, [r7, #4]
10046d9c:	005a      	lsls	r2, r3, #1
10046d9e:	4b03      	ldr	r3, [pc, #12]	@ (10046dac <LL_RCC_KRM_SetRateMultiplier+0x24>)
10046da0:	430a      	orrs	r2, r1
10046da2:	611a      	str	r2, [r3, #16]
}
10046da4:	46c0      	nop			@ (mov r8, r8)
10046da6:	46bd      	mov	sp, r7
10046da8:	b002      	add	sp, #8
10046daa:	bd80      	pop	{r7, pc}
10046dac:	48400000 	.word	0x48400000
10046db0:	ffff0001 	.word	0xffff0001

10046db4 <LL_RCC_KRM_GetRateMultiplier>:
{
10046db4:	b580      	push	{r7, lr}
10046db6:	af00      	add	r7, sp, #0
  return (uint32_t)(READ_BIT(RCC->KRMR, RCC_KRMR_KRM) >> RCC_KRMR_KRM_Pos);
10046db8:	4b03      	ldr	r3, [pc, #12]	@ (10046dc8 <LL_RCC_KRM_GetRateMultiplier+0x14>)
10046dba:	691b      	ldr	r3, [r3, #16]
10046dbc:	085b      	lsrs	r3, r3, #1
10046dbe:	045b      	lsls	r3, r3, #17
10046dc0:	0c5b      	lsrs	r3, r3, #17
}
10046dc2:	0018      	movs	r0, r3
10046dc4:	46bd      	mov	sp, r7
10046dc6:	bd80      	pop	{r7, pc}
10046dc8:	48400000 	.word	0x48400000

10046dcc <LL_RCC_SetLPUARTClockSource>:
{
10046dcc:	b580      	push	{r7, lr}
10046dce:	b082      	sub	sp, #8
10046dd0:	af00      	add	r7, sp, #0
10046dd2:	6078      	str	r0, [r7, #4]
  MODIFY_REG(RCC->CFGR, RCC_CFGR_LPUCLKSEL, Source);
10046dd4:	4b06      	ldr	r3, [pc, #24]	@ (10046df0 <LL_RCC_SetLPUARTClockSource+0x24>)
10046dd6:	689b      	ldr	r3, [r3, #8]
10046dd8:	4a06      	ldr	r2, [pc, #24]	@ (10046df4 <LL_RCC_SetLPUARTClockSource+0x28>)
10046dda:	4013      	ands	r3, r2
10046ddc:	0019      	movs	r1, r3
10046dde:	4b04      	ldr	r3, [pc, #16]	@ (10046df0 <LL_RCC_SetLPUARTClockSource+0x24>)
10046de0:	687a      	ldr	r2, [r7, #4]
10046de2:	430a      	orrs	r2, r1
10046de4:	609a      	str	r2, [r3, #8]
}
10046de6:	46c0      	nop			@ (mov r8, r8)
10046de8:	46bd      	mov	sp, r7
10046dea:	b002      	add	sp, #8
10046dec:	bd80      	pop	{r7, pc}
10046dee:	46c0      	nop			@ (mov r8, r8)
10046df0:	48400000 	.word	0x48400000
10046df4:	ffffdfff 	.word	0xffffdfff

10046df8 <LL_RCC_GetLPUARTClockSource>:
{
10046df8:	b580      	push	{r7, lr}
10046dfa:	af00      	add	r7, sp, #0
  return (uint32_t)(READ_BIT(RCC->CFGR, RCC_CFGR_LPUCLKSEL));
10046dfc:	4b03      	ldr	r3, [pc, #12]	@ (10046e0c <LL_RCC_GetLPUARTClockSource+0x14>)
10046dfe:	689a      	ldr	r2, [r3, #8]
10046e00:	2380      	movs	r3, #128	@ 0x80
10046e02:	019b      	lsls	r3, r3, #6
10046e04:	4013      	ands	r3, r2
}
10046e06:	0018      	movs	r0, r3
10046e08:	46bd      	mov	sp, r7
10046e0a:	bd80      	pop	{r7, pc}
10046e0c:	48400000 	.word	0x48400000

10046e10 <LL_RCC_SetSPI3I2SClockSource>:
{
10046e10:	b580      	push	{r7, lr}
10046e12:	b082      	sub	sp, #8
10046e14:	af00      	add	r7, sp, #0
10046e16:	6078      	str	r0, [r7, #4]
  MODIFY_REG(RCC->CFGR, RCC_CFGR_SPI3I2SCLKSEL, Source);
10046e18:	4b06      	ldr	r3, [pc, #24]	@ (10046e34 <LL_RCC_SetSPI3I2SClockSource+0x24>)
10046e1a:	689b      	ldr	r3, [r3, #8]
10046e1c:	4a06      	ldr	r2, [pc, #24]	@ (10046e38 <LL_RCC_SetSPI3I2SClockSource+0x28>)
10046e1e:	4013      	ands	r3, r2
10046e20:	0019      	movs	r1, r3
10046e22:	4b04      	ldr	r3, [pc, #16]	@ (10046e34 <LL_RCC_SetSPI3I2SClockSource+0x24>)
10046e24:	687a      	ldr	r2, [r7, #4]
10046e26:	430a      	orrs	r2, r1
10046e28:	609a      	str	r2, [r3, #8]
}
10046e2a:	46c0      	nop			@ (mov r8, r8)
10046e2c:	46bd      	mov	sp, r7
10046e2e:	b002      	add	sp, #8
10046e30:	bd80      	pop	{r7, pc}
10046e32:	46c0      	nop			@ (mov r8, r8)
10046e34:	48400000 	.word	0x48400000
10046e38:	ff3fffff 	.word	0xff3fffff

10046e3c <LL_RCC_GetSPI3I2SClockSource>:
{
10046e3c:	b580      	push	{r7, lr}
10046e3e:	af00      	add	r7, sp, #0
  return (uint32_t)(READ_BIT(RCC->CFGR, RCC_CFGR_SPI3I2SCLKSEL));
10046e40:	4b03      	ldr	r3, [pc, #12]	@ (10046e50 <LL_RCC_GetSPI3I2SClockSource+0x14>)
10046e42:	689a      	ldr	r2, [r3, #8]
10046e44:	23c0      	movs	r3, #192	@ 0xc0
10046e46:	041b      	lsls	r3, r3, #16
10046e48:	4013      	ands	r3, r2
}
10046e4a:	0018      	movs	r0, r3
10046e4c:	46bd      	mov	sp, r7
10046e4e:	bd80      	pop	{r7, pc}
10046e50:	48400000 	.word	0x48400000

10046e54 <HAL_RCCEx_PeriphCLKConfig>:
  *            @arg @ref RCC_PERIPHCLK_LPUART1           LPUART1 peripheral clock
  *
  * @retval HAL status
  */
HAL_StatusTypeDef HAL_RCCEx_PeriphCLKConfig(RCC_PeriphCLKInitTypeDef  *PeriphClkInit)
{
10046e54:	b580      	push	{r7, lr}
10046e56:	b082      	sub	sp, #8
10046e58:	af00      	add	r7, sp, #0
10046e5a:	6078      	str	r0, [r7, #4]
  /* Check the parameters */
  assert_param(IS_RCC_PERIPHCLOCK(PeriphClkInit->PeriphClockSelection));


  /*-------------------------- SMPS clock configuration -------------------------------*/
  if ((((PeriphClkInit->PeriphClockSelection) & RCC_PERIPHCLK_SMPS) == RCC_PERIPHCLK_SMPS))
10046e5c:	687b      	ldr	r3, [r7, #4]
10046e5e:	681b      	ldr	r3, [r3, #0]
10046e60:	2202      	movs	r2, #2
10046e62:	4013      	ands	r3, r2
10046e64:	d009      	beq.n	10046e7a <HAL_RCCEx_PeriphCLKConfig+0x26>
  {
    assert_param(IS_RCC_SMPS_CLOCK_PRESC(PeriphClkInit->SmpsDivSelection));
    __HAL_RCC_SMPS_DIV_CONFIG(PeriphClkInit->SmpsDivSelection);
10046e66:	687b      	ldr	r3, [r7, #4]
10046e68:	691b      	ldr	r3, [r3, #16]
10046e6a:	0018      	movs	r0, r3
10046e6c:	f7ff ff5a 	bl	10046d24 <LL_RCC_SetSMPSPrescaler>
    __HAL_RCC_KRM_RATE_MULTIPLIER_CONFIG(PeriphClkInit->KRMRateMultiplier);
10046e70:	687b      	ldr	r3, [r7, #4]
10046e72:	695b      	ldr	r3, [r3, #20]
10046e74:	0018      	movs	r0, r3
10046e76:	f7ff ff87 	bl	10046d88 <LL_RCC_KRM_SetRateMultiplier>
  }

  /*-------------------------- SPI3_I2S clock source configuration ---------------------*/
  if ((((PeriphClkInit->PeriphClockSelection) & RCC_PERIPHCLK_SPI3_I2S) == RCC_PERIPHCLK_SPI3_I2S))
10046e7a:	687b      	ldr	r3, [r7, #4]
10046e7c:	681b      	ldr	r3, [r3, #0]
10046e7e:	2208      	movs	r2, #8
10046e80:	4013      	ands	r3, r2
10046e82:	d004      	beq.n	10046e8e <HAL_RCCEx_PeriphCLKConfig+0x3a>
  {
    assert_param(IS_RCC_SPI3I2S_CLOCK_SOURCE(PeriphClkInit->SPI3I2SClockSelection));
    __HAL_RCC_SPI3I2S_CLK_CONFIG(PeriphClkInit->SPI3I2SClockSelection);
10046e84:	687b      	ldr	r3, [r7, #4]
10046e86:	685b      	ldr	r3, [r3, #4]
10046e88:	0018      	movs	r0, r3
10046e8a:	f7ff ffc1 	bl	10046e10 <LL_RCC_SetSPI3I2SClockSource>
  }
#if defined(RCC_CFGR_LPUCLKSEL)
  /*-------------------------- LPUART1 clock source configuration ---------------------*/
  if ((((PeriphClkInit->PeriphClockSelection) & RCC_PERIPHCLK_LPUART1) == RCC_PERIPHCLK_LPUART1))
10046e8e:	687b      	ldr	r3, [r7, #4]
10046e90:	681b      	ldr	r3, [r3, #0]
10046e92:	2210      	movs	r2, #16
10046e94:	4013      	ands	r3, r2
10046e96:	d004      	beq.n	10046ea2 <HAL_RCCEx_PeriphCLKConfig+0x4e>
  {
    assert_param(IS_RCC_LPUART1_CLOCK_SOURCE(PeriphClkInit->LPUART1ClockSelection));
    __HAL_RCC_LPUART1_CLK_CONFIG(PeriphClkInit->LPUART1ClockSelection);
10046e98:	687b      	ldr	r3, [r7, #4]
10046e9a:	68db      	ldr	r3, [r3, #12]
10046e9c:	0018      	movs	r0, r3
10046e9e:	f7ff ff95 	bl	10046dcc <LL_RCC_SetLPUARTClockSource>
  }
#endif /* RCC_CFGR_LPUCLKSEL */

  if ((((PeriphClkInit->PeriphClockSelection) & RCC_PERIPHCLK_RTC_WDG_SUBG_LPAWUR_LCD_LCSC) ==
10046ea2:	687b      	ldr	r3, [r7, #4]
10046ea4:	681b      	ldr	r3, [r3, #0]
10046ea6:	2220      	movs	r2, #32
10046ea8:	4013      	ands	r3, r2
10046eaa:	d004      	beq.n	10046eb6 <HAL_RCCEx_PeriphCLKConfig+0x62>
       RCC_PERIPHCLK_RTC_WDG_SUBG_LPAWUR_LCD_LCSC))
  {
    assert_param(IS_RCC_RTC_WDG_SUBG_PAWUR_LCD_LCSC_CLOCK_SOURCE(PeriphClkInit->RTCWDGSUBGLPAWURLCDLCSCClockSelection));
    __HAL_RCC_RTC_SUBG_LPAWUR_LCD_LCSC_CLK_CONFIG(PeriphClkInit->RTCWDGSUBGLPAWURLCDLCSCClockSelection);
10046eac:	687b      	ldr	r3, [r7, #4]
10046eae:	689b      	ldr	r3, [r3, #8]
10046eb0:	0018      	movs	r0, r3
10046eb2:	f7ff ff21 	bl	10046cf8 <LL_RCC_LSCO_SetSource>
  }

  return HAL_OK;
10046eb6:	2300      	movs	r3, #0
}
10046eb8:	0018      	movs	r0, r3
10046eba:	46bd      	mov	sp, r7
10046ebc:	b002      	add	sp, #8
10046ebe:	bd80      	pop	{r7, pc}

10046ec0 <HAL_RCCEx_GetPeriphCLKFreq>:
  *            @arg @ref RCC_PERIPHCLK_LPUART1           LPUART1 peripheral clock
  * @retval Frequency in Hz
  * @note   (*) Peripherals are not available on all devices
  */
uint32_t HAL_RCCEx_GetPeriphCLKFreq(uint32_t PeriphClk)
{
10046ec0:	b580      	push	{r7, lr}
10046ec2:	b086      	sub	sp, #24
10046ec4:	af00      	add	r7, sp, #0
10046ec6:	6078      	str	r0, [r7, #4]

  /* Check the parameters */
  assert_param(IS_RCC_PERIPHCLOCK(PeriphClk));

  /* No if clausule is covered */
  frequency = 0;
10046ec8:	2300      	movs	r3, #0
10046eca:	617b      	str	r3, [r7, #20]

  switch (PeriphClk)
10046ecc:	687b      	ldr	r3, [r7, #4]
10046ece:	2b10      	cmp	r3, #16
10046ed0:	d100      	bne.n	10046ed4 <HAL_RCCEx_GetPeriphCLKFreq+0x14>
10046ed2:	e06b      	b.n	10046fac <HAL_RCCEx_GetPeriphCLKFreq+0xec>
10046ed4:	687b      	ldr	r3, [r7, #4]
10046ed6:	2b10      	cmp	r3, #16
10046ed8:	d900      	bls.n	10046edc <HAL_RCCEx_GetPeriphCLKFreq+0x1c>
10046eda:	e07d      	b.n	10046fd8 <HAL_RCCEx_GetPeriphCLKFreq+0x118>
10046edc:	687b      	ldr	r3, [r7, #4]
10046ede:	2b08      	cmp	r3, #8
10046ee0:	d03a      	beq.n	10046f58 <HAL_RCCEx_GetPeriphCLKFreq+0x98>
10046ee2:	687b      	ldr	r3, [r7, #4]
10046ee4:	2b08      	cmp	r3, #8
10046ee6:	d900      	bls.n	10046eea <HAL_RCCEx_GetPeriphCLKFreq+0x2a>
10046ee8:	e076      	b.n	10046fd8 <HAL_RCCEx_GetPeriphCLKFreq+0x118>
10046eea:	687b      	ldr	r3, [r7, #4]
10046eec:	2b01      	cmp	r3, #1
10046eee:	d003      	beq.n	10046ef8 <HAL_RCCEx_GetPeriphCLKFreq+0x38>
10046ef0:	687b      	ldr	r3, [r7, #4]
10046ef2:	2b02      	cmp	r3, #2
10046ef4:	d003      	beq.n	10046efe <HAL_RCCEx_GetPeriphCLKFreq+0x3e>
        }
      }
      break;
#endif /* RCC_CFGR_LPUCLKSEL */
    default :
      break;
10046ef6:	e06f      	b.n	10046fd8 <HAL_RCCEx_GetPeriphCLKFreq+0x118>
      frequency = HSE_VALUE / 3;
10046ef8:	4b3b      	ldr	r3, [pc, #236]	@ (10046fe8 <HAL_RCCEx_GetPeriphCLKFreq+0x128>)
10046efa:	617b      	str	r3, [r7, #20]
      break;
10046efc:	e06f      	b.n	10046fde <HAL_RCCEx_GetPeriphCLKFreq+0x11e>
      if (__HAL_RCC_IS_KRM_ENABLED())
10046efe:	f7ff ff33 	bl	10046d68 <LL_RCC_KRM_IsEnabled>
10046f02:	1e03      	subs	r3, r0, #0
10046f04:	d018      	beq.n	10046f38 <HAL_RCCEx_GetPeriphCLKFreq+0x78>
        if (__HAL_RCC_GET_SYSCLK_SOURCE() == RCC_SYSCLKSOURCE_DIRECT_HSE)
10046f06:	f7ff fee7 	bl	10046cd8 <LL_RCC_DIRECT_HSE_IsEnabled>
10046f0a:	1e03      	subs	r3, r0, #0
10046f0c:	d002      	beq.n	10046f14 <HAL_RCCEx_GetPeriphCLKFreq+0x54>
          frequency = HSE_VALUE;
10046f0e:	4b37      	ldr	r3, [pc, #220]	@ (10046fec <HAL_RCCEx_GetPeriphCLKFreq+0x12c>)
10046f10:	617b      	str	r3, [r7, #20]
10046f12:	e001      	b.n	10046f18 <HAL_RCCEx_GetPeriphCLKFreq+0x58>
          frequency = RC64MPLL_VALUE;
10046f14:	4b36      	ldr	r3, [pc, #216]	@ (10046ff0 <HAL_RCCEx_GetPeriphCLKFreq+0x130>)
10046f16:	617b      	str	r3, [r7, #20]
        krmValue = __HAL_RCC_GET_KRM_RATE_MULTIPLIER();
10046f18:	f7ff ff4c 	bl	10046db4 <LL_RCC_KRM_GetRateMultiplier>
10046f1c:	0003      	movs	r3, r0
10046f1e:	613b      	str	r3, [r7, #16]
        if (krmValue < 8)
10046f20:	693b      	ldr	r3, [r7, #16]
10046f22:	2b07      	cmp	r3, #7
10046f24:	d801      	bhi.n	10046f2a <HAL_RCCEx_GetPeriphCLKFreq+0x6a>
          krmValue = 8;
10046f26:	2308      	movs	r3, #8
10046f28:	613b      	str	r3, [r7, #16]
        frequency = frequency / krmValue;
10046f2a:	6939      	ldr	r1, [r7, #16]
10046f2c:	6978      	ldr	r0, [r7, #20]
10046f2e:	f7f9 f8c7 	bl	100400c0 <__udivsi3>
10046f32:	0003      	movs	r3, r0
10046f34:	617b      	str	r3, [r7, #20]
      break;
10046f36:	e052      	b.n	10046fde <HAL_RCCEx_GetPeriphCLKFreq+0x11e>
        switch (__HAL_RCC_GET_SMPS_DIV())
10046f38:	f7ff ff0a 	bl	10046d50 <LL_RCC_GetSMPSPrescaler>
10046f3c:	1e03      	subs	r3, r0, #0
10046f3e:	d004      	beq.n	10046f4a <HAL_RCCEx_GetPeriphCLKFreq+0x8a>
10046f40:	2280      	movs	r2, #128	@ 0x80
10046f42:	0152      	lsls	r2, r2, #5
10046f44:	4293      	cmp	r3, r2
10046f46:	d003      	beq.n	10046f50 <HAL_RCCEx_GetPeriphCLKFreq+0x90>
      break;
10046f48:	e049      	b.n	10046fde <HAL_RCCEx_GetPeriphCLKFreq+0x11e>
            frequency = RC64MPLL_VALUE / 8;
10046f4a:	4b2a      	ldr	r3, [pc, #168]	@ (10046ff4 <HAL_RCCEx_GetPeriphCLKFreq+0x134>)
10046f4c:	617b      	str	r3, [r7, #20]
            break;
10046f4e:	e002      	b.n	10046f56 <HAL_RCCEx_GetPeriphCLKFreq+0x96>
            frequency = RC64MPLL_VALUE / 16;
10046f50:	4b29      	ldr	r3, [pc, #164]	@ (10046ff8 <HAL_RCCEx_GetPeriphCLKFreq+0x138>)
10046f52:	617b      	str	r3, [r7, #20]
            break;
10046f54:	46c0      	nop			@ (mov r8, r8)
      break;
10046f56:	e042      	b.n	10046fde <HAL_RCCEx_GetPeriphCLKFreq+0x11e>
      spiFreqValue = __HAL_RCC_GET_SPI3I2S_CLK_CONFIG();
10046f58:	f7ff ff70 	bl	10046e3c <LL_RCC_GetSPI3I2SClockSource>
10046f5c:	0003      	movs	r3, r0
10046f5e:	60fb      	str	r3, [r7, #12]
      switch (spiFreqValue)
10046f60:	68fa      	ldr	r2, [r7, #12]
10046f62:	2380      	movs	r3, #128	@ 0x80
10046f64:	041b      	lsls	r3, r3, #16
10046f66:	429a      	cmp	r2, r3
10046f68:	d01a      	beq.n	10046fa0 <HAL_RCCEx_GetPeriphCLKFreq+0xe0>
10046f6a:	68fa      	ldr	r2, [r7, #12]
10046f6c:	2380      	movs	r3, #128	@ 0x80
10046f6e:	041b      	lsls	r3, r3, #16
10046f70:	429a      	cmp	r2, r3
10046f72:	d833      	bhi.n	10046fdc <HAL_RCCEx_GetPeriphCLKFreq+0x11c>
10046f74:	68fb      	ldr	r3, [r7, #12]
10046f76:	2b00      	cmp	r3, #0
10046f78:	d005      	beq.n	10046f86 <HAL_RCCEx_GetPeriphCLKFreq+0xc6>
10046f7a:	68fa      	ldr	r2, [r7, #12]
10046f7c:	2380      	movs	r3, #128	@ 0x80
10046f7e:	03db      	lsls	r3, r3, #15
10046f80:	429a      	cmp	r2, r3
10046f82:	d003      	beq.n	10046f8c <HAL_RCCEx_GetPeriphCLKFreq+0xcc>
      break;
10046f84:	e02a      	b.n	10046fdc <HAL_RCCEx_GetPeriphCLKFreq+0x11c>
          frequency = RC64MPLL_VALUE / 4;
10046f86:	4b18      	ldr	r3, [pc, #96]	@ (10046fe8 <HAL_RCCEx_GetPeriphCLKFreq+0x128>)
10046f88:	617b      	str	r3, [r7, #20]
          break;
10046f8a:	e00e      	b.n	10046faa <HAL_RCCEx_GetPeriphCLKFreq+0xea>
          if (__HAL_RCC_GET_SYSCLK_SOURCE() == RCC_SYSCLKSOURCE_DIRECT_HSE)
10046f8c:	f7ff fea4 	bl	10046cd8 <LL_RCC_DIRECT_HSE_IsEnabled>
10046f90:	1e03      	subs	r3, r0, #0
10046f92:	d002      	beq.n	10046f9a <HAL_RCCEx_GetPeriphCLKFreq+0xda>
            frequency = HSE_VALUE / 2;
10046f94:	4b19      	ldr	r3, [pc, #100]	@ (10046ffc <HAL_RCCEx_GetPeriphCLKFreq+0x13c>)
10046f96:	617b      	str	r3, [r7, #20]
          break;
10046f98:	e007      	b.n	10046faa <HAL_RCCEx_GetPeriphCLKFreq+0xea>
            frequency = RC64MPLL_VALUE / 2;
10046f9a:	4b19      	ldr	r3, [pc, #100]	@ (10047000 <HAL_RCCEx_GetPeriphCLKFreq+0x140>)
10046f9c:	617b      	str	r3, [r7, #20]
          break;
10046f9e:	e004      	b.n	10046faa <HAL_RCCEx_GetPeriphCLKFreq+0xea>
          frequency = HAL_RCC_GetSysClockFreq() ;
10046fa0:	f7ff fe90 	bl	10046cc4 <HAL_RCC_GetSysClockFreq>
10046fa4:	0003      	movs	r3, r0
10046fa6:	617b      	str	r3, [r7, #20]
          break;
10046fa8:	46c0      	nop			@ (mov r8, r8)
      break;
10046faa:	e017      	b.n	10046fdc <HAL_RCCEx_GetPeriphCLKFreq+0x11c>
      switch (__HAL_RCC_GET_LPUART1_CLK_CONFIG())
10046fac:	f7ff ff24 	bl	10046df8 <LL_RCC_GetLPUARTClockSource>
10046fb0:	0002      	movs	r2, r0
10046fb2:	2380      	movs	r3, #128	@ 0x80
10046fb4:	019b      	lsls	r3, r3, #6
10046fb6:	429a      	cmp	r2, r3
10046fb8:	d103      	bne.n	10046fc2 <HAL_RCCEx_GetPeriphCLKFreq+0x102>
          frequency = LSE_VALUE;
10046fba:	2380      	movs	r3, #128	@ 0x80
10046fbc:	021b      	lsls	r3, r3, #8
10046fbe:	617b      	str	r3, [r7, #20]
          break;
10046fc0:	e009      	b.n	10046fd6 <HAL_RCCEx_GetPeriphCLKFreq+0x116>
          if (LL_RCC_DIRECT_HSE_IsEnabled() != 0U)
10046fc2:	f7ff fe89 	bl	10046cd8 <LL_RCC_DIRECT_HSE_IsEnabled>
10046fc6:	1e03      	subs	r3, r0, #0
10046fc8:	d002      	beq.n	10046fd0 <HAL_RCCEx_GetPeriphCLKFreq+0x110>
            frequency = HSE_VALUE / 3U;
10046fca:	4b07      	ldr	r3, [pc, #28]	@ (10046fe8 <HAL_RCCEx_GetPeriphCLKFreq+0x128>)
10046fcc:	617b      	str	r3, [r7, #20]
          break;
10046fce:	e001      	b.n	10046fd4 <HAL_RCCEx_GetPeriphCLKFreq+0x114>
            frequency = HSE_VALUE / 4U;
10046fd0:	4b0c      	ldr	r3, [pc, #48]	@ (10047004 <HAL_RCCEx_GetPeriphCLKFreq+0x144>)
10046fd2:	617b      	str	r3, [r7, #20]
          break;
10046fd4:	46c0      	nop			@ (mov r8, r8)
      break;
10046fd6:	e002      	b.n	10046fde <HAL_RCCEx_GetPeriphCLKFreq+0x11e>
      break;
10046fd8:	46c0      	nop			@ (mov r8, r8)
10046fda:	e000      	b.n	10046fde <HAL_RCCEx_GetPeriphCLKFreq+0x11e>
      break;
10046fdc:	46c0      	nop			@ (mov r8, r8)
  }
  return (frequency);
10046fde:	697b      	ldr	r3, [r7, #20]
}
10046fe0:	0018      	movs	r0, r3
10046fe2:	46bd      	mov	sp, r7
10046fe4:	b006      	add	sp, #24
10046fe6:	bd80      	pop	{r7, pc}
10046fe8:	00f42400 	.word	0x00f42400
10046fec:	02dc6c00 	.word	0x02dc6c00
10046ff0:	03d09000 	.word	0x03d09000
10046ff4:	007a1200 	.word	0x007a1200
10046ff8:	003d0900 	.word	0x003d0900
10046ffc:	016e3600 	.word	0x016e3600
10047000:	01e84800 	.word	0x01e84800
10047004:	00b71b00 	.word	0x00b71b00

10047008 <HAL_SPI_Init>:
  * @param  hspi pointer to a SPI_HandleTypeDef structure that contains
  *               the configuration information for SPI module.
  * @retval HAL status
  */
HAL_StatusTypeDef HAL_SPI_Init(SPI_HandleTypeDef *hspi)
{
10047008:	b580      	push	{r7, lr}
1004700a:	b084      	sub	sp, #16
1004700c:	af00      	add	r7, sp, #0
1004700e:	6078      	str	r0, [r7, #4]
  uint32_t frxth;

  /* Check the SPI handle allocation */
  if (hspi == NULL)
10047010:	687b      	ldr	r3, [r7, #4]
10047012:	2b00      	cmp	r3, #0
10047014:	d101      	bne.n	1004701a <HAL_SPI_Init+0x12>
  {
    return HAL_ERROR;
10047016:	2301      	movs	r3, #1
10047018:	e0a8      	b.n	1004716c <HAL_SPI_Init+0x164>
  assert_param(IS_SPI_NSS(hspi->Init.NSS));
  assert_param(IS_SPI_NSSP(hspi->Init.NSSPMode));
  assert_param(IS_SPI_BAUDRATE_PRESCALER(hspi->Init.BaudRatePrescaler));
  assert_param(IS_SPI_FIRST_BIT(hspi->Init.FirstBit));
  assert_param(IS_SPI_TIMODE(hspi->Init.TIMode));
  if (hspi->Init.TIMode == SPI_TIMODE_DISABLE)
1004701a:	687b      	ldr	r3, [r7, #4]
1004701c:	6a5b      	ldr	r3, [r3, #36]	@ 0x24
1004701e:	2b00      	cmp	r3, #0
10047020:	d109      	bne.n	10047036 <HAL_SPI_Init+0x2e>
  {
    assert_param(IS_SPI_CPOL(hspi->Init.CLKPolarity));
    assert_param(IS_SPI_CPHA(hspi->Init.CLKPhase));

    if (hspi->Init.Mode == SPI_MODE_MASTER)
10047022:	687b      	ldr	r3, [r7, #4]
10047024:	685a      	ldr	r2, [r3, #4]
10047026:	2382      	movs	r3, #130	@ 0x82
10047028:	005b      	lsls	r3, r3, #1
1004702a:	429a      	cmp	r2, r3
1004702c:	d009      	beq.n	10047042 <HAL_SPI_Init+0x3a>
      assert_param(IS_SPI_BAUDRATE_PRESCALER(hspi->Init.BaudRatePrescaler));
    }
    else
    {
      /* Baudrate prescaler not use in Motoraola Slave mode. force to default value */
      hspi->Init.BaudRatePrescaler = SPI_BAUDRATEPRESCALER_2;
1004702e:	687b      	ldr	r3, [r7, #4]
10047030:	2200      	movs	r2, #0
10047032:	61da      	str	r2, [r3, #28]
10047034:	e005      	b.n	10047042 <HAL_SPI_Init+0x3a>
  else
  {
    assert_param(IS_SPI_BAUDRATE_PRESCALER(hspi->Init.BaudRatePrescaler));

    /* Force polarity and phase to TI protocaol requirements */
    hspi->Init.CLKPolarity = SPI_POLARITY_LOW;
10047036:	687b      	ldr	r3, [r7, #4]
10047038:	2200      	movs	r2, #0
1004703a:	611a      	str	r2, [r3, #16]
    hspi->Init.CLKPhase    = SPI_PHASE_1EDGE;
1004703c:	687b      	ldr	r3, [r7, #4]
1004703e:	2200      	movs	r2, #0
10047040:	615a      	str	r2, [r3, #20]
  {
    assert_param(IS_SPI_CRC_POLYNOMIAL(hspi->Init.CRCPolynomial));
    assert_param(IS_SPI_CRC_LENGTH(hspi->Init.CRCLength));
  }
#else
  hspi->Init.CRCCalculation = SPI_CRCCALCULATION_DISABLE;
10047042:	687b      	ldr	r3, [r7, #4]
10047044:	2200      	movs	r2, #0
10047046:	629a      	str	r2, [r3, #40]	@ 0x28
#endif /* USE_SPI_CRC */

  if (hspi->State == HAL_SPI_STATE_RESET)
10047048:	687b      	ldr	r3, [r7, #4]
1004704a:	225d      	movs	r2, #93	@ 0x5d
1004704c:	5c9b      	ldrb	r3, [r3, r2]
1004704e:	b2db      	uxtb	r3, r3
10047050:	2b00      	cmp	r3, #0
10047052:	d107      	bne.n	10047064 <HAL_SPI_Init+0x5c>
  {
    /* Allocate lock resource and initialize it */
    hspi->Lock = HAL_UNLOCKED;
10047054:	687b      	ldr	r3, [r7, #4]
10047056:	225c      	movs	r2, #92	@ 0x5c
10047058:	2100      	movs	r1, #0
1004705a:	5499      	strb	r1, [r3, r2]

    /* Init the low level hardware : GPIO, CLOCK, NVIC... */
    hspi->MspInitCallback(hspi);
#else
    /* Init the low level hardware : GPIO, CLOCK, NVIC... */
    HAL_SPI_MspInit(hspi);
1004705c:	687b      	ldr	r3, [r7, #4]
1004705e:	0018      	movs	r0, r3
10047060:	f7fc fc9c 	bl	1004399c <HAL_SPI_MspInit>
#endif /* USE_HAL_SPI_REGISTER_CALLBACKS */
  }

  hspi->State = HAL_SPI_STATE_BUSY;
10047064:	687b      	ldr	r3, [r7, #4]
10047066:	225d      	movs	r2, #93	@ 0x5d
10047068:	2102      	movs	r1, #2
1004706a:	5499      	strb	r1, [r3, r2]

  /* Disable the selected SPI peripheral */
  __HAL_SPI_DISABLE(hspi);
1004706c:	687b      	ldr	r3, [r7, #4]
1004706e:	681b      	ldr	r3, [r3, #0]
10047070:	681a      	ldr	r2, [r3, #0]
10047072:	687b      	ldr	r3, [r7, #4]
10047074:	681b      	ldr	r3, [r3, #0]
10047076:	2140      	movs	r1, #64	@ 0x40
10047078:	438a      	bics	r2, r1
1004707a:	601a      	str	r2, [r3, #0]

  /* Align by default the rs fifo threshold on the data size */
  if (hspi->Init.DataSize > SPI_DATASIZE_8BIT)
1004707c:	687b      	ldr	r3, [r7, #4]
1004707e:	68da      	ldr	r2, [r3, #12]
10047080:	23e0      	movs	r3, #224	@ 0xe0
10047082:	00db      	lsls	r3, r3, #3
10047084:	429a      	cmp	r2, r3
10047086:	d902      	bls.n	1004708e <HAL_SPI_Init+0x86>
  {
    frxth = SPI_RXFIFO_THRESHOLD_HF;
10047088:	2300      	movs	r3, #0
1004708a:	60fb      	str	r3, [r7, #12]
1004708c:	e002      	b.n	10047094 <HAL_SPI_Init+0x8c>
  }
  else
  {
    frxth = SPI_RXFIFO_THRESHOLD_QF;
1004708e:	2380      	movs	r3, #128	@ 0x80
10047090:	015b      	lsls	r3, r3, #5
10047092:	60fb      	str	r3, [r7, #12]
  }

  /* CRC calculation is valid only for 16Bit and 8 Bit */
  if ((hspi->Init.DataSize != SPI_DATASIZE_16BIT) && (hspi->Init.DataSize != SPI_DATASIZE_8BIT))
10047094:	687b      	ldr	r3, [r7, #4]
10047096:	68da      	ldr	r2, [r3, #12]
10047098:	23f0      	movs	r3, #240	@ 0xf0
1004709a:	011b      	lsls	r3, r3, #4
1004709c:	429a      	cmp	r2, r3
1004709e:	d008      	beq.n	100470b2 <HAL_SPI_Init+0xaa>
100470a0:	687b      	ldr	r3, [r7, #4]
100470a2:	68da      	ldr	r2, [r3, #12]
100470a4:	23e0      	movs	r3, #224	@ 0xe0
100470a6:	00db      	lsls	r3, r3, #3
100470a8:	429a      	cmp	r2, r3
100470aa:	d002      	beq.n	100470b2 <HAL_SPI_Init+0xaa>
  {
    /* CRC must be disabled */
    hspi->Init.CRCCalculation = SPI_CRCCALCULATION_DISABLE;
100470ac:	687b      	ldr	r3, [r7, #4]
100470ae:	2200      	movs	r2, #0
100470b0:	629a      	str	r2, [r3, #40]	@ 0x28
  }

  /*----------------------- SPIx CR1 & CR2 Configuration ---------------------*/
  /* Configure : SPI Mode, Communication Mode, Clock polarity and phase, NSS management,
  Communication speed, First bit and CRC calculation state */
  WRITE_REG(hspi->Instance->CR1, ((hspi->Init.Mode & (SPI_CR1_MSTR | SPI_CR1_SSI)) |
100470b2:	687b      	ldr	r3, [r7, #4]
100470b4:	685a      	ldr	r2, [r3, #4]
100470b6:	2382      	movs	r3, #130	@ 0x82
100470b8:	005b      	lsls	r3, r3, #1
100470ba:	401a      	ands	r2, r3
100470bc:	687b      	ldr	r3, [r7, #4]
100470be:	6899      	ldr	r1, [r3, #8]
100470c0:	2384      	movs	r3, #132	@ 0x84
100470c2:	021b      	lsls	r3, r3, #8
100470c4:	400b      	ands	r3, r1
100470c6:	431a      	orrs	r2, r3
100470c8:	687b      	ldr	r3, [r7, #4]
100470ca:	691b      	ldr	r3, [r3, #16]
100470cc:	2102      	movs	r1, #2
100470ce:	400b      	ands	r3, r1
100470d0:	431a      	orrs	r2, r3
100470d2:	687b      	ldr	r3, [r7, #4]
100470d4:	695b      	ldr	r3, [r3, #20]
100470d6:	2101      	movs	r1, #1
100470d8:	400b      	ands	r3, r1
100470da:	431a      	orrs	r2, r3
100470dc:	687b      	ldr	r3, [r7, #4]
100470de:	6999      	ldr	r1, [r3, #24]
100470e0:	2380      	movs	r3, #128	@ 0x80
100470e2:	009b      	lsls	r3, r3, #2
100470e4:	400b      	ands	r3, r1
100470e6:	431a      	orrs	r2, r3
100470e8:	687b      	ldr	r3, [r7, #4]
100470ea:	69db      	ldr	r3, [r3, #28]
100470ec:	2138      	movs	r1, #56	@ 0x38
100470ee:	400b      	ands	r3, r1
100470f0:	431a      	orrs	r2, r3
100470f2:	687b      	ldr	r3, [r7, #4]
100470f4:	6a1b      	ldr	r3, [r3, #32]
100470f6:	2180      	movs	r1, #128	@ 0x80
100470f8:	400b      	ands	r3, r1
100470fa:	431a      	orrs	r2, r3
100470fc:	0011      	movs	r1, r2
100470fe:	687b      	ldr	r3, [r7, #4]
10047100:	6a9a      	ldr	r2, [r3, #40]	@ 0x28
10047102:	2380      	movs	r3, #128	@ 0x80
10047104:	019b      	lsls	r3, r3, #6
10047106:	401a      	ands	r2, r3
10047108:	687b      	ldr	r3, [r7, #4]
1004710a:	681b      	ldr	r3, [r3, #0]
1004710c:	430a      	orrs	r2, r1
1004710e:	601a      	str	r2, [r3, #0]
    }
  }
#endif /* USE_SPI_CRC */

  /* Configure : NSS management, TI Mode, NSS Pulse, Data size and Rx Fifo threshold */
  WRITE_REG(hspi->Instance->CR2, (((hspi->Init.NSS >> 16U) & SPI_CR2_SSOE) |
10047110:	687b      	ldr	r3, [r7, #4]
10047112:	699b      	ldr	r3, [r3, #24]
10047114:	0c1b      	lsrs	r3, r3, #16
10047116:	2204      	movs	r2, #4
10047118:	401a      	ands	r2, r3
1004711a:	687b      	ldr	r3, [r7, #4]
1004711c:	6a5b      	ldr	r3, [r3, #36]	@ 0x24
1004711e:	2110      	movs	r1, #16
10047120:	400b      	ands	r3, r1
10047122:	431a      	orrs	r2, r3
10047124:	687b      	ldr	r3, [r7, #4]
10047126:	6b5b      	ldr	r3, [r3, #52]	@ 0x34
10047128:	2108      	movs	r1, #8
1004712a:	400b      	ands	r3, r1
1004712c:	431a      	orrs	r2, r3
1004712e:	687b      	ldr	r3, [r7, #4]
10047130:	68d9      	ldr	r1, [r3, #12]
10047132:	23f0      	movs	r3, #240	@ 0xf0
10047134:	011b      	lsls	r3, r3, #4
10047136:	400b      	ands	r3, r1
10047138:	431a      	orrs	r2, r3
1004713a:	0011      	movs	r1, r2
1004713c:	68fa      	ldr	r2, [r7, #12]
1004713e:	2380      	movs	r3, #128	@ 0x80
10047140:	015b      	lsls	r3, r3, #5
10047142:	401a      	ands	r2, r3
10047144:	687b      	ldr	r3, [r7, #4]
10047146:	681b      	ldr	r3, [r3, #0]
10047148:	430a      	orrs	r2, r1
1004714a:	605a      	str	r2, [r3, #4]
  }
#endif /* USE_SPI_CRC */

#if defined(SPI_I2SCFGR_I2SMOD)
  /* Activate the SPI mode (Make sure that I2SMOD bit in I2SCFGR register is reset) */
  CLEAR_BIT(hspi->Instance->I2SCFGR, SPI_I2SCFGR_I2SMOD);
1004714c:	687b      	ldr	r3, [r7, #4]
1004714e:	681b      	ldr	r3, [r3, #0]
10047150:	69da      	ldr	r2, [r3, #28]
10047152:	687b      	ldr	r3, [r7, #4]
10047154:	681b      	ldr	r3, [r3, #0]
10047156:	4907      	ldr	r1, [pc, #28]	@ (10047174 <HAL_SPI_Init+0x16c>)
10047158:	400a      	ands	r2, r1
1004715a:	61da      	str	r2, [r3, #28]
#endif /* SPI_I2SCFGR_I2SMOD */

  hspi->ErrorCode = HAL_SPI_ERROR_NONE;
1004715c:	687b      	ldr	r3, [r7, #4]
1004715e:	2200      	movs	r2, #0
10047160:	661a      	str	r2, [r3, #96]	@ 0x60
  hspi->State     = HAL_SPI_STATE_READY;
10047162:	687b      	ldr	r3, [r7, #4]
10047164:	225d      	movs	r2, #93	@ 0x5d
10047166:	2101      	movs	r1, #1
10047168:	5499      	strb	r1, [r3, r2]

  return HAL_OK;
1004716a:	2300      	movs	r3, #0
}
1004716c:	0018      	movs	r0, r3
1004716e:	46bd      	mov	sp, r7
10047170:	b004      	add	sp, #16
10047172:	bd80      	pop	{r7, pc}
10047174:	fffff7ff 	.word	0xfffff7ff

10047178 <HAL_SPI_Transmit>:
  * @param  Size amount of data elements (u8 or u16) to be sent
  * @param  Timeout Timeout duration in ms
  * @retval HAL status
  */
HAL_StatusTypeDef HAL_SPI_Transmit(SPI_HandleTypeDef *hspi, const uint8_t *pData, uint16_t Size, uint32_t Timeout)
{
10047178:	b580      	push	{r7, lr}
1004717a:	b088      	sub	sp, #32
1004717c:	af00      	add	r7, sp, #0
1004717e:	60f8      	str	r0, [r7, #12]
10047180:	60b9      	str	r1, [r7, #8]
10047182:	603b      	str	r3, [r7, #0]
10047184:	1dbb      	adds	r3, r7, #6
10047186:	801a      	strh	r2, [r3, #0]

  /* Check Direction parameter */
  assert_param(IS_SPI_DIRECTION_2LINES_OR_1LINE(hspi->Init.Direction));

  /* Init tickstart for timeout management*/
  tickstart = HAL_GetTick();
10047188:	f7fc ff24 	bl	10043fd4 <HAL_GetTick>
1004718c:	0003      	movs	r3, r0
1004718e:	61fb      	str	r3, [r7, #28]
  initial_TxXferCount = Size;
10047190:	231a      	movs	r3, #26
10047192:	18fb      	adds	r3, r7, r3
10047194:	1dba      	adds	r2, r7, #6
10047196:	8812      	ldrh	r2, [r2, #0]
10047198:	801a      	strh	r2, [r3, #0]

  if (hspi->State != HAL_SPI_STATE_READY)
1004719a:	68fb      	ldr	r3, [r7, #12]
1004719c:	225d      	movs	r2, #93	@ 0x5d
1004719e:	5c9b      	ldrb	r3, [r3, r2]
100471a0:	b2db      	uxtb	r3, r3
100471a2:	2b01      	cmp	r3, #1
100471a4:	d001      	beq.n	100471aa <HAL_SPI_Transmit+0x32>
  {
    return HAL_BUSY;
100471a6:	2302      	movs	r3, #2
100471a8:	e165      	b.n	10047476 <HAL_SPI_Transmit+0x2fe>
  }

  if ((pData == NULL) || (Size == 0U))
100471aa:	68bb      	ldr	r3, [r7, #8]
100471ac:	2b00      	cmp	r3, #0
100471ae:	d003      	beq.n	100471b8 <HAL_SPI_Transmit+0x40>
100471b0:	1dbb      	adds	r3, r7, #6
100471b2:	881b      	ldrh	r3, [r3, #0]
100471b4:	2b00      	cmp	r3, #0
100471b6:	d101      	bne.n	100471bc <HAL_SPI_Transmit+0x44>
  {
    return HAL_ERROR;
100471b8:	2301      	movs	r3, #1
100471ba:	e15c      	b.n	10047476 <HAL_SPI_Transmit+0x2fe>
  }

  /* Process Locked */
  __HAL_LOCK(hspi);
100471bc:	68fb      	ldr	r3, [r7, #12]
100471be:	225c      	movs	r2, #92	@ 0x5c
100471c0:	5c9b      	ldrb	r3, [r3, r2]
100471c2:	2b01      	cmp	r3, #1
100471c4:	d101      	bne.n	100471ca <HAL_SPI_Transmit+0x52>
100471c6:	2302      	movs	r3, #2
100471c8:	e155      	b.n	10047476 <HAL_SPI_Transmit+0x2fe>
100471ca:	68fb      	ldr	r3, [r7, #12]
100471cc:	225c      	movs	r2, #92	@ 0x5c
100471ce:	2101      	movs	r1, #1
100471d0:	5499      	strb	r1, [r3, r2]

  /* Set the transaction information */
  hspi->State       = HAL_SPI_STATE_BUSY_TX;
100471d2:	68fb      	ldr	r3, [r7, #12]
100471d4:	225d      	movs	r2, #93	@ 0x5d
100471d6:	2103      	movs	r1, #3
100471d8:	5499      	strb	r1, [r3, r2]
  hspi->ErrorCode   = HAL_SPI_ERROR_NONE;
100471da:	68fb      	ldr	r3, [r7, #12]
100471dc:	2200      	movs	r2, #0
100471de:	661a      	str	r2, [r3, #96]	@ 0x60
  hspi->pTxBuffPtr  = (const uint8_t *)pData;
100471e0:	68fb      	ldr	r3, [r7, #12]
100471e2:	68ba      	ldr	r2, [r7, #8]
100471e4:	639a      	str	r2, [r3, #56]	@ 0x38
  hspi->TxXferSize  = Size;
100471e6:	68fb      	ldr	r3, [r7, #12]
100471e8:	1dba      	adds	r2, r7, #6
100471ea:	8812      	ldrh	r2, [r2, #0]
100471ec:	879a      	strh	r2, [r3, #60]	@ 0x3c
  hspi->TxXferCount = Size;
100471ee:	68fb      	ldr	r3, [r7, #12]
100471f0:	1dba      	adds	r2, r7, #6
100471f2:	8812      	ldrh	r2, [r2, #0]
100471f4:	87da      	strh	r2, [r3, #62]	@ 0x3e

  /*Init field not used in handle to zero */
  hspi->pRxBuffPtr  = (uint8_t *)NULL;
100471f6:	68fb      	ldr	r3, [r7, #12]
100471f8:	2200      	movs	r2, #0
100471fa:	641a      	str	r2, [r3, #64]	@ 0x40
  hspi->RxXferSize  = 0U;
100471fc:	68fb      	ldr	r3, [r7, #12]
100471fe:	2244      	movs	r2, #68	@ 0x44
10047200:	2100      	movs	r1, #0
10047202:	5299      	strh	r1, [r3, r2]
  hspi->RxXferCount = 0U;
10047204:	68fb      	ldr	r3, [r7, #12]
10047206:	2246      	movs	r2, #70	@ 0x46
10047208:	2100      	movs	r1, #0
1004720a:	5299      	strh	r1, [r3, r2]
  hspi->TxISR       = NULL;
1004720c:	68fb      	ldr	r3, [r7, #12]
1004720e:	2200      	movs	r2, #0
10047210:	651a      	str	r2, [r3, #80]	@ 0x50
  hspi->RxISR       = NULL;
10047212:	68fb      	ldr	r3, [r7, #12]
10047214:	2200      	movs	r2, #0
10047216:	64da      	str	r2, [r3, #76]	@ 0x4c

  /* Configure communication direction : 1Line */
  if (hspi->Init.Direction == SPI_DIRECTION_1LINE)
10047218:	68fb      	ldr	r3, [r7, #12]
1004721a:	689a      	ldr	r2, [r3, #8]
1004721c:	2380      	movs	r3, #128	@ 0x80
1004721e:	021b      	lsls	r3, r3, #8
10047220:	429a      	cmp	r2, r3
10047222:	d110      	bne.n	10047246 <HAL_SPI_Transmit+0xce>
  {
    /* Disable SPI Peripheral before set 1Line direction (BIDIOE bit) */
    __HAL_SPI_DISABLE(hspi);
10047224:	68fb      	ldr	r3, [r7, #12]
10047226:	681b      	ldr	r3, [r3, #0]
10047228:	681a      	ldr	r2, [r3, #0]
1004722a:	68fb      	ldr	r3, [r7, #12]
1004722c:	681b      	ldr	r3, [r3, #0]
1004722e:	2140      	movs	r1, #64	@ 0x40
10047230:	438a      	bics	r2, r1
10047232:	601a      	str	r2, [r3, #0]
    SPI_1LINE_TX(hspi);
10047234:	68fb      	ldr	r3, [r7, #12]
10047236:	681b      	ldr	r3, [r3, #0]
10047238:	681a      	ldr	r2, [r3, #0]
1004723a:	68fb      	ldr	r3, [r7, #12]
1004723c:	681b      	ldr	r3, [r3, #0]
1004723e:	2180      	movs	r1, #128	@ 0x80
10047240:	01c9      	lsls	r1, r1, #7
10047242:	430a      	orrs	r2, r1
10047244:	601a      	str	r2, [r3, #0]
    SPI_RESET_CRC(hspi);
  }
#endif /* USE_SPI_CRC */

  /* Check if the SPI is already enabled */
  if ((hspi->Instance->CR1 & SPI_CR1_SPE) != SPI_CR1_SPE)
10047246:	68fb      	ldr	r3, [r7, #12]
10047248:	681b      	ldr	r3, [r3, #0]
1004724a:	681b      	ldr	r3, [r3, #0]
1004724c:	2240      	movs	r2, #64	@ 0x40
1004724e:	4013      	ands	r3, r2
10047250:	2b40      	cmp	r3, #64	@ 0x40
10047252:	d007      	beq.n	10047264 <HAL_SPI_Transmit+0xec>
  {
    /* Enable SPI peripheral */
    __HAL_SPI_ENABLE(hspi);
10047254:	68fb      	ldr	r3, [r7, #12]
10047256:	681b      	ldr	r3, [r3, #0]
10047258:	681a      	ldr	r2, [r3, #0]
1004725a:	68fb      	ldr	r3, [r7, #12]
1004725c:	681b      	ldr	r3, [r3, #0]
1004725e:	2140      	movs	r1, #64	@ 0x40
10047260:	430a      	orrs	r2, r1
10047262:	601a      	str	r2, [r3, #0]
  }

  /* Transmit data in 16 Bit mode */
  if (hspi->Init.DataSize > SPI_DATASIZE_8BIT)
10047264:	68fb      	ldr	r3, [r7, #12]
10047266:	68da      	ldr	r2, [r3, #12]
10047268:	23e0      	movs	r3, #224	@ 0xe0
1004726a:	00db      	lsls	r3, r3, #3
1004726c:	429a      	cmp	r2, r3
1004726e:	d953      	bls.n	10047318 <HAL_SPI_Transmit+0x1a0>
  {
    if ((hspi->Init.Mode == SPI_MODE_SLAVE) || (initial_TxXferCount == 0x01U))
10047270:	68fb      	ldr	r3, [r7, #12]
10047272:	685b      	ldr	r3, [r3, #4]
10047274:	2b00      	cmp	r3, #0
10047276:	d004      	beq.n	10047282 <HAL_SPI_Transmit+0x10a>
10047278:	231a      	movs	r3, #26
1004727a:	18fb      	adds	r3, r7, r3
1004727c:	881b      	ldrh	r3, [r3, #0]
1004727e:	2b01      	cmp	r3, #1
10047280:	d144      	bne.n	1004730c <HAL_SPI_Transmit+0x194>
    {
      hspi->Instance->DR = *((const uint16_t *)hspi->pTxBuffPtr);
10047282:	68fb      	ldr	r3, [r7, #12]
10047284:	6b9b      	ldr	r3, [r3, #56]	@ 0x38
10047286:	881a      	ldrh	r2, [r3, #0]
10047288:	68fb      	ldr	r3, [r7, #12]
1004728a:	681b      	ldr	r3, [r3, #0]
1004728c:	60da      	str	r2, [r3, #12]
      hspi->pTxBuffPtr += sizeof(uint16_t);
1004728e:	68fb      	ldr	r3, [r7, #12]
10047290:	6b9b      	ldr	r3, [r3, #56]	@ 0x38
10047292:	1c9a      	adds	r2, r3, #2
10047294:	68fb      	ldr	r3, [r7, #12]
10047296:	639a      	str	r2, [r3, #56]	@ 0x38
      hspi->TxXferCount--;
10047298:	68fb      	ldr	r3, [r7, #12]
1004729a:	8fdb      	ldrh	r3, [r3, #62]	@ 0x3e
1004729c:	b29b      	uxth	r3, r3
1004729e:	3b01      	subs	r3, #1
100472a0:	b29a      	uxth	r2, r3
100472a2:	68fb      	ldr	r3, [r7, #12]
100472a4:	87da      	strh	r2, [r3, #62]	@ 0x3e
    }
    /* Transmit data in 16 Bit mode */
    while (hspi->TxXferCount > 0U)
100472a6:	e031      	b.n	1004730c <HAL_SPI_Transmit+0x194>
    {
      /* Wait until TXE flag is set to send data */
      if (__HAL_SPI_GET_FLAG(hspi, SPI_FLAG_TXE))
100472a8:	68fb      	ldr	r3, [r7, #12]
100472aa:	681b      	ldr	r3, [r3, #0]
100472ac:	689b      	ldr	r3, [r3, #8]
100472ae:	2202      	movs	r2, #2
100472b0:	4013      	ands	r3, r2
100472b2:	2b02      	cmp	r3, #2
100472b4:	d112      	bne.n	100472dc <HAL_SPI_Transmit+0x164>
      {
        hspi->Instance->DR = *((const uint16_t *)hspi->pTxBuffPtr);
100472b6:	68fb      	ldr	r3, [r7, #12]
100472b8:	6b9b      	ldr	r3, [r3, #56]	@ 0x38
100472ba:	881a      	ldrh	r2, [r3, #0]
100472bc:	68fb      	ldr	r3, [r7, #12]
100472be:	681b      	ldr	r3, [r3, #0]
100472c0:	60da      	str	r2, [r3, #12]
        hspi->pTxBuffPtr += sizeof(uint16_t);
100472c2:	68fb      	ldr	r3, [r7, #12]
100472c4:	6b9b      	ldr	r3, [r3, #56]	@ 0x38
100472c6:	1c9a      	adds	r2, r3, #2
100472c8:	68fb      	ldr	r3, [r7, #12]
100472ca:	639a      	str	r2, [r3, #56]	@ 0x38
        hspi->TxXferCount--;
100472cc:	68fb      	ldr	r3, [r7, #12]
100472ce:	8fdb      	ldrh	r3, [r3, #62]	@ 0x3e
100472d0:	b29b      	uxth	r3, r3
100472d2:	3b01      	subs	r3, #1
100472d4:	b29a      	uxth	r2, r3
100472d6:	68fb      	ldr	r3, [r7, #12]
100472d8:	87da      	strh	r2, [r3, #62]	@ 0x3e
100472da:	e017      	b.n	1004730c <HAL_SPI_Transmit+0x194>
      }
      else
      {
        /* Timeout management */
        if ((((HAL_GetTick() - tickstart) >=  Timeout) && (Timeout != HAL_MAX_DELAY)) || (Timeout == 0U))
100472dc:	f7fc fe7a 	bl	10043fd4 <HAL_GetTick>
100472e0:	0002      	movs	r2, r0
100472e2:	69fb      	ldr	r3, [r7, #28]
100472e4:	1ad3      	subs	r3, r2, r3
100472e6:	683a      	ldr	r2, [r7, #0]
100472e8:	429a      	cmp	r2, r3
100472ea:	d802      	bhi.n	100472f2 <HAL_SPI_Transmit+0x17a>
100472ec:	683b      	ldr	r3, [r7, #0]
100472ee:	3301      	adds	r3, #1
100472f0:	d102      	bne.n	100472f8 <HAL_SPI_Transmit+0x180>
100472f2:	683b      	ldr	r3, [r7, #0]
100472f4:	2b00      	cmp	r3, #0
100472f6:	d109      	bne.n	1004730c <HAL_SPI_Transmit+0x194>
        {
          hspi->State = HAL_SPI_STATE_READY;
100472f8:	68fb      	ldr	r3, [r7, #12]
100472fa:	225d      	movs	r2, #93	@ 0x5d
100472fc:	2101      	movs	r1, #1
100472fe:	5499      	strb	r1, [r3, r2]
          __HAL_UNLOCK(hspi);
10047300:	68fb      	ldr	r3, [r7, #12]
10047302:	225c      	movs	r2, #92	@ 0x5c
10047304:	2100      	movs	r1, #0
10047306:	5499      	strb	r1, [r3, r2]
          return HAL_TIMEOUT;
10047308:	2303      	movs	r3, #3
1004730a:	e0b4      	b.n	10047476 <HAL_SPI_Transmit+0x2fe>
    while (hspi->TxXferCount > 0U)
1004730c:	68fb      	ldr	r3, [r7, #12]
1004730e:	8fdb      	ldrh	r3, [r3, #62]	@ 0x3e
10047310:	b29b      	uxth	r3, r3
10047312:	2b00      	cmp	r3, #0
10047314:	d1c8      	bne.n	100472a8 <HAL_SPI_Transmit+0x130>
10047316:	e085      	b.n	10047424 <HAL_SPI_Transmit+0x2ac>
    }
  }
  /* Transmit data in 8 Bit mode */
  else
  {
    if ((hspi->Init.Mode == SPI_MODE_SLAVE) || (initial_TxXferCount == 0x01U))
10047318:	68fb      	ldr	r3, [r7, #12]
1004731a:	685b      	ldr	r3, [r3, #4]
1004731c:	2b00      	cmp	r3, #0
1004731e:	d005      	beq.n	1004732c <HAL_SPI_Transmit+0x1b4>
10047320:	231a      	movs	r3, #26
10047322:	18fb      	adds	r3, r7, r3
10047324:	881b      	ldrh	r3, [r3, #0]
10047326:	2b01      	cmp	r3, #1
10047328:	d000      	beq.n	1004732c <HAL_SPI_Transmit+0x1b4>
1004732a:	e076      	b.n	1004741a <HAL_SPI_Transmit+0x2a2>
    {
      if (hspi->TxXferCount > 1U)
1004732c:	68fb      	ldr	r3, [r7, #12]
1004732e:	8fdb      	ldrh	r3, [r3, #62]	@ 0x3e
10047330:	b29b      	uxth	r3, r3
10047332:	2b01      	cmp	r3, #1
10047334:	d912      	bls.n	1004735c <HAL_SPI_Transmit+0x1e4>
      {
        /* write on the data register in packing mode */
        hspi->Instance->DR = *((const uint16_t *)hspi->pTxBuffPtr);
10047336:	68fb      	ldr	r3, [r7, #12]
10047338:	6b9b      	ldr	r3, [r3, #56]	@ 0x38
1004733a:	881a      	ldrh	r2, [r3, #0]
1004733c:	68fb      	ldr	r3, [r7, #12]
1004733e:	681b      	ldr	r3, [r3, #0]
10047340:	60da      	str	r2, [r3, #12]
        hspi->pTxBuffPtr += sizeof(uint16_t);
10047342:	68fb      	ldr	r3, [r7, #12]
10047344:	6b9b      	ldr	r3, [r3, #56]	@ 0x38
10047346:	1c9a      	adds	r2, r3, #2
10047348:	68fb      	ldr	r3, [r7, #12]
1004734a:	639a      	str	r2, [r3, #56]	@ 0x38
        hspi->TxXferCount -= 2U;
1004734c:	68fb      	ldr	r3, [r7, #12]
1004734e:	8fdb      	ldrh	r3, [r3, #62]	@ 0x3e
10047350:	b29b      	uxth	r3, r3
10047352:	3b02      	subs	r3, #2
10047354:	b29a      	uxth	r2, r3
10047356:	68fb      	ldr	r3, [r7, #12]
10047358:	87da      	strh	r2, [r3, #62]	@ 0x3e
1004735a:	e05e      	b.n	1004741a <HAL_SPI_Transmit+0x2a2>
      }
      else
      {
        *((__IO uint8_t *)&hspi->Instance->DR) = *((const uint8_t *)hspi->pTxBuffPtr);
1004735c:	68fb      	ldr	r3, [r7, #12]
1004735e:	6b9a      	ldr	r2, [r3, #56]	@ 0x38
10047360:	68fb      	ldr	r3, [r7, #12]
10047362:	681b      	ldr	r3, [r3, #0]
10047364:	330c      	adds	r3, #12
10047366:	7812      	ldrb	r2, [r2, #0]
10047368:	701a      	strb	r2, [r3, #0]
        hspi->pTxBuffPtr ++;
1004736a:	68fb      	ldr	r3, [r7, #12]
1004736c:	6b9b      	ldr	r3, [r3, #56]	@ 0x38
1004736e:	1c5a      	adds	r2, r3, #1
10047370:	68fb      	ldr	r3, [r7, #12]
10047372:	639a      	str	r2, [r3, #56]	@ 0x38
        hspi->TxXferCount--;
10047374:	68fb      	ldr	r3, [r7, #12]
10047376:	8fdb      	ldrh	r3, [r3, #62]	@ 0x3e
10047378:	b29b      	uxth	r3, r3
1004737a:	3b01      	subs	r3, #1
1004737c:	b29a      	uxth	r2, r3
1004737e:	68fb      	ldr	r3, [r7, #12]
10047380:	87da      	strh	r2, [r3, #62]	@ 0x3e
      }
    }
    while (hspi->TxXferCount > 0U)
10047382:	e04a      	b.n	1004741a <HAL_SPI_Transmit+0x2a2>
    {
      /* Wait until TXE flag is set to send data */
      if (__HAL_SPI_GET_FLAG(hspi, SPI_FLAG_TXE))
10047384:	68fb      	ldr	r3, [r7, #12]
10047386:	681b      	ldr	r3, [r3, #0]
10047388:	689b      	ldr	r3, [r3, #8]
1004738a:	2202      	movs	r2, #2
1004738c:	4013      	ands	r3, r2
1004738e:	2b02      	cmp	r3, #2
10047390:	d12b      	bne.n	100473ea <HAL_SPI_Transmit+0x272>
      {
        if (hspi->TxXferCount > 1U)
10047392:	68fb      	ldr	r3, [r7, #12]
10047394:	8fdb      	ldrh	r3, [r3, #62]	@ 0x3e
10047396:	b29b      	uxth	r3, r3
10047398:	2b01      	cmp	r3, #1
1004739a:	d912      	bls.n	100473c2 <HAL_SPI_Transmit+0x24a>
        {
          /* write on the data register in packing mode */
          hspi->Instance->DR = *((const uint16_t *)hspi->pTxBuffPtr);
1004739c:	68fb      	ldr	r3, [r7, #12]
1004739e:	6b9b      	ldr	r3, [r3, #56]	@ 0x38
100473a0:	881a      	ldrh	r2, [r3, #0]
100473a2:	68fb      	ldr	r3, [r7, #12]
100473a4:	681b      	ldr	r3, [r3, #0]
100473a6:	60da      	str	r2, [r3, #12]
          hspi->pTxBuffPtr += sizeof(uint16_t);
100473a8:	68fb      	ldr	r3, [r7, #12]
100473aa:	6b9b      	ldr	r3, [r3, #56]	@ 0x38
100473ac:	1c9a      	adds	r2, r3, #2
100473ae:	68fb      	ldr	r3, [r7, #12]
100473b0:	639a      	str	r2, [r3, #56]	@ 0x38
          hspi->TxXferCount -= 2U;
100473b2:	68fb      	ldr	r3, [r7, #12]
100473b4:	8fdb      	ldrh	r3, [r3, #62]	@ 0x3e
100473b6:	b29b      	uxth	r3, r3
100473b8:	3b02      	subs	r3, #2
100473ba:	b29a      	uxth	r2, r3
100473bc:	68fb      	ldr	r3, [r7, #12]
100473be:	87da      	strh	r2, [r3, #62]	@ 0x3e
100473c0:	e02b      	b.n	1004741a <HAL_SPI_Transmit+0x2a2>
        }
        else
        {
          *((__IO uint8_t *)&hspi->Instance->DR) = *((const uint8_t *)hspi->pTxBuffPtr);
100473c2:	68fb      	ldr	r3, [r7, #12]
100473c4:	6b9a      	ldr	r2, [r3, #56]	@ 0x38
100473c6:	68fb      	ldr	r3, [r7, #12]
100473c8:	681b      	ldr	r3, [r3, #0]
100473ca:	330c      	adds	r3, #12
100473cc:	7812      	ldrb	r2, [r2, #0]
100473ce:	701a      	strb	r2, [r3, #0]
          hspi->pTxBuffPtr++;
100473d0:	68fb      	ldr	r3, [r7, #12]
100473d2:	6b9b      	ldr	r3, [r3, #56]	@ 0x38
100473d4:	1c5a      	adds	r2, r3, #1
100473d6:	68fb      	ldr	r3, [r7, #12]
100473d8:	639a      	str	r2, [r3, #56]	@ 0x38
          hspi->TxXferCount--;
100473da:	68fb      	ldr	r3, [r7, #12]
100473dc:	8fdb      	ldrh	r3, [r3, #62]	@ 0x3e
100473de:	b29b      	uxth	r3, r3
100473e0:	3b01      	subs	r3, #1
100473e2:	b29a      	uxth	r2, r3
100473e4:	68fb      	ldr	r3, [r7, #12]
100473e6:	87da      	strh	r2, [r3, #62]	@ 0x3e
100473e8:	e017      	b.n	1004741a <HAL_SPI_Transmit+0x2a2>
        }
      }
      else
      {
        /* Timeout management */
        if ((((HAL_GetTick() - tickstart) >=  Timeout) && (Timeout != HAL_MAX_DELAY)) || (Timeout == 0U))
100473ea:	f7fc fdf3 	bl	10043fd4 <HAL_GetTick>
100473ee:	0002      	movs	r2, r0
100473f0:	69fb      	ldr	r3, [r7, #28]
100473f2:	1ad3      	subs	r3, r2, r3
100473f4:	683a      	ldr	r2, [r7, #0]
100473f6:	429a      	cmp	r2, r3
100473f8:	d802      	bhi.n	10047400 <HAL_SPI_Transmit+0x288>
100473fa:	683b      	ldr	r3, [r7, #0]
100473fc:	3301      	adds	r3, #1
100473fe:	d102      	bne.n	10047406 <HAL_SPI_Transmit+0x28e>
10047400:	683b      	ldr	r3, [r7, #0]
10047402:	2b00      	cmp	r3, #0
10047404:	d109      	bne.n	1004741a <HAL_SPI_Transmit+0x2a2>
        {
          hspi->State = HAL_SPI_STATE_READY;
10047406:	68fb      	ldr	r3, [r7, #12]
10047408:	225d      	movs	r2, #93	@ 0x5d
1004740a:	2101      	movs	r1, #1
1004740c:	5499      	strb	r1, [r3, r2]
          __HAL_UNLOCK(hspi);
1004740e:	68fb      	ldr	r3, [r7, #12]
10047410:	225c      	movs	r2, #92	@ 0x5c
10047412:	2100      	movs	r1, #0
10047414:	5499      	strb	r1, [r3, r2]
          return HAL_TIMEOUT;
10047416:	2303      	movs	r3, #3
10047418:	e02d      	b.n	10047476 <HAL_SPI_Transmit+0x2fe>
    while (hspi->TxXferCount > 0U)
1004741a:	68fb      	ldr	r3, [r7, #12]
1004741c:	8fdb      	ldrh	r3, [r3, #62]	@ 0x3e
1004741e:	b29b      	uxth	r3, r3
10047420:	2b00      	cmp	r3, #0
10047422:	d1af      	bne.n	10047384 <HAL_SPI_Transmit+0x20c>
    SET_BIT(hspi->Instance->CR1, SPI_CR1_CRCNEXT);
  }
#endif /* USE_SPI_CRC */

  /* Check the end of the transaction */
  if (SPI_EndRxTxTransaction(hspi, Timeout, tickstart) != HAL_OK)
10047424:	69fa      	ldr	r2, [r7, #28]
10047426:	6839      	ldr	r1, [r7, #0]
10047428:	68fb      	ldr	r3, [r7, #12]
1004742a:	0018      	movs	r0, r3
1004742c:	f000 fb96 	bl	10047b5c <SPI_EndRxTxTransaction>
10047430:	1e03      	subs	r3, r0, #0
10047432:	d002      	beq.n	1004743a <HAL_SPI_Transmit+0x2c2>
  {
    hspi->ErrorCode = HAL_SPI_ERROR_FLAG;
10047434:	68fb      	ldr	r3, [r7, #12]
10047436:	2220      	movs	r2, #32
10047438:	661a      	str	r2, [r3, #96]	@ 0x60
  }

  /* Clear overrun flag in 2 Lines communication mode because received is not read */
  if (hspi->Init.Direction == SPI_DIRECTION_2LINES)
1004743a:	68fb      	ldr	r3, [r7, #12]
1004743c:	689b      	ldr	r3, [r3, #8]
1004743e:	2b00      	cmp	r3, #0
10047440:	d10a      	bne.n	10047458 <HAL_SPI_Transmit+0x2e0>
  {
    __HAL_SPI_CLEAR_OVRFLAG(hspi);
10047442:	2300      	movs	r3, #0
10047444:	617b      	str	r3, [r7, #20]
10047446:	68fb      	ldr	r3, [r7, #12]
10047448:	681b      	ldr	r3, [r3, #0]
1004744a:	68db      	ldr	r3, [r3, #12]
1004744c:	617b      	str	r3, [r7, #20]
1004744e:	68fb      	ldr	r3, [r7, #12]
10047450:	681b      	ldr	r3, [r3, #0]
10047452:	689b      	ldr	r3, [r3, #8]
10047454:	617b      	str	r3, [r7, #20]
10047456:	697b      	ldr	r3, [r7, #20]
  }

  hspi->State = HAL_SPI_STATE_READY;
10047458:	68fb      	ldr	r3, [r7, #12]
1004745a:	225d      	movs	r2, #93	@ 0x5d
1004745c:	2101      	movs	r1, #1
1004745e:	5499      	strb	r1, [r3, r2]
  /* Process Unlocked */
  __HAL_UNLOCK(hspi);
10047460:	68fb      	ldr	r3, [r7, #12]
10047462:	225c      	movs	r2, #92	@ 0x5c
10047464:	2100      	movs	r1, #0
10047466:	5499      	strb	r1, [r3, r2]

  if (hspi->ErrorCode != HAL_SPI_ERROR_NONE)
10047468:	68fb      	ldr	r3, [r7, #12]
1004746a:	6e1b      	ldr	r3, [r3, #96]	@ 0x60
1004746c:	2b00      	cmp	r3, #0
1004746e:	d001      	beq.n	10047474 <HAL_SPI_Transmit+0x2fc>
  {
    return HAL_ERROR;
10047470:	2301      	movs	r3, #1
10047472:	e000      	b.n	10047476 <HAL_SPI_Transmit+0x2fe>
  }
  else
  {
    return HAL_OK;
10047474:	2300      	movs	r3, #0
  }
}
10047476:	0018      	movs	r0, r3
10047478:	46bd      	mov	sp, r7
1004747a:	b008      	add	sp, #32
1004747c:	bd80      	pop	{r7, pc}
	...

10047480 <HAL_SPI_TransmitReceive>:
  * @param  Timeout Timeout duration in ms
  * @retval HAL status
  */
HAL_StatusTypeDef HAL_SPI_TransmitReceive(SPI_HandleTypeDef *hspi, const uint8_t *pTxData, uint8_t *pRxData,
                                          uint16_t Size, uint32_t Timeout)
{
10047480:	b580      	push	{r7, lr}
10047482:	b08a      	sub	sp, #40	@ 0x28
10047484:	af00      	add	r7, sp, #0
10047486:	60f8      	str	r0, [r7, #12]
10047488:	60b9      	str	r1, [r7, #8]
1004748a:	607a      	str	r2, [r7, #4]
1004748c:	001a      	movs	r2, r3
1004748e:	1cbb      	adds	r3, r7, #2
10047490:	801a      	strh	r2, [r3, #0]
  __IO uint8_t  *ptmpreg8;
  __IO uint8_t  tmpreg8 = 0;
#endif /* USE_SPI_CRC */

  /* Variable used to alternate Rx and Tx during transfer */
  uint32_t             txallowed = 1U;
10047492:	2301      	movs	r3, #1
10047494:	627b      	str	r3, [r7, #36]	@ 0x24

  /* Check Direction parameter */
  assert_param(IS_SPI_DIRECTION_2LINES(hspi->Init.Direction));

  /* Init tickstart for timeout management*/
  tickstart = HAL_GetTick();
10047496:	f7fc fd9d 	bl	10043fd4 <HAL_GetTick>
1004749a:	0003      	movs	r3, r0
1004749c:	623b      	str	r3, [r7, #32]

  /* Init temporary variables */
  tmp_state           = hspi->State;
1004749e:	201f      	movs	r0, #31
100474a0:	183b      	adds	r3, r7, r0
100474a2:	68fa      	ldr	r2, [r7, #12]
100474a4:	215d      	movs	r1, #93	@ 0x5d
100474a6:	5c52      	ldrb	r2, [r2, r1]
100474a8:	701a      	strb	r2, [r3, #0]
  tmp_mode            = hspi->Init.Mode;
100474aa:	68fb      	ldr	r3, [r7, #12]
100474ac:	685b      	ldr	r3, [r3, #4]
100474ae:	61bb      	str	r3, [r7, #24]
  initial_TxXferCount = Size;
100474b0:	2316      	movs	r3, #22
100474b2:	18fb      	adds	r3, r7, r3
100474b4:	1cba      	adds	r2, r7, #2
100474b6:	8812      	ldrh	r2, [r2, #0]
100474b8:	801a      	strh	r2, [r3, #0]
  initial_RxXferCount = Size;
100474ba:	2314      	movs	r3, #20
100474bc:	18fb      	adds	r3, r7, r3
100474be:	1cba      	adds	r2, r7, #2
100474c0:	8812      	ldrh	r2, [r2, #0]
100474c2:	801a      	strh	r2, [r3, #0]
#if (USE_SPI_CRC != 0U)
  spi_cr1             = READ_REG(hspi->Instance->CR1);
  spi_cr2             = READ_REG(hspi->Instance->CR2);
#endif /* USE_SPI_CRC */

  if (!((tmp_state == HAL_SPI_STATE_READY) || \
100474c4:	183b      	adds	r3, r7, r0
100474c6:	781b      	ldrb	r3, [r3, #0]
100474c8:	2b01      	cmp	r3, #1
100474ca:	d00e      	beq.n	100474ea <HAL_SPI_TransmitReceive+0x6a>
100474cc:	69ba      	ldr	r2, [r7, #24]
100474ce:	2382      	movs	r3, #130	@ 0x82
100474d0:	005b      	lsls	r3, r3, #1
100474d2:	429a      	cmp	r2, r3
100474d4:	d107      	bne.n	100474e6 <HAL_SPI_TransmitReceive+0x66>
        ((tmp_mode == SPI_MODE_MASTER) && (hspi->Init.Direction == SPI_DIRECTION_2LINES) &&
100474d6:	68fb      	ldr	r3, [r7, #12]
100474d8:	689b      	ldr	r3, [r3, #8]
100474da:	2b00      	cmp	r3, #0
100474dc:	d103      	bne.n	100474e6 <HAL_SPI_TransmitReceive+0x66>
100474de:	183b      	adds	r3, r7, r0
100474e0:	781b      	ldrb	r3, [r3, #0]
100474e2:	2b04      	cmp	r3, #4
100474e4:	d001      	beq.n	100474ea <HAL_SPI_TransmitReceive+0x6a>
         (tmp_state == HAL_SPI_STATE_BUSY_RX))))
  {
    return HAL_BUSY;
100474e6:	2302      	movs	r3, #2
100474e8:	e203      	b.n	100478f2 <HAL_SPI_TransmitReceive+0x472>
  }

  if ((pTxData == NULL) || (pRxData == NULL) || (Size == 0U))
100474ea:	68bb      	ldr	r3, [r7, #8]
100474ec:	2b00      	cmp	r3, #0
100474ee:	d006      	beq.n	100474fe <HAL_SPI_TransmitReceive+0x7e>
100474f0:	687b      	ldr	r3, [r7, #4]
100474f2:	2b00      	cmp	r3, #0
100474f4:	d003      	beq.n	100474fe <HAL_SPI_TransmitReceive+0x7e>
100474f6:	1cbb      	adds	r3, r7, #2
100474f8:	881b      	ldrh	r3, [r3, #0]
100474fa:	2b00      	cmp	r3, #0
100474fc:	d101      	bne.n	10047502 <HAL_SPI_TransmitReceive+0x82>
  {
    return HAL_ERROR;
100474fe:	2301      	movs	r3, #1
10047500:	e1f7      	b.n	100478f2 <HAL_SPI_TransmitReceive+0x472>
  }

  /* Process Locked */
  __HAL_LOCK(hspi);
10047502:	68fb      	ldr	r3, [r7, #12]
10047504:	225c      	movs	r2, #92	@ 0x5c
10047506:	5c9b      	ldrb	r3, [r3, r2]
10047508:	2b01      	cmp	r3, #1
1004750a:	d101      	bne.n	10047510 <HAL_SPI_TransmitReceive+0x90>
1004750c:	2302      	movs	r3, #2
1004750e:	e1f0      	b.n	100478f2 <HAL_SPI_TransmitReceive+0x472>
10047510:	68fb      	ldr	r3, [r7, #12]
10047512:	225c      	movs	r2, #92	@ 0x5c
10047514:	2101      	movs	r1, #1
10047516:	5499      	strb	r1, [r3, r2]

  /* Don't overwrite in case of HAL_SPI_STATE_BUSY_RX */
  if (hspi->State != HAL_SPI_STATE_BUSY_RX)
10047518:	68fb      	ldr	r3, [r7, #12]
1004751a:	225d      	movs	r2, #93	@ 0x5d
1004751c:	5c9b      	ldrb	r3, [r3, r2]
1004751e:	b2db      	uxtb	r3, r3
10047520:	2b04      	cmp	r3, #4
10047522:	d003      	beq.n	1004752c <HAL_SPI_TransmitReceive+0xac>
  {
    hspi->State = HAL_SPI_STATE_BUSY_TX_RX;
10047524:	68fb      	ldr	r3, [r7, #12]
10047526:	225d      	movs	r2, #93	@ 0x5d
10047528:	2105      	movs	r1, #5
1004752a:	5499      	strb	r1, [r3, r2]
  }

  /* Set the transaction information */
  hspi->ErrorCode   = HAL_SPI_ERROR_NONE;
1004752c:	68fb      	ldr	r3, [r7, #12]
1004752e:	2200      	movs	r2, #0
10047530:	661a      	str	r2, [r3, #96]	@ 0x60
  hspi->pRxBuffPtr  = (uint8_t *)pRxData;
10047532:	68fb      	ldr	r3, [r7, #12]
10047534:	687a      	ldr	r2, [r7, #4]
10047536:	641a      	str	r2, [r3, #64]	@ 0x40
  hspi->RxXferCount = Size;
10047538:	68fb      	ldr	r3, [r7, #12]
1004753a:	1cba      	adds	r2, r7, #2
1004753c:	2146      	movs	r1, #70	@ 0x46
1004753e:	8812      	ldrh	r2, [r2, #0]
10047540:	525a      	strh	r2, [r3, r1]
  hspi->RxXferSize  = Size;
10047542:	68fb      	ldr	r3, [r7, #12]
10047544:	1cba      	adds	r2, r7, #2
10047546:	2144      	movs	r1, #68	@ 0x44
10047548:	8812      	ldrh	r2, [r2, #0]
1004754a:	525a      	strh	r2, [r3, r1]
  hspi->pTxBuffPtr  = (const uint8_t *)pTxData;
1004754c:	68fb      	ldr	r3, [r7, #12]
1004754e:	68ba      	ldr	r2, [r7, #8]
10047550:	639a      	str	r2, [r3, #56]	@ 0x38
  hspi->TxXferCount = Size;
10047552:	68fb      	ldr	r3, [r7, #12]
10047554:	1cba      	adds	r2, r7, #2
10047556:	8812      	ldrh	r2, [r2, #0]
10047558:	87da      	strh	r2, [r3, #62]	@ 0x3e
  hspi->TxXferSize  = Size;
1004755a:	68fb      	ldr	r3, [r7, #12]
1004755c:	1cba      	adds	r2, r7, #2
1004755e:	8812      	ldrh	r2, [r2, #0]
10047560:	879a      	strh	r2, [r3, #60]	@ 0x3c

  /*Init field not used in handle to zero */
  hspi->RxISR       = NULL;
10047562:	68fb      	ldr	r3, [r7, #12]
10047564:	2200      	movs	r2, #0
10047566:	64da      	str	r2, [r3, #76]	@ 0x4c
  hspi->TxISR       = NULL;
10047568:	68fb      	ldr	r3, [r7, #12]
1004756a:	2200      	movs	r2, #0
1004756c:	651a      	str	r2, [r3, #80]	@ 0x50
    SPI_RESET_CRC(hspi);
  }
#endif /* USE_SPI_CRC */

  /* Set the Rx Fifo threshold */
  if ((hspi->Init.DataSize > SPI_DATASIZE_8BIT) || (initial_RxXferCount > 1U))
1004756e:	68fb      	ldr	r3, [r7, #12]
10047570:	68da      	ldr	r2, [r3, #12]
10047572:	23e0      	movs	r3, #224	@ 0xe0
10047574:	00db      	lsls	r3, r3, #3
10047576:	429a      	cmp	r2, r3
10047578:	d804      	bhi.n	10047584 <HAL_SPI_TransmitReceive+0x104>
1004757a:	2314      	movs	r3, #20
1004757c:	18fb      	adds	r3, r7, r3
1004757e:	881b      	ldrh	r3, [r3, #0]
10047580:	2b01      	cmp	r3, #1
10047582:	d908      	bls.n	10047596 <HAL_SPI_TransmitReceive+0x116>
  {
    /* Set fiforxthreshold according the reception data length: 16bit */
    CLEAR_BIT(hspi->Instance->CR2, SPI_RXFIFO_THRESHOLD);
10047584:	68fb      	ldr	r3, [r7, #12]
10047586:	681b      	ldr	r3, [r3, #0]
10047588:	685a      	ldr	r2, [r3, #4]
1004758a:	68fb      	ldr	r3, [r7, #12]
1004758c:	681b      	ldr	r3, [r3, #0]
1004758e:	49c1      	ldr	r1, [pc, #772]	@ (10047894 <HAL_SPI_TransmitReceive+0x414>)
10047590:	400a      	ands	r2, r1
10047592:	605a      	str	r2, [r3, #4]
10047594:	e008      	b.n	100475a8 <HAL_SPI_TransmitReceive+0x128>
  }
  else
  {
    /* Set fiforxthreshold according the reception data length: 8bit */
    SET_BIT(hspi->Instance->CR2, SPI_RXFIFO_THRESHOLD);
10047596:	68fb      	ldr	r3, [r7, #12]
10047598:	681b      	ldr	r3, [r3, #0]
1004759a:	685a      	ldr	r2, [r3, #4]
1004759c:	68fb      	ldr	r3, [r7, #12]
1004759e:	681b      	ldr	r3, [r3, #0]
100475a0:	2180      	movs	r1, #128	@ 0x80
100475a2:	0149      	lsls	r1, r1, #5
100475a4:	430a      	orrs	r2, r1
100475a6:	605a      	str	r2, [r3, #4]
  }

  /* Check if the SPI is already enabled */
  if ((hspi->Instance->CR1 & SPI_CR1_SPE) != SPI_CR1_SPE)
100475a8:	68fb      	ldr	r3, [r7, #12]
100475aa:	681b      	ldr	r3, [r3, #0]
100475ac:	681b      	ldr	r3, [r3, #0]
100475ae:	2240      	movs	r2, #64	@ 0x40
100475b0:	4013      	ands	r3, r2
100475b2:	2b40      	cmp	r3, #64	@ 0x40
100475b4:	d007      	beq.n	100475c6 <HAL_SPI_TransmitReceive+0x146>
  {
    /* Enable SPI peripheral */
    __HAL_SPI_ENABLE(hspi);
100475b6:	68fb      	ldr	r3, [r7, #12]
100475b8:	681b      	ldr	r3, [r3, #0]
100475ba:	681a      	ldr	r2, [r3, #0]
100475bc:	68fb      	ldr	r3, [r7, #12]
100475be:	681b      	ldr	r3, [r3, #0]
100475c0:	2140      	movs	r1, #64	@ 0x40
100475c2:	430a      	orrs	r2, r1
100475c4:	601a      	str	r2, [r3, #0]
  }

  /* Transmit and Receive data in 16 Bit mode */
  if (hspi->Init.DataSize > SPI_DATASIZE_8BIT)
100475c6:	68fb      	ldr	r3, [r7, #12]
100475c8:	68da      	ldr	r2, [r3, #12]
100475ca:	23e0      	movs	r3, #224	@ 0xe0
100475cc:	00db      	lsls	r3, r3, #3
100475ce:	429a      	cmp	r2, r3
100475d0:	d800      	bhi.n	100475d4 <HAL_SPI_TransmitReceive+0x154>
100475d2:	e084      	b.n	100476de <HAL_SPI_TransmitReceive+0x25e>
  {
    if ((hspi->Init.Mode == SPI_MODE_SLAVE) || (initial_TxXferCount == 0x01U))
100475d4:	68fb      	ldr	r3, [r7, #12]
100475d6:	685b      	ldr	r3, [r3, #4]
100475d8:	2b00      	cmp	r3, #0
100475da:	d005      	beq.n	100475e8 <HAL_SPI_TransmitReceive+0x168>
100475dc:	2316      	movs	r3, #22
100475de:	18fb      	adds	r3, r7, r3
100475e0:	881b      	ldrh	r3, [r3, #0]
100475e2:	2b01      	cmp	r3, #1
100475e4:	d000      	beq.n	100475e8 <HAL_SPI_TransmitReceive+0x168>
100475e6:	e06e      	b.n	100476c6 <HAL_SPI_TransmitReceive+0x246>
    {
      hspi->Instance->DR = *((const uint16_t *)hspi->pTxBuffPtr);
100475e8:	68fb      	ldr	r3, [r7, #12]
100475ea:	6b9b      	ldr	r3, [r3, #56]	@ 0x38
100475ec:	881a      	ldrh	r2, [r3, #0]
100475ee:	68fb      	ldr	r3, [r7, #12]
100475f0:	681b      	ldr	r3, [r3, #0]
100475f2:	60da      	str	r2, [r3, #12]
      hspi->pTxBuffPtr += sizeof(uint16_t);
100475f4:	68fb      	ldr	r3, [r7, #12]
100475f6:	6b9b      	ldr	r3, [r3, #56]	@ 0x38
100475f8:	1c9a      	adds	r2, r3, #2
100475fa:	68fb      	ldr	r3, [r7, #12]
100475fc:	639a      	str	r2, [r3, #56]	@ 0x38
      hspi->TxXferCount--;
100475fe:	68fb      	ldr	r3, [r7, #12]
10047600:	8fdb      	ldrh	r3, [r3, #62]	@ 0x3e
10047602:	b29b      	uxth	r3, r3
10047604:	3b01      	subs	r3, #1
10047606:	b29a      	uxth	r2, r3
10047608:	68fb      	ldr	r3, [r7, #12]
1004760a:	87da      	strh	r2, [r3, #62]	@ 0x3e
        SET_BIT(hspi->Instance->CR1, SPI_CR1_CRCNEXT);
      }
#endif /* USE_SPI_CRC */

    }
    while ((hspi->TxXferCount > 0U) || (hspi->RxXferCount > 0U))
1004760c:	e05b      	b.n	100476c6 <HAL_SPI_TransmitReceive+0x246>
    {
      /* Check TXE flag */
      if ((__HAL_SPI_GET_FLAG(hspi, SPI_FLAG_TXE)) && (hspi->TxXferCount > 0U) && (txallowed == 1U))
1004760e:	68fb      	ldr	r3, [r7, #12]
10047610:	681b      	ldr	r3, [r3, #0]
10047612:	689b      	ldr	r3, [r3, #8]
10047614:	2202      	movs	r2, #2
10047616:	4013      	ands	r3, r2
10047618:	2b02      	cmp	r3, #2
1004761a:	d11b      	bne.n	10047654 <HAL_SPI_TransmitReceive+0x1d4>
1004761c:	68fb      	ldr	r3, [r7, #12]
1004761e:	8fdb      	ldrh	r3, [r3, #62]	@ 0x3e
10047620:	b29b      	uxth	r3, r3
10047622:	2b00      	cmp	r3, #0
10047624:	d016      	beq.n	10047654 <HAL_SPI_TransmitReceive+0x1d4>
10047626:	6a7b      	ldr	r3, [r7, #36]	@ 0x24
10047628:	2b01      	cmp	r3, #1
1004762a:	d113      	bne.n	10047654 <HAL_SPI_TransmitReceive+0x1d4>
      {
        hspi->Instance->DR = *((const uint16_t *)hspi->pTxBuffPtr);
1004762c:	68fb      	ldr	r3, [r7, #12]
1004762e:	6b9b      	ldr	r3, [r3, #56]	@ 0x38
10047630:	881a      	ldrh	r2, [r3, #0]
10047632:	68fb      	ldr	r3, [r7, #12]
10047634:	681b      	ldr	r3, [r3, #0]
10047636:	60da      	str	r2, [r3, #12]
        hspi->pTxBuffPtr += sizeof(uint16_t);
10047638:	68fb      	ldr	r3, [r7, #12]
1004763a:	6b9b      	ldr	r3, [r3, #56]	@ 0x38
1004763c:	1c9a      	adds	r2, r3, #2
1004763e:	68fb      	ldr	r3, [r7, #12]
10047640:	639a      	str	r2, [r3, #56]	@ 0x38
        hspi->TxXferCount--;
10047642:	68fb      	ldr	r3, [r7, #12]
10047644:	8fdb      	ldrh	r3, [r3, #62]	@ 0x3e
10047646:	b29b      	uxth	r3, r3
10047648:	3b01      	subs	r3, #1
1004764a:	b29a      	uxth	r2, r3
1004764c:	68fb      	ldr	r3, [r7, #12]
1004764e:	87da      	strh	r2, [r3, #62]	@ 0x3e
        /* Next Data is a reception (Rx). Tx not allowed */
        txallowed = 0U;
10047650:	2300      	movs	r3, #0
10047652:	627b      	str	r3, [r7, #36]	@ 0x24
        }
#endif /* USE_SPI_CRC */
      }

      /* Check RXNE flag */
      if ((__HAL_SPI_GET_FLAG(hspi, SPI_FLAG_RXNE)) && (hspi->RxXferCount > 0U))
10047654:	68fb      	ldr	r3, [r7, #12]
10047656:	681b      	ldr	r3, [r3, #0]
10047658:	689b      	ldr	r3, [r3, #8]
1004765a:	2201      	movs	r2, #1
1004765c:	4013      	ands	r3, r2
1004765e:	2b01      	cmp	r3, #1
10047660:	d11c      	bne.n	1004769c <HAL_SPI_TransmitReceive+0x21c>
10047662:	68fb      	ldr	r3, [r7, #12]
10047664:	2246      	movs	r2, #70	@ 0x46
10047666:	5a9b      	ldrh	r3, [r3, r2]
10047668:	b29b      	uxth	r3, r3
1004766a:	2b00      	cmp	r3, #0
1004766c:	d016      	beq.n	1004769c <HAL_SPI_TransmitReceive+0x21c>
      {
        *((uint16_t *)hspi->pRxBuffPtr) = (uint16_t)hspi->Instance->DR;
1004766e:	68fb      	ldr	r3, [r7, #12]
10047670:	681b      	ldr	r3, [r3, #0]
10047672:	68da      	ldr	r2, [r3, #12]
10047674:	68fb      	ldr	r3, [r7, #12]
10047676:	6c1b      	ldr	r3, [r3, #64]	@ 0x40
10047678:	b292      	uxth	r2, r2
1004767a:	801a      	strh	r2, [r3, #0]
        hspi->pRxBuffPtr += sizeof(uint16_t);
1004767c:	68fb      	ldr	r3, [r7, #12]
1004767e:	6c1b      	ldr	r3, [r3, #64]	@ 0x40
10047680:	1c9a      	adds	r2, r3, #2
10047682:	68fb      	ldr	r3, [r7, #12]
10047684:	641a      	str	r2, [r3, #64]	@ 0x40
        hspi->RxXferCount--;
10047686:	68fb      	ldr	r3, [r7, #12]
10047688:	2246      	movs	r2, #70	@ 0x46
1004768a:	5a9b      	ldrh	r3, [r3, r2]
1004768c:	b29b      	uxth	r3, r3
1004768e:	3b01      	subs	r3, #1
10047690:	b299      	uxth	r1, r3
10047692:	68fb      	ldr	r3, [r7, #12]
10047694:	2246      	movs	r2, #70	@ 0x46
10047696:	5299      	strh	r1, [r3, r2]
        /* Next Data is a Transmission (Tx). Tx is allowed */
        txallowed = 1U;
10047698:	2301      	movs	r3, #1
1004769a:	627b      	str	r3, [r7, #36]	@ 0x24
      }
      if (((HAL_GetTick() - tickstart) >=  Timeout) && (Timeout != HAL_MAX_DELAY))
1004769c:	f7fc fc9a 	bl	10043fd4 <HAL_GetTick>
100476a0:	0002      	movs	r2, r0
100476a2:	6a3b      	ldr	r3, [r7, #32]
100476a4:	1ad3      	subs	r3, r2, r3
100476a6:	6b3a      	ldr	r2, [r7, #48]	@ 0x30
100476a8:	429a      	cmp	r2, r3
100476aa:	d80c      	bhi.n	100476c6 <HAL_SPI_TransmitReceive+0x246>
100476ac:	6b3b      	ldr	r3, [r7, #48]	@ 0x30
100476ae:	3301      	adds	r3, #1
100476b0:	d009      	beq.n	100476c6 <HAL_SPI_TransmitReceive+0x246>
      {
        hspi->State = HAL_SPI_STATE_READY;
100476b2:	68fb      	ldr	r3, [r7, #12]
100476b4:	225d      	movs	r2, #93	@ 0x5d
100476b6:	2101      	movs	r1, #1
100476b8:	5499      	strb	r1, [r3, r2]
        __HAL_UNLOCK(hspi);
100476ba:	68fb      	ldr	r3, [r7, #12]
100476bc:	225c      	movs	r2, #92	@ 0x5c
100476be:	2100      	movs	r1, #0
100476c0:	5499      	strb	r1, [r3, r2]
        return HAL_TIMEOUT;
100476c2:	2303      	movs	r3, #3
100476c4:	e115      	b.n	100478f2 <HAL_SPI_TransmitReceive+0x472>
    while ((hspi->TxXferCount > 0U) || (hspi->RxXferCount > 0U))
100476c6:	68fb      	ldr	r3, [r7, #12]
100476c8:	8fdb      	ldrh	r3, [r3, #62]	@ 0x3e
100476ca:	b29b      	uxth	r3, r3
100476cc:	2b00      	cmp	r3, #0
100476ce:	d19e      	bne.n	1004760e <HAL_SPI_TransmitReceive+0x18e>
100476d0:	68fb      	ldr	r3, [r7, #12]
100476d2:	2246      	movs	r2, #70	@ 0x46
100476d4:	5a9b      	ldrh	r3, [r3, r2]
100476d6:	b29b      	uxth	r3, r3
100476d8:	2b00      	cmp	r3, #0
100476da:	d198      	bne.n	1004760e <HAL_SPI_TransmitReceive+0x18e>
100476dc:	e0e9      	b.n	100478b2 <HAL_SPI_TransmitReceive+0x432>
    }
  }
  /* Transmit and Receive data in 8 Bit mode */
  else
  {
    if ((hspi->Init.Mode == SPI_MODE_SLAVE) || (initial_TxXferCount == 0x01U))
100476de:	68fb      	ldr	r3, [r7, #12]
100476e0:	685b      	ldr	r3, [r3, #4]
100476e2:	2b00      	cmp	r3, #0
100476e4:	d005      	beq.n	100476f2 <HAL_SPI_TransmitReceive+0x272>
100476e6:	2316      	movs	r3, #22
100476e8:	18fb      	adds	r3, r7, r3
100476ea:	881b      	ldrh	r3, [r3, #0]
100476ec:	2b01      	cmp	r3, #1
100476ee:	d000      	beq.n	100476f2 <HAL_SPI_TransmitReceive+0x272>
100476f0:	e0d2      	b.n	10047898 <HAL_SPI_TransmitReceive+0x418>
    {
      if (hspi->TxXferCount > 1U)
100476f2:	68fb      	ldr	r3, [r7, #12]
100476f4:	8fdb      	ldrh	r3, [r3, #62]	@ 0x3e
100476f6:	b29b      	uxth	r3, r3
100476f8:	2b01      	cmp	r3, #1
100476fa:	d912      	bls.n	10047722 <HAL_SPI_TransmitReceive+0x2a2>
      {
        hspi->Instance->DR = *((const uint16_t *)hspi->pTxBuffPtr);
100476fc:	68fb      	ldr	r3, [r7, #12]
100476fe:	6b9b      	ldr	r3, [r3, #56]	@ 0x38
10047700:	881a      	ldrh	r2, [r3, #0]
10047702:	68fb      	ldr	r3, [r7, #12]
10047704:	681b      	ldr	r3, [r3, #0]
10047706:	60da      	str	r2, [r3, #12]
        hspi->pTxBuffPtr += sizeof(uint16_t);
10047708:	68fb      	ldr	r3, [r7, #12]
1004770a:	6b9b      	ldr	r3, [r3, #56]	@ 0x38
1004770c:	1c9a      	adds	r2, r3, #2
1004770e:	68fb      	ldr	r3, [r7, #12]
10047710:	639a      	str	r2, [r3, #56]	@ 0x38
        hspi->TxXferCount -= 2U;
10047712:	68fb      	ldr	r3, [r7, #12]
10047714:	8fdb      	ldrh	r3, [r3, #62]	@ 0x3e
10047716:	b29b      	uxth	r3, r3
10047718:	3b02      	subs	r3, #2
1004771a:	b29a      	uxth	r2, r3
1004771c:	68fb      	ldr	r3, [r7, #12]
1004771e:	87da      	strh	r2, [r3, #62]	@ 0x3e
10047720:	e0ba      	b.n	10047898 <HAL_SPI_TransmitReceive+0x418>
      }
      else
      {
        *(__IO uint8_t *)&hspi->Instance->DR = *((const uint8_t *)hspi->pTxBuffPtr);
10047722:	68fb      	ldr	r3, [r7, #12]
10047724:	6b9a      	ldr	r2, [r3, #56]	@ 0x38
10047726:	68fb      	ldr	r3, [r7, #12]
10047728:	681b      	ldr	r3, [r3, #0]
1004772a:	330c      	adds	r3, #12
1004772c:	7812      	ldrb	r2, [r2, #0]
1004772e:	701a      	strb	r2, [r3, #0]
        hspi->pTxBuffPtr++;
10047730:	68fb      	ldr	r3, [r7, #12]
10047732:	6b9b      	ldr	r3, [r3, #56]	@ 0x38
10047734:	1c5a      	adds	r2, r3, #1
10047736:	68fb      	ldr	r3, [r7, #12]
10047738:	639a      	str	r2, [r3, #56]	@ 0x38
        hspi->TxXferCount--;
1004773a:	68fb      	ldr	r3, [r7, #12]
1004773c:	8fdb      	ldrh	r3, [r3, #62]	@ 0x3e
1004773e:	b29b      	uxth	r3, r3
10047740:	3b01      	subs	r3, #1
10047742:	b29a      	uxth	r2, r3
10047744:	68fb      	ldr	r3, [r7, #12]
10047746:	87da      	strh	r2, [r3, #62]	@ 0x3e
          SET_BIT(hspi->Instance->CR1, SPI_CR1_CRCNEXT);
        }
#endif /* USE_SPI_CRC */
      }
    }
    while ((hspi->TxXferCount > 0U) || (hspi->RxXferCount > 0U))
10047748:	e0a6      	b.n	10047898 <HAL_SPI_TransmitReceive+0x418>
    {
      /* Check TXE flag */
      if ((__HAL_SPI_GET_FLAG(hspi, SPI_FLAG_TXE)) && (hspi->TxXferCount > 0U) && (txallowed == 1U))
1004774a:	68fb      	ldr	r3, [r7, #12]
1004774c:	681b      	ldr	r3, [r3, #0]
1004774e:	689b      	ldr	r3, [r3, #8]
10047750:	2202      	movs	r2, #2
10047752:	4013      	ands	r3, r2
10047754:	2b02      	cmp	r3, #2
10047756:	d134      	bne.n	100477c2 <HAL_SPI_TransmitReceive+0x342>
10047758:	68fb      	ldr	r3, [r7, #12]
1004775a:	8fdb      	ldrh	r3, [r3, #62]	@ 0x3e
1004775c:	b29b      	uxth	r3, r3
1004775e:	2b00      	cmp	r3, #0
10047760:	d02f      	beq.n	100477c2 <HAL_SPI_TransmitReceive+0x342>
10047762:	6a7b      	ldr	r3, [r7, #36]	@ 0x24
10047764:	2b01      	cmp	r3, #1
10047766:	d12c      	bne.n	100477c2 <HAL_SPI_TransmitReceive+0x342>
      {
        if (hspi->TxXferCount > 1U)
10047768:	68fb      	ldr	r3, [r7, #12]
1004776a:	8fdb      	ldrh	r3, [r3, #62]	@ 0x3e
1004776c:	b29b      	uxth	r3, r3
1004776e:	2b01      	cmp	r3, #1
10047770:	d912      	bls.n	10047798 <HAL_SPI_TransmitReceive+0x318>
        {
          hspi->Instance->DR = *((const uint16_t *)hspi->pTxBuffPtr);
10047772:	68fb      	ldr	r3, [r7, #12]
10047774:	6b9b      	ldr	r3, [r3, #56]	@ 0x38
10047776:	881a      	ldrh	r2, [r3, #0]
10047778:	68fb      	ldr	r3, [r7, #12]
1004777a:	681b      	ldr	r3, [r3, #0]
1004777c:	60da      	str	r2, [r3, #12]
          hspi->pTxBuffPtr += sizeof(uint16_t);
1004777e:	68fb      	ldr	r3, [r7, #12]
10047780:	6b9b      	ldr	r3, [r3, #56]	@ 0x38
10047782:	1c9a      	adds	r2, r3, #2
10047784:	68fb      	ldr	r3, [r7, #12]
10047786:	639a      	str	r2, [r3, #56]	@ 0x38
          hspi->TxXferCount -= 2U;
10047788:	68fb      	ldr	r3, [r7, #12]
1004778a:	8fdb      	ldrh	r3, [r3, #62]	@ 0x3e
1004778c:	b29b      	uxth	r3, r3
1004778e:	3b02      	subs	r3, #2
10047790:	b29a      	uxth	r2, r3
10047792:	68fb      	ldr	r3, [r7, #12]
10047794:	87da      	strh	r2, [r3, #62]	@ 0x3e
10047796:	e012      	b.n	100477be <HAL_SPI_TransmitReceive+0x33e>
        }
        else
        {
          *(__IO uint8_t *)&hspi->Instance->DR = *((const uint8_t *)hspi->pTxBuffPtr);
10047798:	68fb      	ldr	r3, [r7, #12]
1004779a:	6b9a      	ldr	r2, [r3, #56]	@ 0x38
1004779c:	68fb      	ldr	r3, [r7, #12]
1004779e:	681b      	ldr	r3, [r3, #0]
100477a0:	330c      	adds	r3, #12
100477a2:	7812      	ldrb	r2, [r2, #0]
100477a4:	701a      	strb	r2, [r3, #0]
          hspi->pTxBuffPtr++;
100477a6:	68fb      	ldr	r3, [r7, #12]
100477a8:	6b9b      	ldr	r3, [r3, #56]	@ 0x38
100477aa:	1c5a      	adds	r2, r3, #1
100477ac:	68fb      	ldr	r3, [r7, #12]
100477ae:	639a      	str	r2, [r3, #56]	@ 0x38
          hspi->TxXferCount--;
100477b0:	68fb      	ldr	r3, [r7, #12]
100477b2:	8fdb      	ldrh	r3, [r3, #62]	@ 0x3e
100477b4:	b29b      	uxth	r3, r3
100477b6:	3b01      	subs	r3, #1
100477b8:	b29a      	uxth	r2, r3
100477ba:	68fb      	ldr	r3, [r7, #12]
100477bc:	87da      	strh	r2, [r3, #62]	@ 0x3e
        }
        /* Next Data is a reception (Rx). Tx not allowed */
        txallowed = 0U;
100477be:	2300      	movs	r3, #0
100477c0:	627b      	str	r3, [r7, #36]	@ 0x24
        }
#endif /* USE_SPI_CRC */
      }

      /* Wait until RXNE flag is reset */
      if ((__HAL_SPI_GET_FLAG(hspi, SPI_FLAG_RXNE)) && (hspi->RxXferCount > 0U))
100477c2:	68fb      	ldr	r3, [r7, #12]
100477c4:	681b      	ldr	r3, [r3, #0]
100477c6:	689b      	ldr	r3, [r3, #8]
100477c8:	2201      	movs	r2, #1
100477ca:	4013      	ands	r3, r2
100477cc:	2b01      	cmp	r3, #1
100477ce:	d149      	bne.n	10047864 <HAL_SPI_TransmitReceive+0x3e4>
100477d0:	68fb      	ldr	r3, [r7, #12]
100477d2:	2246      	movs	r2, #70	@ 0x46
100477d4:	5a9b      	ldrh	r3, [r3, r2]
100477d6:	b29b      	uxth	r3, r3
100477d8:	2b00      	cmp	r3, #0
100477da:	d043      	beq.n	10047864 <HAL_SPI_TransmitReceive+0x3e4>
      {
        if (hspi->RxXferCount > 1U)
100477dc:	68fb      	ldr	r3, [r7, #12]
100477de:	2246      	movs	r2, #70	@ 0x46
100477e0:	5a9b      	ldrh	r3, [r3, r2]
100477e2:	b29b      	uxth	r3, r3
100477e4:	2b01      	cmp	r3, #1
100477e6:	d924      	bls.n	10047832 <HAL_SPI_TransmitReceive+0x3b2>
        {
          *((uint16_t *)hspi->pRxBuffPtr) = (uint16_t)hspi->Instance->DR;
100477e8:	68fb      	ldr	r3, [r7, #12]
100477ea:	681b      	ldr	r3, [r3, #0]
100477ec:	68da      	ldr	r2, [r3, #12]
100477ee:	68fb      	ldr	r3, [r7, #12]
100477f0:	6c1b      	ldr	r3, [r3, #64]	@ 0x40
100477f2:	b292      	uxth	r2, r2
100477f4:	801a      	strh	r2, [r3, #0]
          hspi->pRxBuffPtr += sizeof(uint16_t);
100477f6:	68fb      	ldr	r3, [r7, #12]
100477f8:	6c1b      	ldr	r3, [r3, #64]	@ 0x40
100477fa:	1c9a      	adds	r2, r3, #2
100477fc:	68fb      	ldr	r3, [r7, #12]
100477fe:	641a      	str	r2, [r3, #64]	@ 0x40
          hspi->RxXferCount -= 2U;
10047800:	68fb      	ldr	r3, [r7, #12]
10047802:	2246      	movs	r2, #70	@ 0x46
10047804:	5a9b      	ldrh	r3, [r3, r2]
10047806:	b29b      	uxth	r3, r3
10047808:	3b02      	subs	r3, #2
1004780a:	b299      	uxth	r1, r3
1004780c:	68fb      	ldr	r3, [r7, #12]
1004780e:	2246      	movs	r2, #70	@ 0x46
10047810:	5299      	strh	r1, [r3, r2]
          if (hspi->RxXferCount <= 1U)
10047812:	68fb      	ldr	r3, [r7, #12]
10047814:	2246      	movs	r2, #70	@ 0x46
10047816:	5a9b      	ldrh	r3, [r3, r2]
10047818:	b29b      	uxth	r3, r3
1004781a:	2b01      	cmp	r3, #1
1004781c:	d820      	bhi.n	10047860 <HAL_SPI_TransmitReceive+0x3e0>
          {
            /* Set RX Fifo threshold before to switch on 8 bit data size */
            SET_BIT(hspi->Instance->CR2, SPI_RXFIFO_THRESHOLD);
1004781e:	68fb      	ldr	r3, [r7, #12]
10047820:	681b      	ldr	r3, [r3, #0]
10047822:	685a      	ldr	r2, [r3, #4]
10047824:	68fb      	ldr	r3, [r7, #12]
10047826:	681b      	ldr	r3, [r3, #0]
10047828:	2180      	movs	r1, #128	@ 0x80
1004782a:	0149      	lsls	r1, r1, #5
1004782c:	430a      	orrs	r2, r1
1004782e:	605a      	str	r2, [r3, #4]
10047830:	e016      	b.n	10047860 <HAL_SPI_TransmitReceive+0x3e0>
          }
        }
        else
        {
          (*(uint8_t *)hspi->pRxBuffPtr) = *(__IO uint8_t *)&hspi->Instance->DR;
10047832:	68fb      	ldr	r3, [r7, #12]
10047834:	681b      	ldr	r3, [r3, #0]
10047836:	330c      	adds	r3, #12
10047838:	001a      	movs	r2, r3
1004783a:	68fb      	ldr	r3, [r7, #12]
1004783c:	6c1b      	ldr	r3, [r3, #64]	@ 0x40
1004783e:	7812      	ldrb	r2, [r2, #0]
10047840:	b2d2      	uxtb	r2, r2
10047842:	701a      	strb	r2, [r3, #0]
          hspi->pRxBuffPtr++;
10047844:	68fb      	ldr	r3, [r7, #12]
10047846:	6c1b      	ldr	r3, [r3, #64]	@ 0x40
10047848:	1c5a      	adds	r2, r3, #1
1004784a:	68fb      	ldr	r3, [r7, #12]
1004784c:	641a      	str	r2, [r3, #64]	@ 0x40
          hspi->RxXferCount--;
1004784e:	68fb      	ldr	r3, [r7, #12]
10047850:	2246      	movs	r2, #70	@ 0x46
10047852:	5a9b      	ldrh	r3, [r3, r2]
10047854:	b29b      	uxth	r3, r3
10047856:	3b01      	subs	r3, #1
10047858:	b299      	uxth	r1, r3
1004785a:	68fb      	ldr	r3, [r7, #12]
1004785c:	2246      	movs	r2, #70	@ 0x46
1004785e:	5299      	strh	r1, [r3, r2]
        }
        /* Next Data is a Transmission (Tx). Tx is allowed */
        txallowed = 1U;
10047860:	2301      	movs	r3, #1
10047862:	627b      	str	r3, [r7, #36]	@ 0x24
      }
      if ((((HAL_GetTick() - tickstart) >=  Timeout) && ((Timeout != HAL_MAX_DELAY))) || (Timeout == 0U))
10047864:	f7fc fbb6 	bl	10043fd4 <HAL_GetTick>
10047868:	0002      	movs	r2, r0
1004786a:	6a3b      	ldr	r3, [r7, #32]
1004786c:	1ad3      	subs	r3, r2, r3
1004786e:	6b3a      	ldr	r2, [r7, #48]	@ 0x30
10047870:	429a      	cmp	r2, r3
10047872:	d802      	bhi.n	1004787a <HAL_SPI_TransmitReceive+0x3fa>
10047874:	6b3b      	ldr	r3, [r7, #48]	@ 0x30
10047876:	3301      	adds	r3, #1
10047878:	d102      	bne.n	10047880 <HAL_SPI_TransmitReceive+0x400>
1004787a:	6b3b      	ldr	r3, [r7, #48]	@ 0x30
1004787c:	2b00      	cmp	r3, #0
1004787e:	d10b      	bne.n	10047898 <HAL_SPI_TransmitReceive+0x418>
      {
        hspi->State = HAL_SPI_STATE_READY;
10047880:	68fb      	ldr	r3, [r7, #12]
10047882:	225d      	movs	r2, #93	@ 0x5d
10047884:	2101      	movs	r1, #1
10047886:	5499      	strb	r1, [r3, r2]
        __HAL_UNLOCK(hspi);
10047888:	68fb      	ldr	r3, [r7, #12]
1004788a:	225c      	movs	r2, #92	@ 0x5c
1004788c:	2100      	movs	r1, #0
1004788e:	5499      	strb	r1, [r3, r2]
        return HAL_TIMEOUT;
10047890:	2303      	movs	r3, #3
10047892:	e02e      	b.n	100478f2 <HAL_SPI_TransmitReceive+0x472>
10047894:	ffffefff 	.word	0xffffefff
    while ((hspi->TxXferCount > 0U) || (hspi->RxXferCount > 0U))
10047898:	68fb      	ldr	r3, [r7, #12]
1004789a:	8fdb      	ldrh	r3, [r3, #62]	@ 0x3e
1004789c:	b29b      	uxth	r3, r3
1004789e:	2b00      	cmp	r3, #0
100478a0:	d000      	beq.n	100478a4 <HAL_SPI_TransmitReceive+0x424>
100478a2:	e752      	b.n	1004774a <HAL_SPI_TransmitReceive+0x2ca>
100478a4:	68fb      	ldr	r3, [r7, #12]
100478a6:	2246      	movs	r2, #70	@ 0x46
100478a8:	5a9b      	ldrh	r3, [r3, r2]
100478aa:	b29b      	uxth	r3, r3
100478ac:	2b00      	cmp	r3, #0
100478ae:	d000      	beq.n	100478b2 <HAL_SPI_TransmitReceive+0x432>
100478b0:	e74b      	b.n	1004774a <HAL_SPI_TransmitReceive+0x2ca>
    return HAL_ERROR;
  }
#endif /* USE_SPI_CRC */

  /* Check the end of the transaction */
  if (SPI_EndRxTxTransaction(hspi, Timeout, tickstart) != HAL_OK)
100478b2:	6a3a      	ldr	r2, [r7, #32]
100478b4:	6b39      	ldr	r1, [r7, #48]	@ 0x30
100478b6:	68fb      	ldr	r3, [r7, #12]
100478b8:	0018      	movs	r0, r3
100478ba:	f000 f94f 	bl	10047b5c <SPI_EndRxTxTransaction>
100478be:	1e03      	subs	r3, r0, #0
100478c0:	d008      	beq.n	100478d4 <HAL_SPI_TransmitReceive+0x454>
  {
    hspi->ErrorCode = HAL_SPI_ERROR_FLAG;
100478c2:	68fb      	ldr	r3, [r7, #12]
100478c4:	2220      	movs	r2, #32
100478c6:	661a      	str	r2, [r3, #96]	@ 0x60
    __HAL_UNLOCK(hspi);
100478c8:	68fb      	ldr	r3, [r7, #12]
100478ca:	225c      	movs	r2, #92	@ 0x5c
100478cc:	2100      	movs	r1, #0
100478ce:	5499      	strb	r1, [r3, r2]
    return HAL_ERROR;
100478d0:	2301      	movs	r3, #1
100478d2:	e00e      	b.n	100478f2 <HAL_SPI_TransmitReceive+0x472>
  }


  hspi->State = HAL_SPI_STATE_READY;
100478d4:	68fb      	ldr	r3, [r7, #12]
100478d6:	225d      	movs	r2, #93	@ 0x5d
100478d8:	2101      	movs	r1, #1
100478da:	5499      	strb	r1, [r3, r2]
  /* Unlock the process */
  __HAL_UNLOCK(hspi);
100478dc:	68fb      	ldr	r3, [r7, #12]
100478de:	225c      	movs	r2, #92	@ 0x5c
100478e0:	2100      	movs	r1, #0
100478e2:	5499      	strb	r1, [r3, r2]

  if (hspi->ErrorCode != HAL_SPI_ERROR_NONE)
100478e4:	68fb      	ldr	r3, [r7, #12]
100478e6:	6e1b      	ldr	r3, [r3, #96]	@ 0x60
100478e8:	2b00      	cmp	r3, #0
100478ea:	d001      	beq.n	100478f0 <HAL_SPI_TransmitReceive+0x470>
  {
    return HAL_ERROR;
100478ec:	2301      	movs	r3, #1
100478ee:	e000      	b.n	100478f2 <HAL_SPI_TransmitReceive+0x472>
  }
  else
  {
    return HAL_OK;
100478f0:	2300      	movs	r3, #0
  }
}
100478f2:	0018      	movs	r0, r3
100478f4:	46bd      	mov	sp, r7
100478f6:	b00a      	add	sp, #40	@ 0x28
100478f8:	bd80      	pop	{r7, pc}
100478fa:	46c0      	nop			@ (mov r8, r8)

100478fc <SPI_WaitFlagStateUntilTimeout>:
  * @param  Tickstart tick start value
  * @retval HAL status
  */
static HAL_StatusTypeDef SPI_WaitFlagStateUntilTimeout(SPI_HandleTypeDef *hspi, uint32_t Flag, FlagStatus State,
                                                       uint32_t Timeout, uint32_t Tickstart)
{
100478fc:	b580      	push	{r7, lr}
100478fe:	b088      	sub	sp, #32
10047900:	af00      	add	r7, sp, #0
10047902:	60f8      	str	r0, [r7, #12]
10047904:	60b9      	str	r1, [r7, #8]
10047906:	603b      	str	r3, [r7, #0]
10047908:	1dfb      	adds	r3, r7, #7
1004790a:	701a      	strb	r2, [r3, #0]
  __IO uint32_t count;
  uint32_t tmp_timeout;
  uint32_t tmp_tickstart;

  /* Adjust Timeout value  in case of end of transfer */
  tmp_timeout   = Timeout - (HAL_GetTick() - Tickstart);
1004790c:	f7fc fb62 	bl	10043fd4 <HAL_GetTick>
10047910:	0002      	movs	r2, r0
10047912:	6abb      	ldr	r3, [r7, #40]	@ 0x28
10047914:	1a9b      	subs	r3, r3, r2
10047916:	683a      	ldr	r2, [r7, #0]
10047918:	18d3      	adds	r3, r2, r3
1004791a:	61fb      	str	r3, [r7, #28]
  tmp_tickstart = HAL_GetTick();
1004791c:	f7fc fb5a 	bl	10043fd4 <HAL_GetTick>
10047920:	0003      	movs	r3, r0
10047922:	61bb      	str	r3, [r7, #24]

  /* Calculate Timeout based on a software loop to avoid blocking issue if Systick is disabled */
  count = tmp_timeout * ((SystemCoreClock * 32U) >> 20U);
10047924:	4b3a      	ldr	r3, [pc, #232]	@ (10047a10 <SPI_WaitFlagStateUntilTimeout+0x114>)
10047926:	681b      	ldr	r3, [r3, #0]
10047928:	015b      	lsls	r3, r3, #5
1004792a:	0d1b      	lsrs	r3, r3, #20
1004792c:	69fa      	ldr	r2, [r7, #28]
1004792e:	4353      	muls	r3, r2
10047930:	617b      	str	r3, [r7, #20]

  while ((__HAL_SPI_GET_FLAG(hspi, Flag) ? SET : RESET) != State)
10047932:	e059      	b.n	100479e8 <SPI_WaitFlagStateUntilTimeout+0xec>
  {
    if (Timeout != HAL_MAX_DELAY)
10047934:	683b      	ldr	r3, [r7, #0]
10047936:	3301      	adds	r3, #1
10047938:	d056      	beq.n	100479e8 <SPI_WaitFlagStateUntilTimeout+0xec>
    {
      if (((HAL_GetTick() - tmp_tickstart) >= tmp_timeout) || (tmp_timeout == 0U))
1004793a:	f7fc fb4b 	bl	10043fd4 <HAL_GetTick>
1004793e:	0002      	movs	r2, r0
10047940:	69bb      	ldr	r3, [r7, #24]
10047942:	1ad3      	subs	r3, r2, r3
10047944:	69fa      	ldr	r2, [r7, #28]
10047946:	429a      	cmp	r2, r3
10047948:	d902      	bls.n	10047950 <SPI_WaitFlagStateUntilTimeout+0x54>
1004794a:	69fb      	ldr	r3, [r7, #28]
1004794c:	2b00      	cmp	r3, #0
1004794e:	d142      	bne.n	100479d6 <SPI_WaitFlagStateUntilTimeout+0xda>
        /* Disable the SPI and reset the CRC: the CRC value should be cleared
           on both master and slave sides in order to resynchronize the master
           and slave for their respective CRC calculation */

        /* Disable TXE, RXNE and ERR interrupts for the interrupt process */
        __HAL_SPI_DISABLE_IT(hspi, (SPI_IT_TXE | SPI_IT_RXNE | SPI_IT_ERR));
10047950:	68fb      	ldr	r3, [r7, #12]
10047952:	681b      	ldr	r3, [r3, #0]
10047954:	685a      	ldr	r2, [r3, #4]
10047956:	68fb      	ldr	r3, [r7, #12]
10047958:	681b      	ldr	r3, [r3, #0]
1004795a:	21e0      	movs	r1, #224	@ 0xe0
1004795c:	438a      	bics	r2, r1
1004795e:	605a      	str	r2, [r3, #4]

        if ((hspi->Init.Mode == SPI_MODE_MASTER) && ((hspi->Init.Direction == SPI_DIRECTION_1LINE)
10047960:	68fb      	ldr	r3, [r7, #12]
10047962:	685a      	ldr	r2, [r3, #4]
10047964:	2382      	movs	r3, #130	@ 0x82
10047966:	005b      	lsls	r3, r3, #1
10047968:	429a      	cmp	r2, r3
1004796a:	d113      	bne.n	10047994 <SPI_WaitFlagStateUntilTimeout+0x98>
1004796c:	68fb      	ldr	r3, [r7, #12]
1004796e:	689a      	ldr	r2, [r3, #8]
10047970:	2380      	movs	r3, #128	@ 0x80
10047972:	021b      	lsls	r3, r3, #8
10047974:	429a      	cmp	r2, r3
10047976:	d005      	beq.n	10047984 <SPI_WaitFlagStateUntilTimeout+0x88>
                                                     || (hspi->Init.Direction == SPI_DIRECTION_2LINES_RXONLY)))
10047978:	68fb      	ldr	r3, [r7, #12]
1004797a:	689a      	ldr	r2, [r3, #8]
1004797c:	2380      	movs	r3, #128	@ 0x80
1004797e:	00db      	lsls	r3, r3, #3
10047980:	429a      	cmp	r2, r3
10047982:	d107      	bne.n	10047994 <SPI_WaitFlagStateUntilTimeout+0x98>
        {
          /* Disable SPI peripheral */
          __HAL_SPI_DISABLE(hspi);
10047984:	68fb      	ldr	r3, [r7, #12]
10047986:	681b      	ldr	r3, [r3, #0]
10047988:	681a      	ldr	r2, [r3, #0]
1004798a:	68fb      	ldr	r3, [r7, #12]
1004798c:	681b      	ldr	r3, [r3, #0]
1004798e:	2140      	movs	r1, #64	@ 0x40
10047990:	438a      	bics	r2, r1
10047992:	601a      	str	r2, [r3, #0]
        }

        /* Reset CRC Calculation */
        if (hspi->Init.CRCCalculation == SPI_CRCCALCULATION_ENABLE)
10047994:	68fb      	ldr	r3, [r7, #12]
10047996:	6a9a      	ldr	r2, [r3, #40]	@ 0x28
10047998:	2380      	movs	r3, #128	@ 0x80
1004799a:	019b      	lsls	r3, r3, #6
1004799c:	429a      	cmp	r2, r3
1004799e:	d110      	bne.n	100479c2 <SPI_WaitFlagStateUntilTimeout+0xc6>
        {
          SPI_RESET_CRC(hspi);
100479a0:	68fb      	ldr	r3, [r7, #12]
100479a2:	681b      	ldr	r3, [r3, #0]
100479a4:	681a      	ldr	r2, [r3, #0]
100479a6:	68fb      	ldr	r3, [r7, #12]
100479a8:	681b      	ldr	r3, [r3, #0]
100479aa:	491a      	ldr	r1, [pc, #104]	@ (10047a14 <SPI_WaitFlagStateUntilTimeout+0x118>)
100479ac:	400a      	ands	r2, r1
100479ae:	601a      	str	r2, [r3, #0]
100479b0:	68fb      	ldr	r3, [r7, #12]
100479b2:	681b      	ldr	r3, [r3, #0]
100479b4:	681a      	ldr	r2, [r3, #0]
100479b6:	68fb      	ldr	r3, [r7, #12]
100479b8:	681b      	ldr	r3, [r3, #0]
100479ba:	2180      	movs	r1, #128	@ 0x80
100479bc:	0189      	lsls	r1, r1, #6
100479be:	430a      	orrs	r2, r1
100479c0:	601a      	str	r2, [r3, #0]
        }

        hspi->State = HAL_SPI_STATE_READY;
100479c2:	68fb      	ldr	r3, [r7, #12]
100479c4:	225d      	movs	r2, #93	@ 0x5d
100479c6:	2101      	movs	r1, #1
100479c8:	5499      	strb	r1, [r3, r2]

        /* Process Unlocked */
        __HAL_UNLOCK(hspi);
100479ca:	68fb      	ldr	r3, [r7, #12]
100479cc:	225c      	movs	r2, #92	@ 0x5c
100479ce:	2100      	movs	r1, #0
100479d0:	5499      	strb	r1, [r3, r2]

        return HAL_TIMEOUT;
100479d2:	2303      	movs	r3, #3
100479d4:	e018      	b.n	10047a08 <SPI_WaitFlagStateUntilTimeout+0x10c>
      }
      /* If Systick is disabled or not incremented, deactivate timeout to go in disable loop procedure */
      if (count == 0U)
100479d6:	697b      	ldr	r3, [r7, #20]
100479d8:	2b00      	cmp	r3, #0
100479da:	d102      	bne.n	100479e2 <SPI_WaitFlagStateUntilTimeout+0xe6>
      {
        tmp_timeout = 0U;
100479dc:	2300      	movs	r3, #0
100479de:	61fb      	str	r3, [r7, #28]
100479e0:	e002      	b.n	100479e8 <SPI_WaitFlagStateUntilTimeout+0xec>
      }
      else
      {
        count--;
100479e2:	697b      	ldr	r3, [r7, #20]
100479e4:	3b01      	subs	r3, #1
100479e6:	617b      	str	r3, [r7, #20]
  while ((__HAL_SPI_GET_FLAG(hspi, Flag) ? SET : RESET) != State)
100479e8:	68fb      	ldr	r3, [r7, #12]
100479ea:	681b      	ldr	r3, [r3, #0]
100479ec:	689b      	ldr	r3, [r3, #8]
100479ee:	68ba      	ldr	r2, [r7, #8]
100479f0:	4013      	ands	r3, r2
100479f2:	68ba      	ldr	r2, [r7, #8]
100479f4:	1ad3      	subs	r3, r2, r3
100479f6:	425a      	negs	r2, r3
100479f8:	4153      	adcs	r3, r2
100479fa:	b2db      	uxtb	r3, r3
100479fc:	001a      	movs	r2, r3
100479fe:	1dfb      	adds	r3, r7, #7
10047a00:	781b      	ldrb	r3, [r3, #0]
10047a02:	429a      	cmp	r2, r3
10047a04:	d196      	bne.n	10047934 <SPI_WaitFlagStateUntilTimeout+0x38>
      }
    }
  }

  return HAL_OK;
10047a06:	2300      	movs	r3, #0
}
10047a08:	0018      	movs	r0, r3
10047a0a:	46bd      	mov	sp, r7
10047a0c:	b008      	add	sp, #32
10047a0e:	bd80      	pop	{r7, pc}
10047a10:	20000200 	.word	0x20000200
10047a14:	ffffdfff 	.word	0xffffdfff

10047a18 <SPI_WaitFifoStateUntilTimeout>:
  * @param  Tickstart tick start value
  * @retval HAL status
  */
static HAL_StatusTypeDef SPI_WaitFifoStateUntilTimeout(SPI_HandleTypeDef *hspi, uint32_t Fifo, uint32_t State,
                                                       uint32_t Timeout, uint32_t Tickstart)
{
10047a18:	b580      	push	{r7, lr}
10047a1a:	b08a      	sub	sp, #40	@ 0x28
10047a1c:	af00      	add	r7, sp, #0
10047a1e:	60f8      	str	r0, [r7, #12]
10047a20:	60b9      	str	r1, [r7, #8]
10047a22:	607a      	str	r2, [r7, #4]
10047a24:	603b      	str	r3, [r7, #0]
  __IO uint32_t count;
  uint32_t tmp_timeout;
  uint32_t tmp_tickstart;
  __IO const uint8_t  *ptmpreg8;
  __IO uint8_t  tmpreg8 = 0;
10047a26:	2317      	movs	r3, #23
10047a28:	18fb      	adds	r3, r7, r3
10047a2a:	2200      	movs	r2, #0
10047a2c:	701a      	strb	r2, [r3, #0]

  /* Adjust Timeout value  in case of end of transfer */
  tmp_timeout = Timeout - (HAL_GetTick() - Tickstart);
10047a2e:	f7fc fad1 	bl	10043fd4 <HAL_GetTick>
10047a32:	0002      	movs	r2, r0
10047a34:	6b3b      	ldr	r3, [r7, #48]	@ 0x30
10047a36:	1a9b      	subs	r3, r3, r2
10047a38:	683a      	ldr	r2, [r7, #0]
10047a3a:	18d3      	adds	r3, r2, r3
10047a3c:	627b      	str	r3, [r7, #36]	@ 0x24
  tmp_tickstart = HAL_GetTick();
10047a3e:	f7fc fac9 	bl	10043fd4 <HAL_GetTick>
10047a42:	0003      	movs	r3, r0
10047a44:	623b      	str	r3, [r7, #32]

  /* Initialize the 8bit temporary pointer */
  ptmpreg8 = (__IO uint8_t *)&hspi->Instance->DR;
10047a46:	68fb      	ldr	r3, [r7, #12]
10047a48:	681b      	ldr	r3, [r3, #0]
10047a4a:	330c      	adds	r3, #12
10047a4c:	61fb      	str	r3, [r7, #28]

  /* Calculate Timeout based on a software loop to avoid blocking issue if Systick is disabled */
  count = tmp_timeout * ((SystemCoreClock * 35U) >> 20U);
10047a4e:	4b41      	ldr	r3, [pc, #260]	@ (10047b54 <SPI_WaitFifoStateUntilTimeout+0x13c>)
10047a50:	681a      	ldr	r2, [r3, #0]
10047a52:	0013      	movs	r3, r2
10047a54:	009b      	lsls	r3, r3, #2
10047a56:	189b      	adds	r3, r3, r2
10047a58:	00da      	lsls	r2, r3, #3
10047a5a:	1ad3      	subs	r3, r2, r3
10047a5c:	0d1b      	lsrs	r3, r3, #20
10047a5e:	6a7a      	ldr	r2, [r7, #36]	@ 0x24
10047a60:	4353      	muls	r3, r2
10047a62:	61bb      	str	r3, [r7, #24]

  while ((hspi->Instance->SR & Fifo) != State)
10047a64:	e069      	b.n	10047b3a <SPI_WaitFifoStateUntilTimeout+0x122>
  {
    if ((Fifo == SPI_SR_FRLVL) && (State == SPI_FRLVL_EMPTY))
10047a66:	68ba      	ldr	r2, [r7, #8]
10047a68:	23c0      	movs	r3, #192	@ 0xc0
10047a6a:	00db      	lsls	r3, r3, #3
10047a6c:	429a      	cmp	r2, r3
10047a6e:	d10a      	bne.n	10047a86 <SPI_WaitFifoStateUntilTimeout+0x6e>
10047a70:	687b      	ldr	r3, [r7, #4]
10047a72:	2b00      	cmp	r3, #0
10047a74:	d107      	bne.n	10047a86 <SPI_WaitFifoStateUntilTimeout+0x6e>
    {
      /* Flush Data Register by a blank read */
      tmpreg8 = *ptmpreg8;
10047a76:	69fb      	ldr	r3, [r7, #28]
10047a78:	781b      	ldrb	r3, [r3, #0]
10047a7a:	b2da      	uxtb	r2, r3
10047a7c:	2117      	movs	r1, #23
10047a7e:	187b      	adds	r3, r7, r1
10047a80:	701a      	strb	r2, [r3, #0]
      /* To avoid GCC warning */
      UNUSED(tmpreg8);
10047a82:	187b      	adds	r3, r7, r1
10047a84:	781b      	ldrb	r3, [r3, #0]
    }

    if (Timeout != HAL_MAX_DELAY)
10047a86:	683b      	ldr	r3, [r7, #0]
10047a88:	3301      	adds	r3, #1
10047a8a:	d056      	beq.n	10047b3a <SPI_WaitFifoStateUntilTimeout+0x122>
    {
      if (((HAL_GetTick() - tmp_tickstart) >= tmp_timeout) || (tmp_timeout == 0U))
10047a8c:	f7fc faa2 	bl	10043fd4 <HAL_GetTick>
10047a90:	0002      	movs	r2, r0
10047a92:	6a3b      	ldr	r3, [r7, #32]
10047a94:	1ad3      	subs	r3, r2, r3
10047a96:	6a7a      	ldr	r2, [r7, #36]	@ 0x24
10047a98:	429a      	cmp	r2, r3
10047a9a:	d902      	bls.n	10047aa2 <SPI_WaitFifoStateUntilTimeout+0x8a>
10047a9c:	6a7b      	ldr	r3, [r7, #36]	@ 0x24
10047a9e:	2b00      	cmp	r3, #0
10047aa0:	d142      	bne.n	10047b28 <SPI_WaitFifoStateUntilTimeout+0x110>
        /* Disable the SPI and reset the CRC: the CRC value should be cleared
           on both master and slave sides in order to resynchronize the master
           and slave for their respective CRC calculation */

        /* Disable TXE, RXNE and ERR interrupts for the interrupt process */
        __HAL_SPI_DISABLE_IT(hspi, (SPI_IT_TXE | SPI_IT_RXNE | SPI_IT_ERR));
10047aa2:	68fb      	ldr	r3, [r7, #12]
10047aa4:	681b      	ldr	r3, [r3, #0]
10047aa6:	685a      	ldr	r2, [r3, #4]
10047aa8:	68fb      	ldr	r3, [r7, #12]
10047aaa:	681b      	ldr	r3, [r3, #0]
10047aac:	21e0      	movs	r1, #224	@ 0xe0
10047aae:	438a      	bics	r2, r1
10047ab0:	605a      	str	r2, [r3, #4]

        if ((hspi->Init.Mode == SPI_MODE_MASTER) && ((hspi->Init.Direction == SPI_DIRECTION_1LINE)
10047ab2:	68fb      	ldr	r3, [r7, #12]
10047ab4:	685a      	ldr	r2, [r3, #4]
10047ab6:	2382      	movs	r3, #130	@ 0x82
10047ab8:	005b      	lsls	r3, r3, #1
10047aba:	429a      	cmp	r2, r3
10047abc:	d113      	bne.n	10047ae6 <SPI_WaitFifoStateUntilTimeout+0xce>
10047abe:	68fb      	ldr	r3, [r7, #12]
10047ac0:	689a      	ldr	r2, [r3, #8]
10047ac2:	2380      	movs	r3, #128	@ 0x80
10047ac4:	021b      	lsls	r3, r3, #8
10047ac6:	429a      	cmp	r2, r3
10047ac8:	d005      	beq.n	10047ad6 <SPI_WaitFifoStateUntilTimeout+0xbe>
                                                     || (hspi->Init.Direction == SPI_DIRECTION_2LINES_RXONLY)))
10047aca:	68fb      	ldr	r3, [r7, #12]
10047acc:	689a      	ldr	r2, [r3, #8]
10047ace:	2380      	movs	r3, #128	@ 0x80
10047ad0:	00db      	lsls	r3, r3, #3
10047ad2:	429a      	cmp	r2, r3
10047ad4:	d107      	bne.n	10047ae6 <SPI_WaitFifoStateUntilTimeout+0xce>
        {
          /* Disable SPI peripheral */
          __HAL_SPI_DISABLE(hspi);
10047ad6:	68fb      	ldr	r3, [r7, #12]
10047ad8:	681b      	ldr	r3, [r3, #0]
10047ada:	681a      	ldr	r2, [r3, #0]
10047adc:	68fb      	ldr	r3, [r7, #12]
10047ade:	681b      	ldr	r3, [r3, #0]
10047ae0:	2140      	movs	r1, #64	@ 0x40
10047ae2:	438a      	bics	r2, r1
10047ae4:	601a      	str	r2, [r3, #0]
        }

        /* Reset CRC Calculation */
        if (hspi->Init.CRCCalculation == SPI_CRCCALCULATION_ENABLE)
10047ae6:	68fb      	ldr	r3, [r7, #12]
10047ae8:	6a9a      	ldr	r2, [r3, #40]	@ 0x28
10047aea:	2380      	movs	r3, #128	@ 0x80
10047aec:	019b      	lsls	r3, r3, #6
10047aee:	429a      	cmp	r2, r3
10047af0:	d110      	bne.n	10047b14 <SPI_WaitFifoStateUntilTimeout+0xfc>
        {
          SPI_RESET_CRC(hspi);
10047af2:	68fb      	ldr	r3, [r7, #12]
10047af4:	681b      	ldr	r3, [r3, #0]
10047af6:	681a      	ldr	r2, [r3, #0]
10047af8:	68fb      	ldr	r3, [r7, #12]
10047afa:	681b      	ldr	r3, [r3, #0]
10047afc:	4916      	ldr	r1, [pc, #88]	@ (10047b58 <SPI_WaitFifoStateUntilTimeout+0x140>)
10047afe:	400a      	ands	r2, r1
10047b00:	601a      	str	r2, [r3, #0]
10047b02:	68fb      	ldr	r3, [r7, #12]
10047b04:	681b      	ldr	r3, [r3, #0]
10047b06:	681a      	ldr	r2, [r3, #0]
10047b08:	68fb      	ldr	r3, [r7, #12]
10047b0a:	681b      	ldr	r3, [r3, #0]
10047b0c:	2180      	movs	r1, #128	@ 0x80
10047b0e:	0189      	lsls	r1, r1, #6
10047b10:	430a      	orrs	r2, r1
10047b12:	601a      	str	r2, [r3, #0]
        }

        hspi->State = HAL_SPI_STATE_READY;
10047b14:	68fb      	ldr	r3, [r7, #12]
10047b16:	225d      	movs	r2, #93	@ 0x5d
10047b18:	2101      	movs	r1, #1
10047b1a:	5499      	strb	r1, [r3, r2]

        /* Process Unlocked */
        __HAL_UNLOCK(hspi);
10047b1c:	68fb      	ldr	r3, [r7, #12]
10047b1e:	225c      	movs	r2, #92	@ 0x5c
10047b20:	2100      	movs	r1, #0
10047b22:	5499      	strb	r1, [r3, r2]

        return HAL_TIMEOUT;
10047b24:	2303      	movs	r3, #3
10047b26:	e011      	b.n	10047b4c <SPI_WaitFifoStateUntilTimeout+0x134>
      }
      /* If Systick is disabled or not incremented, deactivate timeout to go in disable loop procedure */
      if (count == 0U)
10047b28:	69bb      	ldr	r3, [r7, #24]
10047b2a:	2b00      	cmp	r3, #0
10047b2c:	d102      	bne.n	10047b34 <SPI_WaitFifoStateUntilTimeout+0x11c>
      {
        tmp_timeout = 0U;
10047b2e:	2300      	movs	r3, #0
10047b30:	627b      	str	r3, [r7, #36]	@ 0x24
10047b32:	e002      	b.n	10047b3a <SPI_WaitFifoStateUntilTimeout+0x122>
      }
      else
      {
        count--;
10047b34:	69bb      	ldr	r3, [r7, #24]
10047b36:	3b01      	subs	r3, #1
10047b38:	61bb      	str	r3, [r7, #24]
  while ((hspi->Instance->SR & Fifo) != State)
10047b3a:	68fb      	ldr	r3, [r7, #12]
10047b3c:	681b      	ldr	r3, [r3, #0]
10047b3e:	689b      	ldr	r3, [r3, #8]
10047b40:	68ba      	ldr	r2, [r7, #8]
10047b42:	4013      	ands	r3, r2
10047b44:	687a      	ldr	r2, [r7, #4]
10047b46:	429a      	cmp	r2, r3
10047b48:	d18d      	bne.n	10047a66 <SPI_WaitFifoStateUntilTimeout+0x4e>
      }
    }
  }

  return HAL_OK;
10047b4a:	2300      	movs	r3, #0
}
10047b4c:	0018      	movs	r0, r3
10047b4e:	46bd      	mov	sp, r7
10047b50:	b00a      	add	sp, #40	@ 0x28
10047b52:	bd80      	pop	{r7, pc}
10047b54:	20000200 	.word	0x20000200
10047b58:	ffffdfff 	.word	0xffffdfff

10047b5c <SPI_EndRxTxTransaction>:
  * @param  Timeout Timeout duration
  * @param  Tickstart tick start value
  * @retval HAL status
  */
static HAL_StatusTypeDef SPI_EndRxTxTransaction(SPI_HandleTypeDef *hspi, uint32_t Timeout, uint32_t Tickstart)
{
10047b5c:	b580      	push	{r7, lr}
10047b5e:	b086      	sub	sp, #24
10047b60:	af02      	add	r7, sp, #8
10047b62:	60f8      	str	r0, [r7, #12]
10047b64:	60b9      	str	r1, [r7, #8]
10047b66:	607a      	str	r2, [r7, #4]
  /* Control if the TX fifo is empty */
  if (SPI_WaitFifoStateUntilTimeout(hspi, SPI_FLAG_FTLVL, SPI_FTLVL_EMPTY, Timeout, Tickstart) != HAL_OK)
10047b68:	68ba      	ldr	r2, [r7, #8]
10047b6a:	23c0      	movs	r3, #192	@ 0xc0
10047b6c:	0159      	lsls	r1, r3, #5
10047b6e:	68f8      	ldr	r0, [r7, #12]
10047b70:	687b      	ldr	r3, [r7, #4]
10047b72:	9300      	str	r3, [sp, #0]
10047b74:	0013      	movs	r3, r2
10047b76:	2200      	movs	r2, #0
10047b78:	f7ff ff4e 	bl	10047a18 <SPI_WaitFifoStateUntilTimeout>
10047b7c:	1e03      	subs	r3, r0, #0
10047b7e:	d007      	beq.n	10047b90 <SPI_EndRxTxTransaction+0x34>
  {
    SET_BIT(hspi->ErrorCode, HAL_SPI_ERROR_FLAG);
10047b80:	68fb      	ldr	r3, [r7, #12]
10047b82:	6e1b      	ldr	r3, [r3, #96]	@ 0x60
10047b84:	2220      	movs	r2, #32
10047b86:	431a      	orrs	r2, r3
10047b88:	68fb      	ldr	r3, [r7, #12]
10047b8a:	661a      	str	r2, [r3, #96]	@ 0x60
    return HAL_TIMEOUT;
10047b8c:	2303      	movs	r3, #3
10047b8e:	e027      	b.n	10047be0 <SPI_EndRxTxTransaction+0x84>
  }

  /* Control the BSY flag */
  if (SPI_WaitFlagStateUntilTimeout(hspi, SPI_FLAG_BSY, RESET, Timeout, Tickstart) != HAL_OK)
10047b90:	68ba      	ldr	r2, [r7, #8]
10047b92:	68f8      	ldr	r0, [r7, #12]
10047b94:	687b      	ldr	r3, [r7, #4]
10047b96:	9300      	str	r3, [sp, #0]
10047b98:	0013      	movs	r3, r2
10047b9a:	2200      	movs	r2, #0
10047b9c:	2180      	movs	r1, #128	@ 0x80
10047b9e:	f7ff fead 	bl	100478fc <SPI_WaitFlagStateUntilTimeout>
10047ba2:	1e03      	subs	r3, r0, #0
10047ba4:	d007      	beq.n	10047bb6 <SPI_EndRxTxTransaction+0x5a>
  {
    SET_BIT(hspi->ErrorCode, HAL_SPI_ERROR_FLAG);
10047ba6:	68fb      	ldr	r3, [r7, #12]
10047ba8:	6e1b      	ldr	r3, [r3, #96]	@ 0x60
10047baa:	2220      	movs	r2, #32
10047bac:	431a      	orrs	r2, r3
10047bae:	68fb      	ldr	r3, [r7, #12]
10047bb0:	661a      	str	r2, [r3, #96]	@ 0x60
    return HAL_TIMEOUT;
10047bb2:	2303      	movs	r3, #3
10047bb4:	e014      	b.n	10047be0 <SPI_EndRxTxTransaction+0x84>
  }

  /* Control if the RX fifo is empty */
  if (SPI_WaitFifoStateUntilTimeout(hspi, SPI_FLAG_FRLVL, SPI_FRLVL_EMPTY, Timeout, Tickstart) != HAL_OK)
10047bb6:	68ba      	ldr	r2, [r7, #8]
10047bb8:	23c0      	movs	r3, #192	@ 0xc0
10047bba:	00d9      	lsls	r1, r3, #3
10047bbc:	68f8      	ldr	r0, [r7, #12]
10047bbe:	687b      	ldr	r3, [r7, #4]
10047bc0:	9300      	str	r3, [sp, #0]
10047bc2:	0013      	movs	r3, r2
10047bc4:	2200      	movs	r2, #0
10047bc6:	f7ff ff27 	bl	10047a18 <SPI_WaitFifoStateUntilTimeout>
10047bca:	1e03      	subs	r3, r0, #0
10047bcc:	d007      	beq.n	10047bde <SPI_EndRxTxTransaction+0x82>
  {
    SET_BIT(hspi->ErrorCode, HAL_SPI_ERROR_FLAG);
10047bce:	68fb      	ldr	r3, [r7, #12]
10047bd0:	6e1b      	ldr	r3, [r3, #96]	@ 0x60
10047bd2:	2220      	movs	r2, #32
10047bd4:	431a      	orrs	r2, r3
10047bd6:	68fb      	ldr	r3, [r7, #12]
10047bd8:	661a      	str	r2, [r3, #96]	@ 0x60
    return HAL_TIMEOUT;
10047bda:	2303      	movs	r3, #3
10047bdc:	e000      	b.n	10047be0 <SPI_EndRxTxTransaction+0x84>
  }

  return HAL_OK;
10047bde:	2300      	movs	r3, #0
}
10047be0:	0018      	movs	r0, r3
10047be2:	46bd      	mov	sp, r7
10047be4:	b004      	add	sp, #16
10047be6:	bd80      	pop	{r7, pc}

10047be8 <HAL_TIM_Base_Init>:
  *         Ex: call @ref HAL_TIM_Base_DeInit() before HAL_TIM_Base_Init()
  * @param  htim TIM Base handle
  * @retval HAL status
  */
HAL_StatusTypeDef HAL_TIM_Base_Init(TIM_HandleTypeDef *htim)
{
10047be8:	b580      	push	{r7, lr}
10047bea:	b082      	sub	sp, #8
10047bec:	af00      	add	r7, sp, #0
10047bee:	6078      	str	r0, [r7, #4]
  /* Check the TIM handle allocation */
  if (htim == NULL)
10047bf0:	687b      	ldr	r3, [r7, #4]
10047bf2:	2b00      	cmp	r3, #0
10047bf4:	d101      	bne.n	10047bfa <HAL_TIM_Base_Init+0x12>
  {
    return HAL_ERROR;
10047bf6:	2301      	movs	r3, #1
10047bf8:	e036      	b.n	10047c68 <HAL_TIM_Base_Init+0x80>
  assert_param(IS_TIM_COUNTER_MODE(htim->Init.CounterMode));
  assert_param(IS_TIM_CLOCKDIVISION_DIV(htim->Init.ClockDivision));
  assert_param(IS_TIM_PERIOD(htim->Init.Period));
  assert_param(IS_TIM_AUTORELOAD_PRELOAD(htim->Init.AutoReloadPreload));

  if (htim->State == HAL_TIM_STATE_RESET)
10047bfa:	687b      	ldr	r3, [r7, #4]
10047bfc:	223d      	movs	r2, #61	@ 0x3d
10047bfe:	5c9b      	ldrb	r3, [r3, r2]
10047c00:	b2db      	uxtb	r3, r3
10047c02:	2b00      	cmp	r3, #0
10047c04:	d107      	bne.n	10047c16 <HAL_TIM_Base_Init+0x2e>
  {
    /* Allocate lock resource and initialize it */
    htim->Lock = HAL_UNLOCKED;
10047c06:	687b      	ldr	r3, [r7, #4]
10047c08:	223c      	movs	r2, #60	@ 0x3c
10047c0a:	2100      	movs	r1, #0
10047c0c:	5499      	strb	r1, [r3, r2]
    }
    /* Init the low level hardware : GPIO, CLOCK, NVIC */
    htim->Base_MspInitCallback(htim);
#else
    /* Init the low level hardware : GPIO, CLOCK, NVIC */
    HAL_TIM_Base_MspInit(htim);
10047c0e:	687b      	ldr	r3, [r7, #4]
10047c10:	0018      	movs	r0, r3
10047c12:	f000 f82d 	bl	10047c70 <HAL_TIM_Base_MspInit>
#endif /* USE_HAL_TIM_REGISTER_CALLBACKS */
  }

  /* Set the TIM state */
  htim->State = HAL_TIM_STATE_BUSY;
10047c16:	687b      	ldr	r3, [r7, #4]
10047c18:	223d      	movs	r2, #61	@ 0x3d
10047c1a:	2102      	movs	r1, #2
10047c1c:	5499      	strb	r1, [r3, r2]

  /* Set the Time Base configuration */
  TIM_Base_SetConfig(htim->Instance, &htim->Init);
10047c1e:	687b      	ldr	r3, [r7, #4]
10047c20:	681a      	ldr	r2, [r3, #0]
10047c22:	687b      	ldr	r3, [r7, #4]
10047c24:	3304      	adds	r3, #4
10047c26:	0019      	movs	r1, r3
10047c28:	0010      	movs	r0, r2
10047c2a:	f000 f939 	bl	10047ea0 <TIM_Base_SetConfig>

  /* Initialize the DMA burst operation state */
  htim->DMABurstState = HAL_DMA_BURST_STATE_READY;
10047c2e:	687b      	ldr	r3, [r7, #4]
10047c30:	2243      	movs	r2, #67	@ 0x43
10047c32:	2101      	movs	r1, #1
10047c34:	5499      	strb	r1, [r3, r2]

  /* Initialize the TIM channels state */
  TIM_CHANNEL_STATE_SET_ALL(htim, HAL_TIM_CHANNEL_STATE_READY);
10047c36:	687b      	ldr	r3, [r7, #4]
10047c38:	223e      	movs	r2, #62	@ 0x3e
10047c3a:	2101      	movs	r1, #1
10047c3c:	5499      	strb	r1, [r3, r2]
10047c3e:	687b      	ldr	r3, [r7, #4]
10047c40:	223f      	movs	r2, #63	@ 0x3f
10047c42:	2101      	movs	r1, #1
10047c44:	5499      	strb	r1, [r3, r2]
10047c46:	687b      	ldr	r3, [r7, #4]
10047c48:	2240      	movs	r2, #64	@ 0x40
10047c4a:	2101      	movs	r1, #1
10047c4c:	5499      	strb	r1, [r3, r2]
10047c4e:	687b      	ldr	r3, [r7, #4]
10047c50:	2241      	movs	r2, #65	@ 0x41
10047c52:	2101      	movs	r1, #1
10047c54:	5499      	strb	r1, [r3, r2]
  TIM_CHANNEL_N_STATE_SET_ALL(htim, HAL_TIM_CHANNEL_STATE_READY);
10047c56:	687b      	ldr	r3, [r7, #4]
10047c58:	2242      	movs	r2, #66	@ 0x42
10047c5a:	2101      	movs	r1, #1
10047c5c:	5499      	strb	r1, [r3, r2]

  /* Initialize the TIM state*/
  htim->State = HAL_TIM_STATE_READY;
10047c5e:	687b      	ldr	r3, [r7, #4]
10047c60:	223d      	movs	r2, #61	@ 0x3d
10047c62:	2101      	movs	r1, #1
10047c64:	5499      	strb	r1, [r3, r2]

  return HAL_OK;
10047c66:	2300      	movs	r3, #0
}
10047c68:	0018      	movs	r0, r3
10047c6a:	46bd      	mov	sp, r7
10047c6c:	b002      	add	sp, #8
10047c6e:	bd80      	pop	{r7, pc}

10047c70 <HAL_TIM_Base_MspInit>:
  * @brief  Initializes the TIM Base MSP.
  * @param  htim TIM Base handle
  * @retval None
  */
__weak void HAL_TIM_Base_MspInit(TIM_HandleTypeDef *htim)
{
10047c70:	b580      	push	{r7, lr}
10047c72:	b082      	sub	sp, #8
10047c74:	af00      	add	r7, sp, #0
10047c76:	6078      	str	r0, [r7, #4]
  UNUSED(htim);

  /* NOTE : This function should not be modified, when the callback is needed,
            the HAL_TIM_Base_MspInit could be implemented in the user file
   */
}
10047c78:	46c0      	nop			@ (mov r8, r8)
10047c7a:	46bd      	mov	sp, r7
10047c7c:	b002      	add	sp, #8
10047c7e:	bd80      	pop	{r7, pc}

10047c80 <HAL_TIM_ConfigClockSource>:
  * @param  sClockSourceConfig pointer to a TIM_ClockConfigTypeDef structure that
  *         contains the clock source information for the TIM peripheral.
  * @retval HAL status
  */
HAL_StatusTypeDef HAL_TIM_ConfigClockSource(TIM_HandleTypeDef *htim, const TIM_ClockConfigTypeDef *sClockSourceConfig)
{
10047c80:	b580      	push	{r7, lr}
10047c82:	b084      	sub	sp, #16
10047c84:	af00      	add	r7, sp, #0
10047c86:	6078      	str	r0, [r7, #4]
10047c88:	6039      	str	r1, [r7, #0]
  HAL_StatusTypeDef status = HAL_OK;
10047c8a:	230f      	movs	r3, #15
10047c8c:	18fb      	adds	r3, r7, r3
10047c8e:	2200      	movs	r2, #0
10047c90:	701a      	strb	r2, [r3, #0]
  uint32_t tmpsmcr;

  /* Process Locked */
  __HAL_LOCK(htim);
10047c92:	687b      	ldr	r3, [r7, #4]
10047c94:	223c      	movs	r2, #60	@ 0x3c
10047c96:	5c9b      	ldrb	r3, [r3, r2]
10047c98:	2b01      	cmp	r3, #1
10047c9a:	d101      	bne.n	10047ca0 <HAL_TIM_ConfigClockSource+0x20>
10047c9c:	2302      	movs	r3, #2
10047c9e:	e0b0      	b.n	10047e02 <HAL_TIM_ConfigClockSource+0x182>
10047ca0:	687b      	ldr	r3, [r7, #4]
10047ca2:	223c      	movs	r2, #60	@ 0x3c
10047ca4:	2101      	movs	r1, #1
10047ca6:	5499      	strb	r1, [r3, r2]

  htim->State = HAL_TIM_STATE_BUSY;
10047ca8:	687b      	ldr	r3, [r7, #4]
10047caa:	223d      	movs	r2, #61	@ 0x3d
10047cac:	2102      	movs	r1, #2
10047cae:	5499      	strb	r1, [r3, r2]

  /* Check the parameters */
  assert_param(IS_TIM_CLOCKSOURCE(sClockSourceConfig->ClockSource));

  /* Reset the SMS, TS, ECE, ETPS and ETRF bits */
  tmpsmcr = htim->Instance->SMCR;
10047cb0:	687b      	ldr	r3, [r7, #4]
10047cb2:	681b      	ldr	r3, [r3, #0]
10047cb4:	689b      	ldr	r3, [r3, #8]
10047cb6:	60bb      	str	r3, [r7, #8]
  tmpsmcr &= ~(TIM_SMCR_SMS | TIM_SMCR_TS);
10047cb8:	68bb      	ldr	r3, [r7, #8]
10047cba:	4a54      	ldr	r2, [pc, #336]	@ (10047e0c <HAL_TIM_ConfigClockSource+0x18c>)
10047cbc:	4013      	ands	r3, r2
10047cbe:	60bb      	str	r3, [r7, #8]
  tmpsmcr &= ~(TIM_SMCR_ETF | TIM_SMCR_ETPS | TIM_SMCR_ECE | TIM_SMCR_ETP);
10047cc0:	68bb      	ldr	r3, [r7, #8]
10047cc2:	4a53      	ldr	r2, [pc, #332]	@ (10047e10 <HAL_TIM_ConfigClockSource+0x190>)
10047cc4:	4013      	ands	r3, r2
10047cc6:	60bb      	str	r3, [r7, #8]
  htim->Instance->SMCR = tmpsmcr;
10047cc8:	687b      	ldr	r3, [r7, #4]
10047cca:	681b      	ldr	r3, [r3, #0]
10047ccc:	68ba      	ldr	r2, [r7, #8]
10047cce:	609a      	str	r2, [r3, #8]

  switch (sClockSourceConfig->ClockSource)
10047cd0:	683b      	ldr	r3, [r7, #0]
10047cd2:	681b      	ldr	r3, [r3, #0]
10047cd4:	2280      	movs	r2, #128	@ 0x80
10047cd6:	0192      	lsls	r2, r2, #6
10047cd8:	4293      	cmp	r3, r2
10047cda:	d034      	beq.n	10047d46 <HAL_TIM_ConfigClockSource+0xc6>
10047cdc:	2280      	movs	r2, #128	@ 0x80
10047cde:	0192      	lsls	r2, r2, #6
10047ce0:	4293      	cmp	r3, r2
10047ce2:	d900      	bls.n	10047ce6 <HAL_TIM_ConfigClockSource+0x66>
10047ce4:	e07c      	b.n	10047de0 <HAL_TIM_ConfigClockSource+0x160>
10047ce6:	2280      	movs	r2, #128	@ 0x80
10047ce8:	0152      	lsls	r2, r2, #5
10047cea:	4293      	cmp	r3, r2
10047cec:	d100      	bne.n	10047cf0 <HAL_TIM_ConfigClockSource+0x70>
10047cee:	e07c      	b.n	10047dea <HAL_TIM_ConfigClockSource+0x16a>
10047cf0:	2280      	movs	r2, #128	@ 0x80
10047cf2:	0152      	lsls	r2, r2, #5
10047cf4:	4293      	cmp	r3, r2
10047cf6:	d900      	bls.n	10047cfa <HAL_TIM_ConfigClockSource+0x7a>
10047cf8:	e072      	b.n	10047de0 <HAL_TIM_ConfigClockSource+0x160>
10047cfa:	2b70      	cmp	r3, #112	@ 0x70
10047cfc:	d00c      	beq.n	10047d18 <HAL_TIM_ConfigClockSource+0x98>
10047cfe:	d900      	bls.n	10047d02 <HAL_TIM_ConfigClockSource+0x82>
10047d00:	e06e      	b.n	10047de0 <HAL_TIM_ConfigClockSource+0x160>
10047d02:	2b60      	cmp	r3, #96	@ 0x60
10047d04:	d043      	beq.n	10047d8e <HAL_TIM_ConfigClockSource+0x10e>
10047d06:	d86b      	bhi.n	10047de0 <HAL_TIM_ConfigClockSource+0x160>
10047d08:	2b50      	cmp	r3, #80	@ 0x50
10047d0a:	d030      	beq.n	10047d6e <HAL_TIM_ConfigClockSource+0xee>
10047d0c:	d868      	bhi.n	10047de0 <HAL_TIM_ConfigClockSource+0x160>
10047d0e:	2b00      	cmp	r3, #0
10047d10:	d05d      	beq.n	10047dce <HAL_TIM_ConfigClockSource+0x14e>
10047d12:	2b40      	cmp	r3, #64	@ 0x40
10047d14:	d04b      	beq.n	10047dae <HAL_TIM_ConfigClockSource+0x12e>
10047d16:	e063      	b.n	10047de0 <HAL_TIM_ConfigClockSource+0x160>
      assert_param(IS_TIM_CLOCKPRESCALER(sClockSourceConfig->ClockPrescaler));
      assert_param(IS_TIM_CLOCKPOLARITY(sClockSourceConfig->ClockPolarity));
      assert_param(IS_TIM_CLOCKFILTER(sClockSourceConfig->ClockFilter));

      /* Configure the ETR Clock source */
      TIM_ETR_SetConfig(htim->Instance,
10047d18:	687b      	ldr	r3, [r7, #4]
10047d1a:	6818      	ldr	r0, [r3, #0]
                        sClockSourceConfig->ClockPrescaler,
10047d1c:	683b      	ldr	r3, [r7, #0]
10047d1e:	6899      	ldr	r1, [r3, #8]
                        sClockSourceConfig->ClockPolarity,
10047d20:	683b      	ldr	r3, [r7, #0]
10047d22:	685a      	ldr	r2, [r3, #4]
                        sClockSourceConfig->ClockFilter);
10047d24:	683b      	ldr	r3, [r7, #0]
10047d26:	68db      	ldr	r3, [r3, #12]
      TIM_ETR_SetConfig(htim->Instance,
10047d28:	f000 fa22 	bl	10048170 <TIM_ETR_SetConfig>

      /* Select the External clock mode1 and the ETRF trigger */
      tmpsmcr = htim->Instance->SMCR;
10047d2c:	687b      	ldr	r3, [r7, #4]
10047d2e:	681b      	ldr	r3, [r3, #0]
10047d30:	689b      	ldr	r3, [r3, #8]
10047d32:	60bb      	str	r3, [r7, #8]
      tmpsmcr |= (TIM_SLAVEMODE_EXTERNAL1 | TIM_CLOCKSOURCE_ETRMODE1);
10047d34:	68bb      	ldr	r3, [r7, #8]
10047d36:	2277      	movs	r2, #119	@ 0x77
10047d38:	4313      	orrs	r3, r2
10047d3a:	60bb      	str	r3, [r7, #8]
      /* Write to TIMx SMCR */
      htim->Instance->SMCR = tmpsmcr;
10047d3c:	687b      	ldr	r3, [r7, #4]
10047d3e:	681b      	ldr	r3, [r3, #0]
10047d40:	68ba      	ldr	r2, [r7, #8]
10047d42:	609a      	str	r2, [r3, #8]
      break;
10047d44:	e052      	b.n	10047dec <HAL_TIM_ConfigClockSource+0x16c>
      assert_param(IS_TIM_CLOCKPRESCALER(sClockSourceConfig->ClockPrescaler));
      assert_param(IS_TIM_CLOCKPOLARITY(sClockSourceConfig->ClockPolarity));
      assert_param(IS_TIM_CLOCKFILTER(sClockSourceConfig->ClockFilter));

      /* Configure the ETR Clock source */
      TIM_ETR_SetConfig(htim->Instance,
10047d46:	687b      	ldr	r3, [r7, #4]
10047d48:	6818      	ldr	r0, [r3, #0]
                        sClockSourceConfig->ClockPrescaler,
10047d4a:	683b      	ldr	r3, [r7, #0]
10047d4c:	6899      	ldr	r1, [r3, #8]
                        sClockSourceConfig->ClockPolarity,
10047d4e:	683b      	ldr	r3, [r7, #0]
10047d50:	685a      	ldr	r2, [r3, #4]
                        sClockSourceConfig->ClockFilter);
10047d52:	683b      	ldr	r3, [r7, #0]
10047d54:	68db      	ldr	r3, [r3, #12]
      TIM_ETR_SetConfig(htim->Instance,
10047d56:	f000 fa0b 	bl	10048170 <TIM_ETR_SetConfig>
      /* Enable the External clock mode2 */
      htim->Instance->SMCR |= TIM_SMCR_ECE;
10047d5a:	687b      	ldr	r3, [r7, #4]
10047d5c:	681b      	ldr	r3, [r3, #0]
10047d5e:	689a      	ldr	r2, [r3, #8]
10047d60:	687b      	ldr	r3, [r7, #4]
10047d62:	681b      	ldr	r3, [r3, #0]
10047d64:	2180      	movs	r1, #128	@ 0x80
10047d66:	01c9      	lsls	r1, r1, #7
10047d68:	430a      	orrs	r2, r1
10047d6a:	609a      	str	r2, [r3, #8]
      break;
10047d6c:	e03e      	b.n	10047dec <HAL_TIM_ConfigClockSource+0x16c>

      /* Check TI1 input conditioning related parameters */
      assert_param(IS_TIM_CLOCKPOLARITY(sClockSourceConfig->ClockPolarity));
      assert_param(IS_TIM_CLOCKFILTER(sClockSourceConfig->ClockFilter));

      TIM_TI1_ConfigInputStage(htim->Instance,
10047d6e:	687b      	ldr	r3, [r7, #4]
10047d70:	6818      	ldr	r0, [r3, #0]
                               sClockSourceConfig->ClockPolarity,
10047d72:	683b      	ldr	r3, [r7, #0]
10047d74:	6859      	ldr	r1, [r3, #4]
                               sClockSourceConfig->ClockFilter);
10047d76:	683b      	ldr	r3, [r7, #0]
10047d78:	68db      	ldr	r3, [r3, #12]
      TIM_TI1_ConfigInputStage(htim->Instance,
10047d7a:	001a      	movs	r2, r3
10047d7c:	f000 f97c 	bl	10048078 <TIM_TI1_ConfigInputStage>
      TIM_ITRx_SetConfig(htim->Instance, TIM_CLOCKSOURCE_TI1);
10047d80:	687b      	ldr	r3, [r7, #4]
10047d82:	681b      	ldr	r3, [r3, #0]
10047d84:	2150      	movs	r1, #80	@ 0x50
10047d86:	0018      	movs	r0, r3
10047d88:	f000 f9d6 	bl	10048138 <TIM_ITRx_SetConfig>
      break;
10047d8c:	e02e      	b.n	10047dec <HAL_TIM_ConfigClockSource+0x16c>

      /* Check TI2 input conditioning related parameters */
      assert_param(IS_TIM_CLOCKPOLARITY(sClockSourceConfig->ClockPolarity));
      assert_param(IS_TIM_CLOCKFILTER(sClockSourceConfig->ClockFilter));

      TIM_TI2_ConfigInputStage(htim->Instance,
10047d8e:	687b      	ldr	r3, [r7, #4]
10047d90:	6818      	ldr	r0, [r3, #0]
                               sClockSourceConfig->ClockPolarity,
10047d92:	683b      	ldr	r3, [r7, #0]
10047d94:	6859      	ldr	r1, [r3, #4]
                               sClockSourceConfig->ClockFilter);
10047d96:	683b      	ldr	r3, [r7, #0]
10047d98:	68db      	ldr	r3, [r3, #12]
      TIM_TI2_ConfigInputStage(htim->Instance,
10047d9a:	001a      	movs	r2, r3
10047d9c:	f000 f99a 	bl	100480d4 <TIM_TI2_ConfigInputStage>
      TIM_ITRx_SetConfig(htim->Instance, TIM_CLOCKSOURCE_TI2);
10047da0:	687b      	ldr	r3, [r7, #4]
10047da2:	681b      	ldr	r3, [r3, #0]
10047da4:	2160      	movs	r1, #96	@ 0x60
10047da6:	0018      	movs	r0, r3
10047da8:	f000 f9c6 	bl	10048138 <TIM_ITRx_SetConfig>
      break;
10047dac:	e01e      	b.n	10047dec <HAL_TIM_ConfigClockSource+0x16c>

      /* Check TI1 input conditioning related parameters */
      assert_param(IS_TIM_CLOCKPOLARITY(sClockSourceConfig->ClockPolarity));
      assert_param(IS_TIM_CLOCKFILTER(sClockSourceConfig->ClockFilter));

      TIM_TI1_ConfigInputStage(htim->Instance,
10047dae:	687b      	ldr	r3, [r7, #4]
10047db0:	6818      	ldr	r0, [r3, #0]
                               sClockSourceConfig->ClockPolarity,
10047db2:	683b      	ldr	r3, [r7, #0]
10047db4:	6859      	ldr	r1, [r3, #4]
                               sClockSourceConfig->ClockFilter);
10047db6:	683b      	ldr	r3, [r7, #0]
10047db8:	68db      	ldr	r3, [r3, #12]
      TIM_TI1_ConfigInputStage(htim->Instance,
10047dba:	001a      	movs	r2, r3
10047dbc:	f000 f95c 	bl	10048078 <TIM_TI1_ConfigInputStage>
      TIM_ITRx_SetConfig(htim->Instance, TIM_CLOCKSOURCE_TI1ED);
10047dc0:	687b      	ldr	r3, [r7, #4]
10047dc2:	681b      	ldr	r3, [r3, #0]
10047dc4:	2140      	movs	r1, #64	@ 0x40
10047dc6:	0018      	movs	r0, r3
10047dc8:	f000 f9b6 	bl	10048138 <TIM_ITRx_SetConfig>
      break;
10047dcc:	e00e      	b.n	10047dec <HAL_TIM_ConfigClockSource+0x16c>
    case TIM_CLOCKSOURCE_ITR0:
    {
      /* Check whether or not the timer instance supports internal trigger input */
      assert_param(IS_TIM_CLOCKSOURCE_ITRX_INSTANCE(htim->Instance));

      TIM_ITRx_SetConfig(htim->Instance, sClockSourceConfig->ClockSource);
10047dce:	687b      	ldr	r3, [r7, #4]
10047dd0:	681a      	ldr	r2, [r3, #0]
10047dd2:	683b      	ldr	r3, [r7, #0]
10047dd4:	681b      	ldr	r3, [r3, #0]
10047dd6:	0019      	movs	r1, r3
10047dd8:	0010      	movs	r0, r2
10047dda:	f000 f9ad 	bl	10048138 <TIM_ITRx_SetConfig>
      break;
10047dde:	e005      	b.n	10047dec <HAL_TIM_ConfigClockSource+0x16c>
    }

    default:
      status = HAL_ERROR;
10047de0:	230f      	movs	r3, #15
10047de2:	18fb      	adds	r3, r7, r3
10047de4:	2201      	movs	r2, #1
10047de6:	701a      	strb	r2, [r3, #0]
      break;
10047de8:	e000      	b.n	10047dec <HAL_TIM_ConfigClockSource+0x16c>
      break;
10047dea:	46c0      	nop			@ (mov r8, r8)
  }
  htim->State = HAL_TIM_STATE_READY;
10047dec:	687b      	ldr	r3, [r7, #4]
10047dee:	223d      	movs	r2, #61	@ 0x3d
10047df0:	2101      	movs	r1, #1
10047df2:	5499      	strb	r1, [r3, r2]

  __HAL_UNLOCK(htim);
10047df4:	687b      	ldr	r3, [r7, #4]
10047df6:	223c      	movs	r2, #60	@ 0x3c
10047df8:	2100      	movs	r1, #0
10047dfa:	5499      	strb	r1, [r3, r2]

  return status;
10047dfc:	230f      	movs	r3, #15
10047dfe:	18fb      	adds	r3, r7, r3
10047e00:	781b      	ldrb	r3, [r3, #0]
}
10047e02:	0018      	movs	r0, r3
10047e04:	46bd      	mov	sp, r7
10047e06:	b004      	add	sp, #16
10047e08:	bd80      	pop	{r7, pc}
10047e0a:	46c0      	nop			@ (mov r8, r8)
10047e0c:	ffceff88 	.word	0xffceff88
10047e10:	ffff00ff 	.word	0xffff00ff

10047e14 <HAL_TIM_SlaveConfigSynchro>:
  *         timer input or external trigger input) and the Slave mode
  *         (Disable, Reset, Gated, Trigger, External clock mode 1).
  * @retval HAL status
  */
HAL_StatusTypeDef HAL_TIM_SlaveConfigSynchro(TIM_HandleTypeDef *htim, const TIM_SlaveConfigTypeDef *sSlaveConfig)
{
10047e14:	b580      	push	{r7, lr}
10047e16:	b082      	sub	sp, #8
10047e18:	af00      	add	r7, sp, #0
10047e1a:	6078      	str	r0, [r7, #4]
10047e1c:	6039      	str	r1, [r7, #0]
  /* Check the parameters */
  assert_param(IS_TIM_SLAVE_INSTANCE(htim->Instance));
  assert_param(IS_TIM_SLAVE_MODE(sSlaveConfig->SlaveMode));
  assert_param(IS_TIM_TRIGGER_SELECTION(sSlaveConfig->InputTrigger));

  __HAL_LOCK(htim);
10047e1e:	687b      	ldr	r3, [r7, #4]
10047e20:	223c      	movs	r2, #60	@ 0x3c
10047e22:	5c9b      	ldrb	r3, [r3, r2]
10047e24:	2b01      	cmp	r3, #1
10047e26:	d101      	bne.n	10047e2c <HAL_TIM_SlaveConfigSynchro+0x18>
10047e28:	2302      	movs	r3, #2
10047e2a:	e032      	b.n	10047e92 <HAL_TIM_SlaveConfigSynchro+0x7e>
10047e2c:	687b      	ldr	r3, [r7, #4]
10047e2e:	223c      	movs	r2, #60	@ 0x3c
10047e30:	2101      	movs	r1, #1
10047e32:	5499      	strb	r1, [r3, r2]

  htim->State = HAL_TIM_STATE_BUSY;
10047e34:	687b      	ldr	r3, [r7, #4]
10047e36:	223d      	movs	r2, #61	@ 0x3d
10047e38:	2102      	movs	r1, #2
10047e3a:	5499      	strb	r1, [r3, r2]

  if (TIM_SlaveTimer_SetConfig(htim, sSlaveConfig) != HAL_OK)
10047e3c:	683a      	ldr	r2, [r7, #0]
10047e3e:	687b      	ldr	r3, [r7, #4]
10047e40:	0011      	movs	r1, r2
10047e42:	0018      	movs	r0, r3
10047e44:	f000 f88c 	bl	10047f60 <TIM_SlaveTimer_SetConfig>
10047e48:	1e03      	subs	r3, r0, #0
10047e4a:	d009      	beq.n	10047e60 <HAL_TIM_SlaveConfigSynchro+0x4c>
  {
    htim->State = HAL_TIM_STATE_READY;
10047e4c:	687b      	ldr	r3, [r7, #4]
10047e4e:	223d      	movs	r2, #61	@ 0x3d
10047e50:	2101      	movs	r1, #1
10047e52:	5499      	strb	r1, [r3, r2]
    __HAL_UNLOCK(htim);
10047e54:	687b      	ldr	r3, [r7, #4]
10047e56:	223c      	movs	r2, #60	@ 0x3c
10047e58:	2100      	movs	r1, #0
10047e5a:	5499      	strb	r1, [r3, r2]
    return HAL_ERROR;
10047e5c:	2301      	movs	r3, #1
10047e5e:	e018      	b.n	10047e92 <HAL_TIM_SlaveConfigSynchro+0x7e>
  }

  /* Disable Trigger Interrupt */
  __HAL_TIM_DISABLE_IT(htim, TIM_IT_TRIGGER);
10047e60:	687b      	ldr	r3, [r7, #4]
10047e62:	681b      	ldr	r3, [r3, #0]
10047e64:	68da      	ldr	r2, [r3, #12]
10047e66:	687b      	ldr	r3, [r7, #4]
10047e68:	681b      	ldr	r3, [r3, #0]
10047e6a:	2140      	movs	r1, #64	@ 0x40
10047e6c:	438a      	bics	r2, r1
10047e6e:	60da      	str	r2, [r3, #12]

  /* Disable Trigger DMA request */
  __HAL_TIM_DISABLE_DMA(htim, TIM_DMA_TRIGGER);
10047e70:	687b      	ldr	r3, [r7, #4]
10047e72:	681b      	ldr	r3, [r3, #0]
10047e74:	68da      	ldr	r2, [r3, #12]
10047e76:	687b      	ldr	r3, [r7, #4]
10047e78:	681b      	ldr	r3, [r3, #0]
10047e7a:	4908      	ldr	r1, [pc, #32]	@ (10047e9c <HAL_TIM_SlaveConfigSynchro+0x88>)
10047e7c:	400a      	ands	r2, r1
10047e7e:	60da      	str	r2, [r3, #12]

  htim->State = HAL_TIM_STATE_READY;
10047e80:	687b      	ldr	r3, [r7, #4]
10047e82:	223d      	movs	r2, #61	@ 0x3d
10047e84:	2101      	movs	r1, #1
10047e86:	5499      	strb	r1, [r3, r2]

  __HAL_UNLOCK(htim);
10047e88:	687b      	ldr	r3, [r7, #4]
10047e8a:	223c      	movs	r2, #60	@ 0x3c
10047e8c:	2100      	movs	r1, #0
10047e8e:	5499      	strb	r1, [r3, r2]

  return HAL_OK;
10047e90:	2300      	movs	r3, #0
}
10047e92:	0018      	movs	r0, r3
10047e94:	46bd      	mov	sp, r7
10047e96:	b002      	add	sp, #8
10047e98:	bd80      	pop	{r7, pc}
10047e9a:	46c0      	nop			@ (mov r8, r8)
10047e9c:	ffffbfff 	.word	0xffffbfff

10047ea0 <TIM_Base_SetConfig>:
  * @param  TIMx TIM peripheral
  * @param  Structure TIM Base configuration structure
  * @retval None
  */
static void TIM_Base_SetConfig(TIM_TypeDef *TIMx, const TIM_Base_InitTypeDef *Structure)
{
10047ea0:	b580      	push	{r7, lr}
10047ea2:	b084      	sub	sp, #16
10047ea4:	af00      	add	r7, sp, #0
10047ea6:	6078      	str	r0, [r7, #4]
10047ea8:	6039      	str	r1, [r7, #0]
  uint32_t tmpcr1;
  tmpcr1 = TIMx->CR1;
10047eaa:	687b      	ldr	r3, [r7, #4]
10047eac:	681b      	ldr	r3, [r3, #0]
10047eae:	60fb      	str	r3, [r7, #12]

  /* Set TIM Time Base Unit parameters ---------------------------------------*/
  if (IS_TIM_COUNTER_MODE_SELECT_INSTANCE(TIMx))
10047eb0:	687b      	ldr	r3, [r7, #4]
10047eb2:	4a28      	ldr	r2, [pc, #160]	@ (10047f54 <TIM_Base_SetConfig+0xb4>)
10047eb4:	4293      	cmp	r3, r2
10047eb6:	d108      	bne.n	10047eca <TIM_Base_SetConfig+0x2a>
  {
    /* Select the Counter Mode */
    tmpcr1 &= ~(TIM_CR1_DIR | TIM_CR1_CMS);
10047eb8:	68fb      	ldr	r3, [r7, #12]
10047eba:	2270      	movs	r2, #112	@ 0x70
10047ebc:	4393      	bics	r3, r2
10047ebe:	60fb      	str	r3, [r7, #12]
    tmpcr1 |= Structure->CounterMode;
10047ec0:	683b      	ldr	r3, [r7, #0]
10047ec2:	685b      	ldr	r3, [r3, #4]
10047ec4:	68fa      	ldr	r2, [r7, #12]
10047ec6:	4313      	orrs	r3, r2
10047ec8:	60fb      	str	r3, [r7, #12]
  }

  if (IS_TIM_CLOCK_DIVISION_INSTANCE(TIMx))
10047eca:	687b      	ldr	r3, [r7, #4]
10047ecc:	4a21      	ldr	r2, [pc, #132]	@ (10047f54 <TIM_Base_SetConfig+0xb4>)
10047ece:	4293      	cmp	r3, r2
10047ed0:	d003      	beq.n	10047eda <TIM_Base_SetConfig+0x3a>
10047ed2:	687b      	ldr	r3, [r7, #4]
10047ed4:	4a20      	ldr	r2, [pc, #128]	@ (10047f58 <TIM_Base_SetConfig+0xb8>)
10047ed6:	4293      	cmp	r3, r2
10047ed8:	d108      	bne.n	10047eec <TIM_Base_SetConfig+0x4c>
  {
    /* Set the clock division */
    tmpcr1 &= ~TIM_CR1_CKD;
10047eda:	68fb      	ldr	r3, [r7, #12]
10047edc:	4a1f      	ldr	r2, [pc, #124]	@ (10047f5c <TIM_Base_SetConfig+0xbc>)
10047ede:	4013      	ands	r3, r2
10047ee0:	60fb      	str	r3, [r7, #12]
    tmpcr1 |= (uint32_t)Structure->ClockDivision;
10047ee2:	683b      	ldr	r3, [r7, #0]
10047ee4:	68db      	ldr	r3, [r3, #12]
10047ee6:	68fa      	ldr	r2, [r7, #12]
10047ee8:	4313      	orrs	r3, r2
10047eea:	60fb      	str	r3, [r7, #12]
  }

  /* Set the auto-reload preload */
  MODIFY_REG(tmpcr1, TIM_CR1_ARPE, Structure->AutoReloadPreload);
10047eec:	68fb      	ldr	r3, [r7, #12]
10047eee:	2280      	movs	r2, #128	@ 0x80
10047ef0:	4393      	bics	r3, r2
10047ef2:	001a      	movs	r2, r3
10047ef4:	683b      	ldr	r3, [r7, #0]
10047ef6:	695b      	ldr	r3, [r3, #20]
10047ef8:	4313      	orrs	r3, r2
10047efa:	60fb      	str	r3, [r7, #12]

  TIMx->CR1 = tmpcr1;
10047efc:	687b      	ldr	r3, [r7, #4]
10047efe:	68fa      	ldr	r2, [r7, #12]
10047f00:	601a      	str	r2, [r3, #0]

  /* Set the Autoreload value */
  TIMx->ARR = (uint32_t)Structure->Period ;
10047f02:	683b      	ldr	r3, [r7, #0]
10047f04:	689a      	ldr	r2, [r3, #8]
10047f06:	687b      	ldr	r3, [r7, #4]
10047f08:	62da      	str	r2, [r3, #44]	@ 0x2c

  /* Set the Prescaler value */
  TIMx->PSC = Structure->Prescaler;
10047f0a:	683b      	ldr	r3, [r7, #0]
10047f0c:	681a      	ldr	r2, [r3, #0]
10047f0e:	687b      	ldr	r3, [r7, #4]
10047f10:	629a      	str	r2, [r3, #40]	@ 0x28

  if (IS_TIM_REPETITION_COUNTER_INSTANCE(TIMx))
10047f12:	687b      	ldr	r3, [r7, #4]
10047f14:	4a0f      	ldr	r2, [pc, #60]	@ (10047f54 <TIM_Base_SetConfig+0xb4>)
10047f16:	4293      	cmp	r3, r2
10047f18:	d003      	beq.n	10047f22 <TIM_Base_SetConfig+0x82>
10047f1a:	687b      	ldr	r3, [r7, #4]
10047f1c:	4a0e      	ldr	r2, [pc, #56]	@ (10047f58 <TIM_Base_SetConfig+0xb8>)
10047f1e:	4293      	cmp	r3, r2
10047f20:	d103      	bne.n	10047f2a <TIM_Base_SetConfig+0x8a>
  {
    /* Set the Repetition Counter value */
    TIMx->RCR = Structure->RepetitionCounter;
10047f22:	683b      	ldr	r3, [r7, #0]
10047f24:	691a      	ldr	r2, [r3, #16]
10047f26:	687b      	ldr	r3, [r7, #4]
10047f28:	631a      	str	r2, [r3, #48]	@ 0x30
  }

  /* Generate an update event to reload the Prescaler
     and the repetition counter (only for advanced timer) value immediately */
  TIMx->EGR = TIM_EGR_UG;
10047f2a:	687b      	ldr	r3, [r7, #4]
10047f2c:	2201      	movs	r2, #1
10047f2e:	615a      	str	r2, [r3, #20]

  /* Check if the update flag is set after the Update Generation, if so clear the UIF flag */
  if (HAL_IS_BIT_SET(TIMx->SR, TIM_FLAG_UPDATE))
10047f30:	687b      	ldr	r3, [r7, #4]
10047f32:	691b      	ldr	r3, [r3, #16]
10047f34:	2201      	movs	r2, #1
10047f36:	4013      	ands	r3, r2
10047f38:	2b01      	cmp	r3, #1
10047f3a:	d106      	bne.n	10047f4a <TIM_Base_SetConfig+0xaa>
  {
    /* Clear the update flag */
    CLEAR_BIT(TIMx->SR, TIM_FLAG_UPDATE);
10047f3c:	687b      	ldr	r3, [r7, #4]
10047f3e:	691b      	ldr	r3, [r3, #16]
10047f40:	2201      	movs	r2, #1
10047f42:	4393      	bics	r3, r2
10047f44:	001a      	movs	r2, r3
10047f46:	687b      	ldr	r3, [r7, #4]
10047f48:	611a      	str	r2, [r3, #16]
  }
}
10047f4a:	46c0      	nop			@ (mov r8, r8)
10047f4c:	46bd      	mov	sp, r7
10047f4e:	b004      	add	sp, #16
10047f50:	bd80      	pop	{r7, pc}
10047f52:	46c0      	nop			@ (mov r8, r8)
10047f54:	40002000 	.word	0x40002000
10047f58:	40005000 	.word	0x40005000
10047f5c:	fffffcff 	.word	0xfffffcff

10047f60 <TIM_SlaveTimer_SetConfig>:
  * @param  sSlaveConfig Slave timer configuration
  * @retval None
  */
static HAL_StatusTypeDef TIM_SlaveTimer_SetConfig(TIM_HandleTypeDef *htim,
                                                  const TIM_SlaveConfigTypeDef *sSlaveConfig)
{
10047f60:	b580      	push	{r7, lr}
10047f62:	b086      	sub	sp, #24
10047f64:	af00      	add	r7, sp, #0
10047f66:	6078      	str	r0, [r7, #4]
10047f68:	6039      	str	r1, [r7, #0]
  HAL_StatusTypeDef status = HAL_OK;
10047f6a:	2317      	movs	r3, #23
10047f6c:	18fb      	adds	r3, r7, r3
10047f6e:	2200      	movs	r2, #0
10047f70:	701a      	strb	r2, [r3, #0]
  uint32_t tmpsmcr;
  uint32_t tmpccmr1;
  uint32_t tmpccer;

  /* Get the TIMx SMCR register value */
  tmpsmcr = htim->Instance->SMCR;
10047f72:	687b      	ldr	r3, [r7, #4]
10047f74:	681b      	ldr	r3, [r3, #0]
10047f76:	689b      	ldr	r3, [r3, #8]
10047f78:	613b      	str	r3, [r7, #16]

  /* Reset the Trigger Selection Bits */
  tmpsmcr &= ~TIM_SMCR_TS;
10047f7a:	693b      	ldr	r3, [r7, #16]
10047f7c:	4a3c      	ldr	r2, [pc, #240]	@ (10048070 <TIM_SlaveTimer_SetConfig+0x110>)
10047f7e:	4013      	ands	r3, r2
10047f80:	613b      	str	r3, [r7, #16]
  /* Set the Input Trigger source */
  tmpsmcr |= sSlaveConfig->InputTrigger;
10047f82:	683b      	ldr	r3, [r7, #0]
10047f84:	685b      	ldr	r3, [r3, #4]
10047f86:	693a      	ldr	r2, [r7, #16]
10047f88:	4313      	orrs	r3, r2
10047f8a:	613b      	str	r3, [r7, #16]

  /* Reset the slave mode Bits */
  tmpsmcr &= ~TIM_SMCR_SMS;
10047f8c:	693b      	ldr	r3, [r7, #16]
10047f8e:	4a39      	ldr	r2, [pc, #228]	@ (10048074 <TIM_SlaveTimer_SetConfig+0x114>)
10047f90:	4013      	ands	r3, r2
10047f92:	613b      	str	r3, [r7, #16]
  /* Set the slave mode */
  tmpsmcr |= sSlaveConfig->SlaveMode;
10047f94:	683b      	ldr	r3, [r7, #0]
10047f96:	681b      	ldr	r3, [r3, #0]
10047f98:	693a      	ldr	r2, [r7, #16]
10047f9a:	4313      	orrs	r3, r2
10047f9c:	613b      	str	r3, [r7, #16]

  /* Write to TIMx SMCR */
  htim->Instance->SMCR = tmpsmcr;
10047f9e:	687b      	ldr	r3, [r7, #4]
10047fa0:	681b      	ldr	r3, [r3, #0]
10047fa2:	693a      	ldr	r2, [r7, #16]
10047fa4:	609a      	str	r2, [r3, #8]

  /* Configure the trigger prescaler, filter, and polarity */
  switch (sSlaveConfig->InputTrigger)
10047fa6:	683b      	ldr	r3, [r7, #0]
10047fa8:	685b      	ldr	r3, [r3, #4]
10047faa:	2b70      	cmp	r3, #112	@ 0x70
10047fac:	d00b      	beq.n	10047fc6 <TIM_SlaveTimer_SetConfig+0x66>
10047fae:	d852      	bhi.n	10048056 <TIM_SlaveTimer_SetConfig+0xf6>
10047fb0:	2b60      	cmp	r3, #96	@ 0x60
10047fb2:	d046      	beq.n	10048042 <TIM_SlaveTimer_SetConfig+0xe2>
10047fb4:	d84f      	bhi.n	10048056 <TIM_SlaveTimer_SetConfig+0xf6>
10047fb6:	2b50      	cmp	r3, #80	@ 0x50
10047fb8:	d039      	beq.n	1004802e <TIM_SlaveTimer_SetConfig+0xce>
10047fba:	d84c      	bhi.n	10048056 <TIM_SlaveTimer_SetConfig+0xf6>
10047fbc:	2b00      	cmp	r3, #0
10047fbe:	d04f      	beq.n	10048060 <TIM_SlaveTimer_SetConfig+0x100>
10047fc0:	2b40      	cmp	r3, #64	@ 0x40
10047fc2:	d00b      	beq.n	10047fdc <TIM_SlaveTimer_SetConfig+0x7c>
10047fc4:	e047      	b.n	10048056 <TIM_SlaveTimer_SetConfig+0xf6>
      assert_param(IS_TIM_CLOCKSOURCE_ETRMODE1_INSTANCE(htim->Instance));
      assert_param(IS_TIM_TRIGGERPRESCALER(sSlaveConfig->TriggerPrescaler));
      assert_param(IS_TIM_TRIGGERPOLARITY(sSlaveConfig->TriggerPolarity));
      assert_param(IS_TIM_TRIGGERFILTER(sSlaveConfig->TriggerFilter));
      /* Configure the ETR Trigger source */
      TIM_ETR_SetConfig(htim->Instance,
10047fc6:	687b      	ldr	r3, [r7, #4]
10047fc8:	6818      	ldr	r0, [r3, #0]
                        sSlaveConfig->TriggerPrescaler,
10047fca:	683b      	ldr	r3, [r7, #0]
10047fcc:	68d9      	ldr	r1, [r3, #12]
                        sSlaveConfig->TriggerPolarity,
10047fce:	683b      	ldr	r3, [r7, #0]
10047fd0:	689a      	ldr	r2, [r3, #8]
                        sSlaveConfig->TriggerFilter);
10047fd2:	683b      	ldr	r3, [r7, #0]
10047fd4:	691b      	ldr	r3, [r3, #16]
      TIM_ETR_SetConfig(htim->Instance,
10047fd6:	f000 f8cb 	bl	10048170 <TIM_ETR_SetConfig>
      break;
10047fda:	e042      	b.n	10048062 <TIM_SlaveTimer_SetConfig+0x102>
    {
      /* Check the parameters */
      assert_param(IS_TIM_CC1_INSTANCE(htim->Instance));
      assert_param(IS_TIM_TRIGGERFILTER(sSlaveConfig->TriggerFilter));

      if (sSlaveConfig->SlaveMode == TIM_SLAVEMODE_GATED)
10047fdc:	683b      	ldr	r3, [r7, #0]
10047fde:	681b      	ldr	r3, [r3, #0]
10047fe0:	2b05      	cmp	r3, #5
10047fe2:	d101      	bne.n	10047fe8 <TIM_SlaveTimer_SetConfig+0x88>
      {
        return HAL_ERROR;
10047fe4:	2301      	movs	r3, #1
10047fe6:	e03f      	b.n	10048068 <TIM_SlaveTimer_SetConfig+0x108>
      }

      /* Disable the Channel 1: Reset the CC1E Bit */
      tmpccer = htim->Instance->CCER;
10047fe8:	687b      	ldr	r3, [r7, #4]
10047fea:	681b      	ldr	r3, [r3, #0]
10047fec:	6a1b      	ldr	r3, [r3, #32]
10047fee:	60fb      	str	r3, [r7, #12]
      htim->Instance->CCER &= ~TIM_CCER_CC1E;
10047ff0:	687b      	ldr	r3, [r7, #4]
10047ff2:	681b      	ldr	r3, [r3, #0]
10047ff4:	6a1a      	ldr	r2, [r3, #32]
10047ff6:	687b      	ldr	r3, [r7, #4]
10047ff8:	681b      	ldr	r3, [r3, #0]
10047ffa:	2101      	movs	r1, #1
10047ffc:	438a      	bics	r2, r1
10047ffe:	621a      	str	r2, [r3, #32]
      tmpccmr1 = htim->Instance->CCMR1;
10048000:	687b      	ldr	r3, [r7, #4]
10048002:	681b      	ldr	r3, [r3, #0]
10048004:	699b      	ldr	r3, [r3, #24]
10048006:	60bb      	str	r3, [r7, #8]

      /* Set the filter */
      tmpccmr1 &= ~TIM_CCMR1_IC1F;
10048008:	68bb      	ldr	r3, [r7, #8]
1004800a:	22f0      	movs	r2, #240	@ 0xf0
1004800c:	4393      	bics	r3, r2
1004800e:	60bb      	str	r3, [r7, #8]
      tmpccmr1 |= ((sSlaveConfig->TriggerFilter) << 4U);
10048010:	683b      	ldr	r3, [r7, #0]
10048012:	691b      	ldr	r3, [r3, #16]
10048014:	011b      	lsls	r3, r3, #4
10048016:	68ba      	ldr	r2, [r7, #8]
10048018:	4313      	orrs	r3, r2
1004801a:	60bb      	str	r3, [r7, #8]

      /* Write to TIMx CCMR1 and CCER registers */
      htim->Instance->CCMR1 = tmpccmr1;
1004801c:	687b      	ldr	r3, [r7, #4]
1004801e:	681b      	ldr	r3, [r3, #0]
10048020:	68ba      	ldr	r2, [r7, #8]
10048022:	619a      	str	r2, [r3, #24]
      htim->Instance->CCER = tmpccer;
10048024:	687b      	ldr	r3, [r7, #4]
10048026:	681b      	ldr	r3, [r3, #0]
10048028:	68fa      	ldr	r2, [r7, #12]
1004802a:	621a      	str	r2, [r3, #32]
      break;
1004802c:	e019      	b.n	10048062 <TIM_SlaveTimer_SetConfig+0x102>
      assert_param(IS_TIM_CC1_INSTANCE(htim->Instance));
      assert_param(IS_TIM_TRIGGERPOLARITY(sSlaveConfig->TriggerPolarity));
      assert_param(IS_TIM_TRIGGERFILTER(sSlaveConfig->TriggerFilter));

      /* Configure TI1 Filter and Polarity */
      TIM_TI1_ConfigInputStage(htim->Instance,
1004802e:	687b      	ldr	r3, [r7, #4]
10048030:	6818      	ldr	r0, [r3, #0]
                               sSlaveConfig->TriggerPolarity,
10048032:	683b      	ldr	r3, [r7, #0]
10048034:	6899      	ldr	r1, [r3, #8]
                               sSlaveConfig->TriggerFilter);
10048036:	683b      	ldr	r3, [r7, #0]
10048038:	691b      	ldr	r3, [r3, #16]
      TIM_TI1_ConfigInputStage(htim->Instance,
1004803a:	001a      	movs	r2, r3
1004803c:	f000 f81c 	bl	10048078 <TIM_TI1_ConfigInputStage>
      break;
10048040:	e00f      	b.n	10048062 <TIM_SlaveTimer_SetConfig+0x102>
      assert_param(IS_TIM_CC2_INSTANCE(htim->Instance));
      assert_param(IS_TIM_TRIGGERPOLARITY(sSlaveConfig->TriggerPolarity));
      assert_param(IS_TIM_TRIGGERFILTER(sSlaveConfig->TriggerFilter));

      /* Configure TI2 Filter and Polarity */
      TIM_TI2_ConfigInputStage(htim->Instance,
10048042:	687b      	ldr	r3, [r7, #4]
10048044:	6818      	ldr	r0, [r3, #0]
                               sSlaveConfig->TriggerPolarity,
10048046:	683b      	ldr	r3, [r7, #0]
10048048:	6899      	ldr	r1, [r3, #8]
                               sSlaveConfig->TriggerFilter);
1004804a:	683b      	ldr	r3, [r7, #0]
1004804c:	691b      	ldr	r3, [r3, #16]
      TIM_TI2_ConfigInputStage(htim->Instance,
1004804e:	001a      	movs	r2, r3
10048050:	f000 f840 	bl	100480d4 <TIM_TI2_ConfigInputStage>
      break;
10048054:	e005      	b.n	10048062 <TIM_SlaveTimer_SetConfig+0x102>
      assert_param(IS_TIM_CC2_INSTANCE(htim->Instance));
      break;
    }

    default:
      status = HAL_ERROR;
10048056:	2317      	movs	r3, #23
10048058:	18fb      	adds	r3, r7, r3
1004805a:	2201      	movs	r2, #1
1004805c:	701a      	strb	r2, [r3, #0]
      break;
1004805e:	e000      	b.n	10048062 <TIM_SlaveTimer_SetConfig+0x102>
      break;
10048060:	46c0      	nop			@ (mov r8, r8)
  }

  return status;
10048062:	2317      	movs	r3, #23
10048064:	18fb      	adds	r3, r7, r3
10048066:	781b      	ldrb	r3, [r3, #0]
}
10048068:	0018      	movs	r0, r3
1004806a:	46bd      	mov	sp, r7
1004806c:	b006      	add	sp, #24
1004806e:	bd80      	pop	{r7, pc}
10048070:	ffcfff8f 	.word	0xffcfff8f
10048074:	fffefff8 	.word	0xfffefff8

10048078 <TIM_TI1_ConfigInputStage>:
  * @param  TIM_ICFilter Specifies the Input Capture Filter.
  *          This parameter must be a value between 0x00 and 0x0F.
  * @retval None
  */
static void TIM_TI1_ConfigInputStage(TIM_TypeDef *TIMx, uint32_t TIM_ICPolarity, uint32_t TIM_ICFilter)
{
10048078:	b580      	push	{r7, lr}
1004807a:	b086      	sub	sp, #24
1004807c:	af00      	add	r7, sp, #0
1004807e:	60f8      	str	r0, [r7, #12]
10048080:	60b9      	str	r1, [r7, #8]
10048082:	607a      	str	r2, [r7, #4]
  uint32_t tmpccmr1;
  uint32_t tmpccer;

  /* Disable the Channel 1: Reset the CC1E Bit */
  tmpccer = TIMx->CCER;
10048084:	68fb      	ldr	r3, [r7, #12]
10048086:	6a1b      	ldr	r3, [r3, #32]
10048088:	617b      	str	r3, [r7, #20]
  TIMx->CCER &= ~TIM_CCER_CC1E;
1004808a:	68fb      	ldr	r3, [r7, #12]
1004808c:	6a1b      	ldr	r3, [r3, #32]
1004808e:	2201      	movs	r2, #1
10048090:	4393      	bics	r3, r2
10048092:	001a      	movs	r2, r3
10048094:	68fb      	ldr	r3, [r7, #12]
10048096:	621a      	str	r2, [r3, #32]
  tmpccmr1 = TIMx->CCMR1;
10048098:	68fb      	ldr	r3, [r7, #12]
1004809a:	699b      	ldr	r3, [r3, #24]
1004809c:	613b      	str	r3, [r7, #16]

  /* Set the filter */
  tmpccmr1 &= ~TIM_CCMR1_IC1F;
1004809e:	693b      	ldr	r3, [r7, #16]
100480a0:	22f0      	movs	r2, #240	@ 0xf0
100480a2:	4393      	bics	r3, r2
100480a4:	613b      	str	r3, [r7, #16]
  tmpccmr1 |= (TIM_ICFilter << 4U);
100480a6:	687b      	ldr	r3, [r7, #4]
100480a8:	011b      	lsls	r3, r3, #4
100480aa:	693a      	ldr	r2, [r7, #16]
100480ac:	4313      	orrs	r3, r2
100480ae:	613b      	str	r3, [r7, #16]

  /* Select the Polarity and set the CC1E Bit */
  tmpccer &= ~(TIM_CCER_CC1P | TIM_CCER_CC1NP);
100480b0:	697b      	ldr	r3, [r7, #20]
100480b2:	220a      	movs	r2, #10
100480b4:	4393      	bics	r3, r2
100480b6:	617b      	str	r3, [r7, #20]
  tmpccer |= TIM_ICPolarity;
100480b8:	697a      	ldr	r2, [r7, #20]
100480ba:	68bb      	ldr	r3, [r7, #8]
100480bc:	4313      	orrs	r3, r2
100480be:	617b      	str	r3, [r7, #20]

  /* Write to TIMx CCMR1 and CCER registers */
  TIMx->CCMR1 = tmpccmr1;
100480c0:	68fb      	ldr	r3, [r7, #12]
100480c2:	693a      	ldr	r2, [r7, #16]
100480c4:	619a      	str	r2, [r3, #24]
  TIMx->CCER = tmpccer;
100480c6:	68fb      	ldr	r3, [r7, #12]
100480c8:	697a      	ldr	r2, [r7, #20]
100480ca:	621a      	str	r2, [r3, #32]
}
100480cc:	46c0      	nop			@ (mov r8, r8)
100480ce:	46bd      	mov	sp, r7
100480d0:	b006      	add	sp, #24
100480d2:	bd80      	pop	{r7, pc}

100480d4 <TIM_TI2_ConfigInputStage>:
  * @param  TIM_ICFilter Specifies the Input Capture Filter.
  *          This parameter must be a value between 0x00 and 0x0F.
  * @retval None
  */
static void TIM_TI2_ConfigInputStage(TIM_TypeDef *TIMx, uint32_t TIM_ICPolarity, uint32_t TIM_ICFilter)
{
100480d4:	b580      	push	{r7, lr}
100480d6:	b086      	sub	sp, #24
100480d8:	af00      	add	r7, sp, #0
100480da:	60f8      	str	r0, [r7, #12]
100480dc:	60b9      	str	r1, [r7, #8]
100480de:	607a      	str	r2, [r7, #4]
  uint32_t tmpccmr1;
  uint32_t tmpccer;

  /* Disable the Channel 2: Reset the CC2E Bit */
  tmpccer = TIMx->CCER;
100480e0:	68fb      	ldr	r3, [r7, #12]
100480e2:	6a1b      	ldr	r3, [r3, #32]
100480e4:	617b      	str	r3, [r7, #20]
  TIMx->CCER &= ~TIM_CCER_CC2E;
100480e6:	68fb      	ldr	r3, [r7, #12]
100480e8:	6a1b      	ldr	r3, [r3, #32]
100480ea:	2210      	movs	r2, #16
100480ec:	4393      	bics	r3, r2
100480ee:	001a      	movs	r2, r3
100480f0:	68fb      	ldr	r3, [r7, #12]
100480f2:	621a      	str	r2, [r3, #32]
  tmpccmr1 = TIMx->CCMR1;
100480f4:	68fb      	ldr	r3, [r7, #12]
100480f6:	699b      	ldr	r3, [r3, #24]
100480f8:	613b      	str	r3, [r7, #16]

  /* Set the filter */
  tmpccmr1 &= ~TIM_CCMR1_IC2F;
100480fa:	693b      	ldr	r3, [r7, #16]
100480fc:	4a0d      	ldr	r2, [pc, #52]	@ (10048134 <TIM_TI2_ConfigInputStage+0x60>)
100480fe:	4013      	ands	r3, r2
10048100:	613b      	str	r3, [r7, #16]
  tmpccmr1 |= (TIM_ICFilter << 12U);
10048102:	687b      	ldr	r3, [r7, #4]
10048104:	031b      	lsls	r3, r3, #12
10048106:	693a      	ldr	r2, [r7, #16]
10048108:	4313      	orrs	r3, r2
1004810a:	613b      	str	r3, [r7, #16]

  /* Select the Polarity and set the CC2E Bit */
  tmpccer &= ~(TIM_CCER_CC2P | TIM_CCER_CC2NP);
1004810c:	697b      	ldr	r3, [r7, #20]
1004810e:	22a0      	movs	r2, #160	@ 0xa0
10048110:	4393      	bics	r3, r2
10048112:	617b      	str	r3, [r7, #20]
  tmpccer |= (TIM_ICPolarity << 4U);
10048114:	68bb      	ldr	r3, [r7, #8]
10048116:	011b      	lsls	r3, r3, #4
10048118:	697a      	ldr	r2, [r7, #20]
1004811a:	4313      	orrs	r3, r2
1004811c:	617b      	str	r3, [r7, #20]

  /* Write to TIMx CCMR1 and CCER registers */
  TIMx->CCMR1 = tmpccmr1 ;
1004811e:	68fb      	ldr	r3, [r7, #12]
10048120:	693a      	ldr	r2, [r7, #16]
10048122:	619a      	str	r2, [r3, #24]
  TIMx->CCER = tmpccer;
10048124:	68fb      	ldr	r3, [r7, #12]
10048126:	697a      	ldr	r2, [r7, #20]
10048128:	621a      	str	r2, [r3, #32]
}
1004812a:	46c0      	nop			@ (mov r8, r8)
1004812c:	46bd      	mov	sp, r7
1004812e:	b006      	add	sp, #24
10048130:	bd80      	pop	{r7, pc}
10048132:	46c0      	nop			@ (mov r8, r8)
10048134:	ffff0fff 	.word	0xffff0fff

10048138 <TIM_ITRx_SetConfig>:
  *            @arg TIM_TS_TI2FP2: Filtered Timer Input 2
  *            @arg TIM_TS_ETRF: External Trigger input
  * @retval None
  */
static void TIM_ITRx_SetConfig(TIM_TypeDef *TIMx, uint32_t InputTriggerSource)
{
10048138:	b580      	push	{r7, lr}
1004813a:	b084      	sub	sp, #16
1004813c:	af00      	add	r7, sp, #0
1004813e:	6078      	str	r0, [r7, #4]
10048140:	6039      	str	r1, [r7, #0]
  uint32_t tmpsmcr;

  /* Get the TIMx SMCR register value */
  tmpsmcr = TIMx->SMCR;
10048142:	687b      	ldr	r3, [r7, #4]
10048144:	689b      	ldr	r3, [r3, #8]
10048146:	60fb      	str	r3, [r7, #12]
  /* Reset the TS Bits */
  tmpsmcr &= ~TIM_SMCR_TS;
10048148:	68fb      	ldr	r3, [r7, #12]
1004814a:	4a08      	ldr	r2, [pc, #32]	@ (1004816c <TIM_ITRx_SetConfig+0x34>)
1004814c:	4013      	ands	r3, r2
1004814e:	60fb      	str	r3, [r7, #12]
  /* Set the Input Trigger source and the slave mode*/
  tmpsmcr |= (InputTriggerSource | TIM_SLAVEMODE_EXTERNAL1);
10048150:	683a      	ldr	r2, [r7, #0]
10048152:	68fb      	ldr	r3, [r7, #12]
10048154:	4313      	orrs	r3, r2
10048156:	2207      	movs	r2, #7
10048158:	4313      	orrs	r3, r2
1004815a:	60fb      	str	r3, [r7, #12]
  /* Write to TIMx SMCR */
  TIMx->SMCR = tmpsmcr;
1004815c:	687b      	ldr	r3, [r7, #4]
1004815e:	68fa      	ldr	r2, [r7, #12]
10048160:	609a      	str	r2, [r3, #8]
}
10048162:	46c0      	nop			@ (mov r8, r8)
10048164:	46bd      	mov	sp, r7
10048166:	b004      	add	sp, #16
10048168:	bd80      	pop	{r7, pc}
1004816a:	46c0      	nop			@ (mov r8, r8)
1004816c:	ffcfff8f 	.word	0xffcfff8f

10048170 <TIM_ETR_SetConfig>:
  *          This parameter must be a value between 0x00 and 0x0F
  * @retval None
  */
static void TIM_ETR_SetConfig(TIM_TypeDef *TIMx, uint32_t TIM_ExtTRGPrescaler,
                              uint32_t TIM_ExtTRGPolarity, uint32_t ExtTRGFilter)
{
10048170:	b580      	push	{r7, lr}
10048172:	b086      	sub	sp, #24
10048174:	af00      	add	r7, sp, #0
10048176:	60f8      	str	r0, [r7, #12]
10048178:	60b9      	str	r1, [r7, #8]
1004817a:	607a      	str	r2, [r7, #4]
1004817c:	603b      	str	r3, [r7, #0]
  uint32_t tmpsmcr;

  tmpsmcr = TIMx->SMCR;
1004817e:	68fb      	ldr	r3, [r7, #12]
10048180:	689b      	ldr	r3, [r3, #8]
10048182:	617b      	str	r3, [r7, #20]

  /* Reset the ETR Bits */
  tmpsmcr &= ~(TIM_SMCR_ETF | TIM_SMCR_ETPS | TIM_SMCR_ECE | TIM_SMCR_ETP);
10048184:	697b      	ldr	r3, [r7, #20]
10048186:	4a09      	ldr	r2, [pc, #36]	@ (100481ac <TIM_ETR_SetConfig+0x3c>)
10048188:	4013      	ands	r3, r2
1004818a:	617b      	str	r3, [r7, #20]

  /* Set the Prescaler, the Filter value and the Polarity */
  tmpsmcr |= (uint32_t)(TIM_ExtTRGPrescaler | (TIM_ExtTRGPolarity | (ExtTRGFilter << 8U)));
1004818c:	683b      	ldr	r3, [r7, #0]
1004818e:	021a      	lsls	r2, r3, #8
10048190:	687b      	ldr	r3, [r7, #4]
10048192:	431a      	orrs	r2, r3
10048194:	68bb      	ldr	r3, [r7, #8]
10048196:	4313      	orrs	r3, r2
10048198:	697a      	ldr	r2, [r7, #20]
1004819a:	4313      	orrs	r3, r2
1004819c:	617b      	str	r3, [r7, #20]

  /* Write to TIMx SMCR */
  TIMx->SMCR = tmpsmcr;
1004819e:	68fb      	ldr	r3, [r7, #12]
100481a0:	697a      	ldr	r2, [r7, #20]
100481a2:	609a      	str	r2, [r3, #8]
}
100481a4:	46c0      	nop			@ (mov r8, r8)
100481a6:	46bd      	mov	sp, r7
100481a8:	b006      	add	sp, #24
100481aa:	bd80      	pop	{r7, pc}
100481ac:	ffff00ff 	.word	0xffff00ff

100481b0 <HAL_TIMEx_MasterConfigSynchronization>:
  *         mode.
  * @retval HAL status
  */
HAL_StatusTypeDef HAL_TIMEx_MasterConfigSynchronization(TIM_HandleTypeDef *htim,
                                                        const TIM_MasterConfigTypeDef *sMasterConfig)
{
100481b0:	b580      	push	{r7, lr}
100481b2:	b084      	sub	sp, #16
100481b4:	af00      	add	r7, sp, #0
100481b6:	6078      	str	r0, [r7, #4]
100481b8:	6039      	str	r1, [r7, #0]
  assert_param(IS_TIM_MASTER_INSTANCE(htim->Instance));
  assert_param(IS_TIM_TRGO_SOURCE(sMasterConfig->MasterOutputTrigger));
  assert_param(IS_TIM_MSM_STATE(sMasterConfig->MasterSlaveMode));

  /* Check input state */
  __HAL_LOCK(htim);
100481ba:	687b      	ldr	r3, [r7, #4]
100481bc:	223c      	movs	r2, #60	@ 0x3c
100481be:	5c9b      	ldrb	r3, [r3, r2]
100481c0:	2b01      	cmp	r3, #1
100481c2:	d101      	bne.n	100481c8 <HAL_TIMEx_MasterConfigSynchronization+0x18>
100481c4:	2302      	movs	r3, #2
100481c6:	e03c      	b.n	10048242 <HAL_TIMEx_MasterConfigSynchronization+0x92>
100481c8:	687b      	ldr	r3, [r7, #4]
100481ca:	223c      	movs	r2, #60	@ 0x3c
100481cc:	2101      	movs	r1, #1
100481ce:	5499      	strb	r1, [r3, r2]

  /* Change the handler state */
  htim->State = HAL_TIM_STATE_BUSY;
100481d0:	687b      	ldr	r3, [r7, #4]
100481d2:	223d      	movs	r2, #61	@ 0x3d
100481d4:	2102      	movs	r1, #2
100481d6:	5499      	strb	r1, [r3, r2]

  /* Get the TIMx CR2 register value */
  tmpcr2 = htim->Instance->CR2;
100481d8:	687b      	ldr	r3, [r7, #4]
100481da:	681b      	ldr	r3, [r3, #0]
100481dc:	685b      	ldr	r3, [r3, #4]
100481de:	60fb      	str	r3, [r7, #12]

  /* Get the TIMx SMCR register value */
  tmpsmcr = htim->Instance->SMCR;
100481e0:	687b      	ldr	r3, [r7, #4]
100481e2:	681b      	ldr	r3, [r3, #0]
100481e4:	689b      	ldr	r3, [r3, #8]
100481e6:	60bb      	str	r3, [r7, #8]

  /* Reset the MMS Bits */
  tmpcr2 &= ~TIM_CR2_MMS;
100481e8:	68fb      	ldr	r3, [r7, #12]
100481ea:	2270      	movs	r2, #112	@ 0x70
100481ec:	4393      	bics	r3, r2
100481ee:	60fb      	str	r3, [r7, #12]
  /* Select the TRGO source */
  tmpcr2 |=  sMasterConfig->MasterOutputTrigger;
100481f0:	683b      	ldr	r3, [r7, #0]
100481f2:	681b      	ldr	r3, [r3, #0]
100481f4:	68fa      	ldr	r2, [r7, #12]
100481f6:	4313      	orrs	r3, r2
100481f8:	60fb      	str	r3, [r7, #12]

  /* Update TIMx CR2 */
  htim->Instance->CR2 = tmpcr2;
100481fa:	687b      	ldr	r3, [r7, #4]
100481fc:	681b      	ldr	r3, [r3, #0]
100481fe:	68fa      	ldr	r2, [r7, #12]
10048200:	605a      	str	r2, [r3, #4]

  if (IS_TIM_SLAVE_INSTANCE(htim->Instance))
10048202:	687b      	ldr	r3, [r7, #4]
10048204:	681b      	ldr	r3, [r3, #0]
10048206:	4a11      	ldr	r2, [pc, #68]	@ (1004824c <HAL_TIMEx_MasterConfigSynchronization+0x9c>)
10048208:	4293      	cmp	r3, r2
1004820a:	d004      	beq.n	10048216 <HAL_TIMEx_MasterConfigSynchronization+0x66>
1004820c:	687b      	ldr	r3, [r7, #4]
1004820e:	681b      	ldr	r3, [r3, #0]
10048210:	4a0f      	ldr	r2, [pc, #60]	@ (10048250 <HAL_TIMEx_MasterConfigSynchronization+0xa0>)
10048212:	4293      	cmp	r3, r2
10048214:	d10c      	bne.n	10048230 <HAL_TIMEx_MasterConfigSynchronization+0x80>
  {
    /* Reset the MSM Bit */
    tmpsmcr &= ~TIM_SMCR_MSM;
10048216:	68bb      	ldr	r3, [r7, #8]
10048218:	2280      	movs	r2, #128	@ 0x80
1004821a:	4393      	bics	r3, r2
1004821c:	60bb      	str	r3, [r7, #8]
    /* Set master mode */
    tmpsmcr |= sMasterConfig->MasterSlaveMode;
1004821e:	683b      	ldr	r3, [r7, #0]
10048220:	685b      	ldr	r3, [r3, #4]
10048222:	68ba      	ldr	r2, [r7, #8]
10048224:	4313      	orrs	r3, r2
10048226:	60bb      	str	r3, [r7, #8]

    /* Update TIMx SMCR */
    htim->Instance->SMCR = tmpsmcr;
10048228:	687b      	ldr	r3, [r7, #4]
1004822a:	681b      	ldr	r3, [r3, #0]
1004822c:	68ba      	ldr	r2, [r7, #8]
1004822e:	609a      	str	r2, [r3, #8]
  }

  /* Change the htim state */
  htim->State = HAL_TIM_STATE_READY;
10048230:	687b      	ldr	r3, [r7, #4]
10048232:	223d      	movs	r2, #61	@ 0x3d
10048234:	2101      	movs	r1, #1
10048236:	5499      	strb	r1, [r3, r2]

  __HAL_UNLOCK(htim);
10048238:	687b      	ldr	r3, [r7, #4]
1004823a:	223c      	movs	r2, #60	@ 0x3c
1004823c:	2100      	movs	r1, #0
1004823e:	5499      	strb	r1, [r3, r2]

  return HAL_OK;
10048240:	2300      	movs	r3, #0
}
10048242:	0018      	movs	r0, r3
10048244:	46bd      	mov	sp, r7
10048246:	b004      	add	sp, #16
10048248:	bd80      	pop	{r7, pc}
1004824a:	46c0      	nop			@ (mov r8, r8)
1004824c:	40002000 	.word	0x40002000
10048250:	40005000 	.word	0x40005000

10048254 <HAL_UART_Init>:
  *        parameters in the UART_InitTypeDef and initialize the associated handle.
  * @param huart UART handle.
  * @retval HAL status
  */
HAL_StatusTypeDef HAL_UART_Init(UART_HandleTypeDef *huart)
{
10048254:	b580      	push	{r7, lr}
10048256:	b082      	sub	sp, #8
10048258:	af00      	add	r7, sp, #0
1004825a:	6078      	str	r0, [r7, #4]
  /* Check the UART handle allocation */
  if (huart == NULL)
1004825c:	687b      	ldr	r3, [r7, #4]
1004825e:	2b00      	cmp	r3, #0
10048260:	d101      	bne.n	10048266 <HAL_UART_Init+0x12>
  {
    return HAL_ERROR;
10048262:	2301      	movs	r3, #1
10048264:	e046      	b.n	100482f4 <HAL_UART_Init+0xa0>
  {
    /* Check the parameters */
    assert_param((IS_UART_INSTANCE(huart->Instance)) || (IS_LPUART_INSTANCE(huart->Instance)));
  }

  if (huart->gState == HAL_UART_STATE_RESET)
10048266:	687b      	ldr	r3, [r7, #4]
10048268:	2288      	movs	r2, #136	@ 0x88
1004826a:	589b      	ldr	r3, [r3, r2]
1004826c:	2b00      	cmp	r3, #0
1004826e:	d107      	bne.n	10048280 <HAL_UART_Init+0x2c>
  {
    /* Allocate lock resource and initialize it */
    huart->Lock = HAL_UNLOCKED;
10048270:	687b      	ldr	r3, [r7, #4]
10048272:	2284      	movs	r2, #132	@ 0x84
10048274:	2100      	movs	r1, #0
10048276:	5499      	strb	r1, [r3, r2]

    /* Init the low level hardware */
    huart->MspInitCallback(huart);
#else
    /* Init the low level hardware : GPIO, CLOCK */
    HAL_UART_MspInit(huart);
10048278:	687b      	ldr	r3, [r7, #4]
1004827a:	0018      	movs	r0, r3
1004827c:	f7fb fc0c 	bl	10043a98 <HAL_UART_MspInit>
#endif /* (USE_HAL_UART_REGISTER_CALLBACKS) */
  }

  huart->gState = HAL_UART_STATE_BUSY;
10048280:	687b      	ldr	r3, [r7, #4]
10048282:	2288      	movs	r2, #136	@ 0x88
10048284:	2124      	movs	r1, #36	@ 0x24
10048286:	5099      	str	r1, [r3, r2]

  __HAL_UART_DISABLE(huart);
10048288:	687b      	ldr	r3, [r7, #4]
1004828a:	681b      	ldr	r3, [r3, #0]
1004828c:	681a      	ldr	r2, [r3, #0]
1004828e:	687b      	ldr	r3, [r7, #4]
10048290:	681b      	ldr	r3, [r3, #0]
10048292:	2101      	movs	r1, #1
10048294:	438a      	bics	r2, r1
10048296:	601a      	str	r2, [r3, #0]

  /* Perform advanced settings configuration */
  /* For some items, configuration requires to be done prior TE and RE bits are set */
  if (huart->AdvancedInit.AdvFeatureInit != UART_ADVFEATURE_NO_INIT)
10048298:	687b      	ldr	r3, [r7, #4]
1004829a:	6a9b      	ldr	r3, [r3, #40]	@ 0x28
1004829c:	2b00      	cmp	r3, #0
1004829e:	d003      	beq.n	100482a8 <HAL_UART_Init+0x54>
  {
    UART_AdvFeatureConfig(huart);
100482a0:	687b      	ldr	r3, [r7, #4]
100482a2:	0018      	movs	r0, r3
100482a4:	f000 fda4 	bl	10048df0 <UART_AdvFeatureConfig>
  }

  /* Set the UART Communication parameters */
  if (UART_SetConfig(huart) == HAL_ERROR)
100482a8:	687b      	ldr	r3, [r7, #4]
100482aa:	0018      	movs	r0, r3
100482ac:	f000 fc38 	bl	10048b20 <UART_SetConfig>
100482b0:	0003      	movs	r3, r0
100482b2:	2b01      	cmp	r3, #1
100482b4:	d101      	bne.n	100482ba <HAL_UART_Init+0x66>
  {
    return HAL_ERROR;
100482b6:	2301      	movs	r3, #1
100482b8:	e01c      	b.n	100482f4 <HAL_UART_Init+0xa0>
  }

  /* In asynchronous mode, the following bits must be kept cleared:
  - LINEN and CLKEN bits in the USART_CR2 register,
  - SCEN, HDSEL and IREN  bits in the USART_CR3 register.*/
  CLEAR_BIT(huart->Instance->CR2, (USART_CR2_LINEN | USART_CR2_CLKEN));
100482ba:	687b      	ldr	r3, [r7, #4]
100482bc:	681b      	ldr	r3, [r3, #0]
100482be:	685a      	ldr	r2, [r3, #4]
100482c0:	687b      	ldr	r3, [r7, #4]
100482c2:	681b      	ldr	r3, [r3, #0]
100482c4:	490d      	ldr	r1, [pc, #52]	@ (100482fc <HAL_UART_Init+0xa8>)
100482c6:	400a      	ands	r2, r1
100482c8:	605a      	str	r2, [r3, #4]
  CLEAR_BIT(huart->Instance->CR3, (USART_CR3_SCEN | USART_CR3_HDSEL | USART_CR3_IREN));
100482ca:	687b      	ldr	r3, [r7, #4]
100482cc:	681b      	ldr	r3, [r3, #0]
100482ce:	689a      	ldr	r2, [r3, #8]
100482d0:	687b      	ldr	r3, [r7, #4]
100482d2:	681b      	ldr	r3, [r3, #0]
100482d4:	212a      	movs	r1, #42	@ 0x2a
100482d6:	438a      	bics	r2, r1
100482d8:	609a      	str	r2, [r3, #8]

  __HAL_UART_ENABLE(huart);
100482da:	687b      	ldr	r3, [r7, #4]
100482dc:	681b      	ldr	r3, [r3, #0]
100482de:	681a      	ldr	r2, [r3, #0]
100482e0:	687b      	ldr	r3, [r7, #4]
100482e2:	681b      	ldr	r3, [r3, #0]
100482e4:	2101      	movs	r1, #1
100482e6:	430a      	orrs	r2, r1
100482e8:	601a      	str	r2, [r3, #0]

  /* TEACK and/or REACK to check before moving huart->gState and huart->RxState to Ready */
  return (UART_CheckIdleState(huart));
100482ea:	687b      	ldr	r3, [r7, #4]
100482ec:	0018      	movs	r0, r3
100482ee:	f000 fe33 	bl	10048f58 <UART_CheckIdleState>
100482f2:	0003      	movs	r3, r0
}
100482f4:	0018      	movs	r0, r3
100482f6:	46bd      	mov	sp, r7
100482f8:	b002      	add	sp, #8
100482fa:	bd80      	pop	{r7, pc}
100482fc:	ffffb7ff 	.word	0xffffb7ff

10048300 <HAL_UART_Transmit>:
  * @param Size    Amount of data elements (u8 or u16) to be sent.
  * @param Timeout Timeout duration.
  * @retval HAL status
  */
HAL_StatusTypeDef HAL_UART_Transmit(UART_HandleTypeDef *huart, const uint8_t *pData, uint16_t Size, uint32_t Timeout)
{
10048300:	b580      	push	{r7, lr}
10048302:	b08a      	sub	sp, #40	@ 0x28
10048304:	af02      	add	r7, sp, #8
10048306:	60f8      	str	r0, [r7, #12]
10048308:	60b9      	str	r1, [r7, #8]
1004830a:	603b      	str	r3, [r7, #0]
1004830c:	1dbb      	adds	r3, r7, #6
1004830e:	801a      	strh	r2, [r3, #0]
  const uint8_t  *pdata8bits;
  const uint16_t *pdata16bits;
  uint32_t tickstart;

  /* Check that a Tx process is not already ongoing */
  if (huart->gState == HAL_UART_STATE_READY)
10048310:	68fb      	ldr	r3, [r7, #12]
10048312:	2288      	movs	r2, #136	@ 0x88
10048314:	589b      	ldr	r3, [r3, r2]
10048316:	2b20      	cmp	r3, #32
10048318:	d000      	beq.n	1004831c <HAL_UART_Transmit+0x1c>
1004831a:	e09a      	b.n	10048452 <HAL_UART_Transmit+0x152>
  {
    if ((pData == NULL) || (Size == 0U))
1004831c:	68bb      	ldr	r3, [r7, #8]
1004831e:	2b00      	cmp	r3, #0
10048320:	d003      	beq.n	1004832a <HAL_UART_Transmit+0x2a>
10048322:	1dbb      	adds	r3, r7, #6
10048324:	881b      	ldrh	r3, [r3, #0]
10048326:	2b00      	cmp	r3, #0
10048328:	d101      	bne.n	1004832e <HAL_UART_Transmit+0x2e>
    {
      return  HAL_ERROR;
1004832a:	2301      	movs	r3, #1
1004832c:	e092      	b.n	10048454 <HAL_UART_Transmit+0x154>
    }

    /* In case of 9bits/No Parity transfer, pData buffer provided as input parameter
       should be aligned on a u16 frontier, as data to be filled into TDR will be
       handled through a u16 cast. */
    if ((huart->Init.WordLength == UART_WORDLENGTH_9B) && (huart->Init.Parity == UART_PARITY_NONE))
1004832e:	68fb      	ldr	r3, [r7, #12]
10048330:	689a      	ldr	r2, [r3, #8]
10048332:	2380      	movs	r3, #128	@ 0x80
10048334:	015b      	lsls	r3, r3, #5
10048336:	429a      	cmp	r2, r3
10048338:	d109      	bne.n	1004834e <HAL_UART_Transmit+0x4e>
1004833a:	68fb      	ldr	r3, [r7, #12]
1004833c:	691b      	ldr	r3, [r3, #16]
1004833e:	2b00      	cmp	r3, #0
10048340:	d105      	bne.n	1004834e <HAL_UART_Transmit+0x4e>
    {
      if ((((uint32_t)pData) & 1U) != 0U)
10048342:	68bb      	ldr	r3, [r7, #8]
10048344:	2201      	movs	r2, #1
10048346:	4013      	ands	r3, r2
10048348:	d001      	beq.n	1004834e <HAL_UART_Transmit+0x4e>
      {
        return  HAL_ERROR;
1004834a:	2301      	movs	r3, #1
1004834c:	e082      	b.n	10048454 <HAL_UART_Transmit+0x154>
      }
    }

    huart->ErrorCode = HAL_UART_ERROR_NONE;
1004834e:	68fb      	ldr	r3, [r7, #12]
10048350:	2290      	movs	r2, #144	@ 0x90
10048352:	2100      	movs	r1, #0
10048354:	5099      	str	r1, [r3, r2]
    huart->gState = HAL_UART_STATE_BUSY_TX;
10048356:	68fb      	ldr	r3, [r7, #12]
10048358:	2288      	movs	r2, #136	@ 0x88
1004835a:	2121      	movs	r1, #33	@ 0x21
1004835c:	5099      	str	r1, [r3, r2]

    /* Init tickstart for timeout management */
    tickstart = HAL_GetTick();
1004835e:	f7fb fe39 	bl	10043fd4 <HAL_GetTick>
10048362:	0003      	movs	r3, r0
10048364:	617b      	str	r3, [r7, #20]

    huart->TxXferSize  = Size;
10048366:	68fb      	ldr	r3, [r7, #12]
10048368:	1dba      	adds	r2, r7, #6
1004836a:	2154      	movs	r1, #84	@ 0x54
1004836c:	8812      	ldrh	r2, [r2, #0]
1004836e:	525a      	strh	r2, [r3, r1]
    huart->TxXferCount = Size;
10048370:	68fb      	ldr	r3, [r7, #12]
10048372:	1dba      	adds	r2, r7, #6
10048374:	2156      	movs	r1, #86	@ 0x56
10048376:	8812      	ldrh	r2, [r2, #0]
10048378:	525a      	strh	r2, [r3, r1]

    /* In case of 9bits/No Parity transfer, pData needs to be handled as a uint16_t pointer */
    if ((huart->Init.WordLength == UART_WORDLENGTH_9B) && (huart->Init.Parity == UART_PARITY_NONE))
1004837a:	68fb      	ldr	r3, [r7, #12]
1004837c:	689a      	ldr	r2, [r3, #8]
1004837e:	2380      	movs	r3, #128	@ 0x80
10048380:	015b      	lsls	r3, r3, #5
10048382:	429a      	cmp	r2, r3
10048384:	d108      	bne.n	10048398 <HAL_UART_Transmit+0x98>
10048386:	68fb      	ldr	r3, [r7, #12]
10048388:	691b      	ldr	r3, [r3, #16]
1004838a:	2b00      	cmp	r3, #0
1004838c:	d104      	bne.n	10048398 <HAL_UART_Transmit+0x98>
    {
      pdata8bits  = NULL;
1004838e:	2300      	movs	r3, #0
10048390:	61fb      	str	r3, [r7, #28]
      pdata16bits = (const uint16_t *) pData;
10048392:	68bb      	ldr	r3, [r7, #8]
10048394:	61bb      	str	r3, [r7, #24]
10048396:	e003      	b.n	100483a0 <HAL_UART_Transmit+0xa0>
    }
    else
    {
      pdata8bits  = pData;
10048398:	68bb      	ldr	r3, [r7, #8]
1004839a:	61fb      	str	r3, [r7, #28]
      pdata16bits = NULL;
1004839c:	2300      	movs	r3, #0
1004839e:	61bb      	str	r3, [r7, #24]
    }

    while (huart->TxXferCount > 0U)
100483a0:	e03a      	b.n	10048418 <HAL_UART_Transmit+0x118>
    {
      if (UART_WaitOnFlagUntilTimeout(huart, UART_FLAG_TXE, RESET, tickstart, Timeout) != HAL_OK)
100483a2:	697a      	ldr	r2, [r7, #20]
100483a4:	68f8      	ldr	r0, [r7, #12]
100483a6:	683b      	ldr	r3, [r7, #0]
100483a8:	9300      	str	r3, [sp, #0]
100483aa:	0013      	movs	r3, r2
100483ac:	2200      	movs	r2, #0
100483ae:	2180      	movs	r1, #128	@ 0x80
100483b0:	f000 fe7c 	bl	100490ac <UART_WaitOnFlagUntilTimeout>
100483b4:	1e03      	subs	r3, r0, #0
100483b6:	d005      	beq.n	100483c4 <HAL_UART_Transmit+0xc4>
      {

        huart->gState = HAL_UART_STATE_READY;
100483b8:	68fb      	ldr	r3, [r7, #12]
100483ba:	2288      	movs	r2, #136	@ 0x88
100483bc:	2120      	movs	r1, #32
100483be:	5099      	str	r1, [r3, r2]

        return HAL_TIMEOUT;
100483c0:	2303      	movs	r3, #3
100483c2:	e047      	b.n	10048454 <HAL_UART_Transmit+0x154>
      }
      if (pdata8bits == NULL)
100483c4:	69fb      	ldr	r3, [r7, #28]
100483c6:	2b00      	cmp	r3, #0
100483c8:	d10b      	bne.n	100483e2 <HAL_UART_Transmit+0xe2>
      {
        huart->Instance->TDR = (uint16_t)(*pdata16bits & 0x01FFU);
100483ca:	69bb      	ldr	r3, [r7, #24]
100483cc:	881b      	ldrh	r3, [r3, #0]
100483ce:	001a      	movs	r2, r3
100483d0:	68fb      	ldr	r3, [r7, #12]
100483d2:	681b      	ldr	r3, [r3, #0]
100483d4:	05d2      	lsls	r2, r2, #23
100483d6:	0dd2      	lsrs	r2, r2, #23
100483d8:	629a      	str	r2, [r3, #40]	@ 0x28
        pdata16bits++;
100483da:	69bb      	ldr	r3, [r7, #24]
100483dc:	3302      	adds	r3, #2
100483de:	61bb      	str	r3, [r7, #24]
100483e0:	e007      	b.n	100483f2 <HAL_UART_Transmit+0xf2>
      }
      else
      {
        huart->Instance->TDR = (uint8_t)(*pdata8bits & 0xFFU);
100483e2:	69fb      	ldr	r3, [r7, #28]
100483e4:	781a      	ldrb	r2, [r3, #0]
100483e6:	68fb      	ldr	r3, [r7, #12]
100483e8:	681b      	ldr	r3, [r3, #0]
100483ea:	629a      	str	r2, [r3, #40]	@ 0x28
        pdata8bits++;
100483ec:	69fb      	ldr	r3, [r7, #28]
100483ee:	3301      	adds	r3, #1
100483f0:	61fb      	str	r3, [r7, #28]
      }
      if ((huart->gState & HAL_UART_STATE_BUSY_TX) == HAL_UART_STATE_BUSY_TX)
100483f2:	68fb      	ldr	r3, [r7, #12]
100483f4:	2288      	movs	r2, #136	@ 0x88
100483f6:	589b      	ldr	r3, [r3, r2]
100483f8:	2221      	movs	r2, #33	@ 0x21
100483fa:	4013      	ands	r3, r2
100483fc:	2b21      	cmp	r3, #33	@ 0x21
100483fe:	d109      	bne.n	10048414 <HAL_UART_Transmit+0x114>
      {
        huart->TxXferCount--;
10048400:	68fb      	ldr	r3, [r7, #12]
10048402:	2256      	movs	r2, #86	@ 0x56
10048404:	5a9b      	ldrh	r3, [r3, r2]
10048406:	b29b      	uxth	r3, r3
10048408:	3b01      	subs	r3, #1
1004840a:	b299      	uxth	r1, r3
1004840c:	68fb      	ldr	r3, [r7, #12]
1004840e:	2256      	movs	r2, #86	@ 0x56
10048410:	5299      	strh	r1, [r3, r2]
10048412:	e001      	b.n	10048418 <HAL_UART_Transmit+0x118>
      }
      else
      {
        /* Process was aborted during the transmission */
        return HAL_ERROR;
10048414:	2301      	movs	r3, #1
10048416:	e01d      	b.n	10048454 <HAL_UART_Transmit+0x154>
    while (huart->TxXferCount > 0U)
10048418:	68fb      	ldr	r3, [r7, #12]
1004841a:	2256      	movs	r2, #86	@ 0x56
1004841c:	5a9b      	ldrh	r3, [r3, r2]
1004841e:	b29b      	uxth	r3, r3
10048420:	2b00      	cmp	r3, #0
10048422:	d1be      	bne.n	100483a2 <HAL_UART_Transmit+0xa2>
      }
    }

    if (UART_WaitOnFlagUntilTimeout(huart, UART_FLAG_TC, RESET, tickstart, Timeout) != HAL_OK)
10048424:	697a      	ldr	r2, [r7, #20]
10048426:	68f8      	ldr	r0, [r7, #12]
10048428:	683b      	ldr	r3, [r7, #0]
1004842a:	9300      	str	r3, [sp, #0]
1004842c:	0013      	movs	r3, r2
1004842e:	2200      	movs	r2, #0
10048430:	2140      	movs	r1, #64	@ 0x40
10048432:	f000 fe3b 	bl	100490ac <UART_WaitOnFlagUntilTimeout>
10048436:	1e03      	subs	r3, r0, #0
10048438:	d005      	beq.n	10048446 <HAL_UART_Transmit+0x146>
    {
      huart->gState = HAL_UART_STATE_READY;
1004843a:	68fb      	ldr	r3, [r7, #12]
1004843c:	2288      	movs	r2, #136	@ 0x88
1004843e:	2120      	movs	r1, #32
10048440:	5099      	str	r1, [r3, r2]

      return HAL_TIMEOUT;
10048442:	2303      	movs	r3, #3
10048444:	e006      	b.n	10048454 <HAL_UART_Transmit+0x154>
    }

    /* At end of Tx process, restore huart->gState to Ready */
    huart->gState = HAL_UART_STATE_READY;
10048446:	68fb      	ldr	r3, [r7, #12]
10048448:	2288      	movs	r2, #136	@ 0x88
1004844a:	2120      	movs	r1, #32
1004844c:	5099      	str	r1, [r3, r2]

    return HAL_OK;
1004844e:	2300      	movs	r3, #0
10048450:	e000      	b.n	10048454 <HAL_UART_Transmit+0x154>
  }
  else
  {
    return HAL_BUSY;
10048452:	2302      	movs	r3, #2
  }
}
10048454:	0018      	movs	r0, r3
10048456:	46bd      	mov	sp, r7
10048458:	b008      	add	sp, #32
1004845a:	bd80      	pop	{r7, pc}

1004845c <HAL_UART_IRQHandler>:
  * @brief Handle UART interrupt request.
  * @param huart UART handle.
  * @retval None
  */
void HAL_UART_IRQHandler(UART_HandleTypeDef *huart)
{
1004845c:	b5b0      	push	{r4, r5, r7, lr}
1004845e:	b0aa      	sub	sp, #168	@ 0xa8
10048460:	af00      	add	r7, sp, #0
10048462:	6078      	str	r0, [r7, #4]
  uint32_t isrflags   = READ_REG(huart->Instance->ISR);
10048464:	687b      	ldr	r3, [r7, #4]
10048466:	681b      	ldr	r3, [r3, #0]
10048468:	69db      	ldr	r3, [r3, #28]
1004846a:	22a4      	movs	r2, #164	@ 0xa4
1004846c:	18b9      	adds	r1, r7, r2
1004846e:	600b      	str	r3, [r1, #0]
  uint32_t cr1its     = READ_REG(huart->Instance->CR1);
10048470:	687b      	ldr	r3, [r7, #4]
10048472:	681b      	ldr	r3, [r3, #0]
10048474:	681b      	ldr	r3, [r3, #0]
10048476:	20a0      	movs	r0, #160	@ 0xa0
10048478:	1839      	adds	r1, r7, r0
1004847a:	600b      	str	r3, [r1, #0]
  uint32_t cr3its     = READ_REG(huart->Instance->CR3);
1004847c:	687b      	ldr	r3, [r7, #4]
1004847e:	681b      	ldr	r3, [r3, #0]
10048480:	689b      	ldr	r3, [r3, #8]
10048482:	249c      	movs	r4, #156	@ 0x9c
10048484:	1939      	adds	r1, r7, r4
10048486:	600b      	str	r3, [r1, #0]

  uint32_t errorflags;
  uint32_t errorcode;

  /* If no error occurs */
  errorflags = (isrflags & (uint32_t)(USART_ISR_PE | USART_ISR_FE | USART_ISR_ORE | USART_ISR_NE | USART_ISR_RTOF));
10048488:	0011      	movs	r1, r2
1004848a:	18bb      	adds	r3, r7, r2
1004848c:	681b      	ldr	r3, [r3, #0]
1004848e:	4aa2      	ldr	r2, [pc, #648]	@ (10048718 <HAL_UART_IRQHandler+0x2bc>)
10048490:	4013      	ands	r3, r2
10048492:	2298      	movs	r2, #152	@ 0x98
10048494:	18bd      	adds	r5, r7, r2
10048496:	602b      	str	r3, [r5, #0]
  if (errorflags == 0U)
10048498:	18bb      	adds	r3, r7, r2
1004849a:	681b      	ldr	r3, [r3, #0]
1004849c:	2b00      	cmp	r3, #0
1004849e:	d11a      	bne.n	100484d6 <HAL_UART_IRQHandler+0x7a>
  {
    /* UART in mode Receiver ---------------------------------------------------*/
    if (((isrflags & USART_ISR_RXNE_RXFNE) != 0U)
100484a0:	187b      	adds	r3, r7, r1
100484a2:	681b      	ldr	r3, [r3, #0]
100484a4:	2220      	movs	r2, #32
100484a6:	4013      	ands	r3, r2
100484a8:	d015      	beq.n	100484d6 <HAL_UART_IRQHandler+0x7a>
        && (((cr1its & USART_CR1_RXNEIE_RXFNEIE) != 0U)
100484aa:	183b      	adds	r3, r7, r0
100484ac:	681b      	ldr	r3, [r3, #0]
100484ae:	2220      	movs	r2, #32
100484b0:	4013      	ands	r3, r2
100484b2:	d105      	bne.n	100484c0 <HAL_UART_IRQHandler+0x64>
            || ((cr3its & USART_CR3_RXFTIE) != 0U)))
100484b4:	193b      	adds	r3, r7, r4
100484b6:	681a      	ldr	r2, [r3, #0]
100484b8:	2380      	movs	r3, #128	@ 0x80
100484ba:	055b      	lsls	r3, r3, #21
100484bc:	4013      	ands	r3, r2
100484be:	d00a      	beq.n	100484d6 <HAL_UART_IRQHandler+0x7a>
    {
      if (huart->RxISR != NULL)
100484c0:	687b      	ldr	r3, [r7, #4]
100484c2:	6f5b      	ldr	r3, [r3, #116]	@ 0x74
100484c4:	2b00      	cmp	r3, #0
100484c6:	d100      	bne.n	100484ca <HAL_UART_IRQHandler+0x6e>
100484c8:	e2fb      	b.n	10048ac2 <HAL_UART_IRQHandler+0x666>
      {
        huart->RxISR(huart);
100484ca:	687b      	ldr	r3, [r7, #4]
100484cc:	6f5b      	ldr	r3, [r3, #116]	@ 0x74
100484ce:	687a      	ldr	r2, [r7, #4]
100484d0:	0010      	movs	r0, r2
100484d2:	4798      	blx	r3
      }
      return;
100484d4:	e2f5      	b.n	10048ac2 <HAL_UART_IRQHandler+0x666>
    }
  }

  /* If some errors occur */
  if ((errorflags != 0U)
100484d6:	2398      	movs	r3, #152	@ 0x98
100484d8:	18fb      	adds	r3, r7, r3
100484da:	681b      	ldr	r3, [r3, #0]
100484dc:	2b00      	cmp	r3, #0
100484de:	d100      	bne.n	100484e2 <HAL_UART_IRQHandler+0x86>
100484e0:	e122      	b.n	10048728 <HAL_UART_IRQHandler+0x2cc>
      && ((((cr3its & (USART_CR3_RXFTIE | USART_CR3_EIE)) != 0U)
100484e2:	239c      	movs	r3, #156	@ 0x9c
100484e4:	18fb      	adds	r3, r7, r3
100484e6:	681b      	ldr	r3, [r3, #0]
100484e8:	4a8c      	ldr	r2, [pc, #560]	@ (1004871c <HAL_UART_IRQHandler+0x2c0>)
100484ea:	4013      	ands	r3, r2
100484ec:	d106      	bne.n	100484fc <HAL_UART_IRQHandler+0xa0>
           || ((cr1its & (USART_CR1_RXNEIE_RXFNEIE | USART_CR1_PEIE | USART_CR1_RTOIE)) != 0U))))
100484ee:	23a0      	movs	r3, #160	@ 0xa0
100484f0:	18fb      	adds	r3, r7, r3
100484f2:	681b      	ldr	r3, [r3, #0]
100484f4:	4a8a      	ldr	r2, [pc, #552]	@ (10048720 <HAL_UART_IRQHandler+0x2c4>)
100484f6:	4013      	ands	r3, r2
100484f8:	d100      	bne.n	100484fc <HAL_UART_IRQHandler+0xa0>
100484fa:	e115      	b.n	10048728 <HAL_UART_IRQHandler+0x2cc>
  {
    /* UART parity error interrupt occurred -------------------------------------*/
    if (((isrflags & USART_ISR_PE) != 0U) && ((cr1its & USART_CR1_PEIE) != 0U))
100484fc:	23a4      	movs	r3, #164	@ 0xa4
100484fe:	18fb      	adds	r3, r7, r3
10048500:	681b      	ldr	r3, [r3, #0]
10048502:	2201      	movs	r2, #1
10048504:	4013      	ands	r3, r2
10048506:	d012      	beq.n	1004852e <HAL_UART_IRQHandler+0xd2>
10048508:	23a0      	movs	r3, #160	@ 0xa0
1004850a:	18fb      	adds	r3, r7, r3
1004850c:	681a      	ldr	r2, [r3, #0]
1004850e:	2380      	movs	r3, #128	@ 0x80
10048510:	005b      	lsls	r3, r3, #1
10048512:	4013      	ands	r3, r2
10048514:	d00b      	beq.n	1004852e <HAL_UART_IRQHandler+0xd2>
    {
      __HAL_UART_CLEAR_FLAG(huart, UART_CLEAR_PEF);
10048516:	687b      	ldr	r3, [r7, #4]
10048518:	681b      	ldr	r3, [r3, #0]
1004851a:	2201      	movs	r2, #1
1004851c:	621a      	str	r2, [r3, #32]

      huart->ErrorCode |= HAL_UART_ERROR_PE;
1004851e:	687b      	ldr	r3, [r7, #4]
10048520:	2290      	movs	r2, #144	@ 0x90
10048522:	589b      	ldr	r3, [r3, r2]
10048524:	2201      	movs	r2, #1
10048526:	431a      	orrs	r2, r3
10048528:	687b      	ldr	r3, [r7, #4]
1004852a:	2190      	movs	r1, #144	@ 0x90
1004852c:	505a      	str	r2, [r3, r1]
    }

    /* UART frame error interrupt occurred --------------------------------------*/
    if (((isrflags & USART_ISR_FE) != 0U) && ((cr3its & USART_CR3_EIE) != 0U))
1004852e:	23a4      	movs	r3, #164	@ 0xa4
10048530:	18fb      	adds	r3, r7, r3
10048532:	681b      	ldr	r3, [r3, #0]
10048534:	2202      	movs	r2, #2
10048536:	4013      	ands	r3, r2
10048538:	d011      	beq.n	1004855e <HAL_UART_IRQHandler+0x102>
1004853a:	239c      	movs	r3, #156	@ 0x9c
1004853c:	18fb      	adds	r3, r7, r3
1004853e:	681b      	ldr	r3, [r3, #0]
10048540:	2201      	movs	r2, #1
10048542:	4013      	ands	r3, r2
10048544:	d00b      	beq.n	1004855e <HAL_UART_IRQHandler+0x102>
    {
      __HAL_UART_CLEAR_FLAG(huart, UART_CLEAR_FEF);
10048546:	687b      	ldr	r3, [r7, #4]
10048548:	681b      	ldr	r3, [r3, #0]
1004854a:	2202      	movs	r2, #2
1004854c:	621a      	str	r2, [r3, #32]

      huart->ErrorCode |= HAL_UART_ERROR_FE;
1004854e:	687b      	ldr	r3, [r7, #4]
10048550:	2290      	movs	r2, #144	@ 0x90
10048552:	589b      	ldr	r3, [r3, r2]
10048554:	2204      	movs	r2, #4
10048556:	431a      	orrs	r2, r3
10048558:	687b      	ldr	r3, [r7, #4]
1004855a:	2190      	movs	r1, #144	@ 0x90
1004855c:	505a      	str	r2, [r3, r1]
    }

    /* UART noise error interrupt occurred --------------------------------------*/
    if (((isrflags & USART_ISR_NE) != 0U) && ((cr3its & USART_CR3_EIE) != 0U))
1004855e:	23a4      	movs	r3, #164	@ 0xa4
10048560:	18fb      	adds	r3, r7, r3
10048562:	681b      	ldr	r3, [r3, #0]
10048564:	2204      	movs	r2, #4
10048566:	4013      	ands	r3, r2
10048568:	d011      	beq.n	1004858e <HAL_UART_IRQHandler+0x132>
1004856a:	239c      	movs	r3, #156	@ 0x9c
1004856c:	18fb      	adds	r3, r7, r3
1004856e:	681b      	ldr	r3, [r3, #0]
10048570:	2201      	movs	r2, #1
10048572:	4013      	ands	r3, r2
10048574:	d00b      	beq.n	1004858e <HAL_UART_IRQHandler+0x132>
    {
      __HAL_UART_CLEAR_FLAG(huart, UART_CLEAR_NEF);
10048576:	687b      	ldr	r3, [r7, #4]
10048578:	681b      	ldr	r3, [r3, #0]
1004857a:	2204      	movs	r2, #4
1004857c:	621a      	str	r2, [r3, #32]

      huart->ErrorCode |= HAL_UART_ERROR_NE;
1004857e:	687b      	ldr	r3, [r7, #4]
10048580:	2290      	movs	r2, #144	@ 0x90
10048582:	589b      	ldr	r3, [r3, r2]
10048584:	2202      	movs	r2, #2
10048586:	431a      	orrs	r2, r3
10048588:	687b      	ldr	r3, [r7, #4]
1004858a:	2190      	movs	r1, #144	@ 0x90
1004858c:	505a      	str	r2, [r3, r1]
    }

    /* UART Over-Run interrupt occurred -----------------------------------------*/
    if (((isrflags & USART_ISR_ORE) != 0U)
1004858e:	23a4      	movs	r3, #164	@ 0xa4
10048590:	18fb      	adds	r3, r7, r3
10048592:	681b      	ldr	r3, [r3, #0]
10048594:	2208      	movs	r2, #8
10048596:	4013      	ands	r3, r2
10048598:	d017      	beq.n	100485ca <HAL_UART_IRQHandler+0x16e>
        && (((cr1its & USART_CR1_RXNEIE_RXFNEIE) != 0U) ||
1004859a:	23a0      	movs	r3, #160	@ 0xa0
1004859c:	18fb      	adds	r3, r7, r3
1004859e:	681b      	ldr	r3, [r3, #0]
100485a0:	2220      	movs	r2, #32
100485a2:	4013      	ands	r3, r2
100485a4:	d105      	bne.n	100485b2 <HAL_UART_IRQHandler+0x156>
            ((cr3its & (USART_CR3_RXFTIE | USART_CR3_EIE)) != 0U)))
100485a6:	239c      	movs	r3, #156	@ 0x9c
100485a8:	18fb      	adds	r3, r7, r3
100485aa:	681b      	ldr	r3, [r3, #0]
100485ac:	4a5b      	ldr	r2, [pc, #364]	@ (1004871c <HAL_UART_IRQHandler+0x2c0>)
100485ae:	4013      	ands	r3, r2
        && (((cr1its & USART_CR1_RXNEIE_RXFNEIE) != 0U) ||
100485b0:	d00b      	beq.n	100485ca <HAL_UART_IRQHandler+0x16e>
    {
      __HAL_UART_CLEAR_FLAG(huart, UART_CLEAR_OREF);
100485b2:	687b      	ldr	r3, [r7, #4]
100485b4:	681b      	ldr	r3, [r3, #0]
100485b6:	2208      	movs	r2, #8
100485b8:	621a      	str	r2, [r3, #32]

      huart->ErrorCode |= HAL_UART_ERROR_ORE;
100485ba:	687b      	ldr	r3, [r7, #4]
100485bc:	2290      	movs	r2, #144	@ 0x90
100485be:	589b      	ldr	r3, [r3, r2]
100485c0:	2208      	movs	r2, #8
100485c2:	431a      	orrs	r2, r3
100485c4:	687b      	ldr	r3, [r7, #4]
100485c6:	2190      	movs	r1, #144	@ 0x90
100485c8:	505a      	str	r2, [r3, r1]
    }

    /* UART Receiver Timeout interrupt occurred ---------------------------------*/
    if (((isrflags & USART_ISR_RTOF) != 0U) && ((cr1its & USART_CR1_RTOIE) != 0U))
100485ca:	23a4      	movs	r3, #164	@ 0xa4
100485cc:	18fb      	adds	r3, r7, r3
100485ce:	681a      	ldr	r2, [r3, #0]
100485d0:	2380      	movs	r3, #128	@ 0x80
100485d2:	011b      	lsls	r3, r3, #4
100485d4:	4013      	ands	r3, r2
100485d6:	d013      	beq.n	10048600 <HAL_UART_IRQHandler+0x1a4>
100485d8:	23a0      	movs	r3, #160	@ 0xa0
100485da:	18fb      	adds	r3, r7, r3
100485dc:	681a      	ldr	r2, [r3, #0]
100485de:	2380      	movs	r3, #128	@ 0x80
100485e0:	04db      	lsls	r3, r3, #19
100485e2:	4013      	ands	r3, r2
100485e4:	d00c      	beq.n	10048600 <HAL_UART_IRQHandler+0x1a4>
    {
      __HAL_UART_CLEAR_FLAG(huart, UART_CLEAR_RTOF);
100485e6:	687b      	ldr	r3, [r7, #4]
100485e8:	681b      	ldr	r3, [r3, #0]
100485ea:	2280      	movs	r2, #128	@ 0x80
100485ec:	0112      	lsls	r2, r2, #4
100485ee:	621a      	str	r2, [r3, #32]

      huart->ErrorCode |= HAL_UART_ERROR_RTO;
100485f0:	687b      	ldr	r3, [r7, #4]
100485f2:	2290      	movs	r2, #144	@ 0x90
100485f4:	589b      	ldr	r3, [r3, r2]
100485f6:	2220      	movs	r2, #32
100485f8:	431a      	orrs	r2, r3
100485fa:	687b      	ldr	r3, [r7, #4]
100485fc:	2190      	movs	r1, #144	@ 0x90
100485fe:	505a      	str	r2, [r3, r1]
    }

    /* Call UART Error Call back function if need be ----------------------------*/
    if (huart->ErrorCode != HAL_UART_ERROR_NONE)
10048600:	687b      	ldr	r3, [r7, #4]
10048602:	2290      	movs	r2, #144	@ 0x90
10048604:	589b      	ldr	r3, [r3, r2]
10048606:	2b00      	cmp	r3, #0
10048608:	d100      	bne.n	1004860c <HAL_UART_IRQHandler+0x1b0>
1004860a:	e25c      	b.n	10048ac6 <HAL_UART_IRQHandler+0x66a>
    {
      /* UART in mode Receiver --------------------------------------------------*/
      if (((isrflags & USART_ISR_RXNE_RXFNE) != 0U)
1004860c:	23a4      	movs	r3, #164	@ 0xa4
1004860e:	18fb      	adds	r3, r7, r3
10048610:	681b      	ldr	r3, [r3, #0]
10048612:	2220      	movs	r2, #32
10048614:	4013      	ands	r3, r2
10048616:	d015      	beq.n	10048644 <HAL_UART_IRQHandler+0x1e8>
          && (((cr1its & USART_CR1_RXNEIE_RXFNEIE) != 0U)
10048618:	23a0      	movs	r3, #160	@ 0xa0
1004861a:	18fb      	adds	r3, r7, r3
1004861c:	681b      	ldr	r3, [r3, #0]
1004861e:	2220      	movs	r2, #32
10048620:	4013      	ands	r3, r2
10048622:	d106      	bne.n	10048632 <HAL_UART_IRQHandler+0x1d6>
              || ((cr3its & USART_CR3_RXFTIE) != 0U)))
10048624:	239c      	movs	r3, #156	@ 0x9c
10048626:	18fb      	adds	r3, r7, r3
10048628:	681a      	ldr	r2, [r3, #0]
1004862a:	2380      	movs	r3, #128	@ 0x80
1004862c:	055b      	lsls	r3, r3, #21
1004862e:	4013      	ands	r3, r2
10048630:	d008      	beq.n	10048644 <HAL_UART_IRQHandler+0x1e8>
      {
        if (huart->RxISR != NULL)
10048632:	687b      	ldr	r3, [r7, #4]
10048634:	6f5b      	ldr	r3, [r3, #116]	@ 0x74
10048636:	2b00      	cmp	r3, #0
10048638:	d004      	beq.n	10048644 <HAL_UART_IRQHandler+0x1e8>
        {
          huart->RxISR(huart);
1004863a:	687b      	ldr	r3, [r7, #4]
1004863c:	6f5b      	ldr	r3, [r3, #116]	@ 0x74
1004863e:	687a      	ldr	r2, [r7, #4]
10048640:	0010      	movs	r0, r2
10048642:	4798      	blx	r3
      /* If Error is to be considered as blocking :
          - Receiver Timeout error in Reception
          - Overrun error in Reception
          - any error occurs in DMA mode reception
      */
      errorcode = huart->ErrorCode;
10048644:	687b      	ldr	r3, [r7, #4]
10048646:	2290      	movs	r2, #144	@ 0x90
10048648:	589b      	ldr	r3, [r3, r2]
1004864a:	2194      	movs	r1, #148	@ 0x94
1004864c:	187a      	adds	r2, r7, r1
1004864e:	6013      	str	r3, [r2, #0]
      if ((HAL_IS_BIT_SET(huart->Instance->CR3, USART_CR3_DMAR)) ||
10048650:	687b      	ldr	r3, [r7, #4]
10048652:	681b      	ldr	r3, [r3, #0]
10048654:	689b      	ldr	r3, [r3, #8]
10048656:	2240      	movs	r2, #64	@ 0x40
10048658:	4013      	ands	r3, r2
1004865a:	2b40      	cmp	r3, #64	@ 0x40
1004865c:	d004      	beq.n	10048668 <HAL_UART_IRQHandler+0x20c>
          ((errorcode & (HAL_UART_ERROR_RTO | HAL_UART_ERROR_ORE)) != 0U))
1004865e:	187b      	adds	r3, r7, r1
10048660:	681b      	ldr	r3, [r3, #0]
10048662:	2228      	movs	r2, #40	@ 0x28
10048664:	4013      	ands	r3, r2
      if ((HAL_IS_BIT_SET(huart->Instance->CR3, USART_CR3_DMAR)) ||
10048666:	d04c      	beq.n	10048702 <HAL_UART_IRQHandler+0x2a6>
      {
        /* Blocking error : transfer is aborted
           Set the UART state ready to be able to start again the process,
           Disable Rx Interrupts, and disable Rx DMA request, if ongoing */
        UART_EndRxTransfer(huart);
10048668:	687b      	ldr	r3, [r7, #4]
1004866a:	0018      	movs	r0, r3
1004866c:	f000 fd8e 	bl	1004918c <UART_EndRxTransfer>

#if defined(HAL_DMA_MODULE_ENABLED)
        /* Abort the UART DMA Rx channel if enabled */
        if (HAL_IS_BIT_SET(huart->Instance->CR3, USART_CR3_DMAR))
10048670:	687b      	ldr	r3, [r7, #4]
10048672:	681b      	ldr	r3, [r3, #0]
10048674:	689b      	ldr	r3, [r3, #8]
10048676:	2240      	movs	r2, #64	@ 0x40
10048678:	4013      	ands	r3, r2
1004867a:	2b40      	cmp	r3, #64	@ 0x40
1004867c:	d13c      	bne.n	100486f8 <HAL_UART_IRQHandler+0x29c>
 */
__STATIC_FORCEINLINE uint32_t __get_PRIMASK(void)
{
  uint32_t result;

  __ASM volatile ("MRS %0, primask" : "=r" (result) );
1004867e:	f3ef 8310 	mrs	r3, PRIMASK
10048682:	663b      	str	r3, [r7, #96]	@ 0x60
  return(result);
10048684:	6e3b      	ldr	r3, [r7, #96]	@ 0x60
        {
          /* Disable the UART DMA Rx request if enabled */
          ATOMIC_CLEAR_BIT(huart->Instance->CR3, USART_CR3_DMAR);
10048686:	2090      	movs	r0, #144	@ 0x90
10048688:	183a      	adds	r2, r7, r0
1004868a:	6013      	str	r3, [r2, #0]
1004868c:	2301      	movs	r3, #1
1004868e:	667b      	str	r3, [r7, #100]	@ 0x64
  \details Assigns the given value to the Priority Mask Register.
  \param [in]    priMask  Priority Mask
 */
__STATIC_FORCEINLINE void __set_PRIMASK(uint32_t priMask)
{
  __ASM volatile ("MSR primask, %0" : : "r" (priMask) : "memory");
10048690:	6e7b      	ldr	r3, [r7, #100]	@ 0x64
10048692:	f383 8810 	msr	PRIMASK, r3
}
10048696:	46c0      	nop			@ (mov r8, r8)
10048698:	687b      	ldr	r3, [r7, #4]
1004869a:	681b      	ldr	r3, [r3, #0]
1004869c:	689a      	ldr	r2, [r3, #8]
1004869e:	687b      	ldr	r3, [r7, #4]
100486a0:	681b      	ldr	r3, [r3, #0]
100486a2:	2140      	movs	r1, #64	@ 0x40
100486a4:	438a      	bics	r2, r1
100486a6:	609a      	str	r2, [r3, #8]
100486a8:	183b      	adds	r3, r7, r0
100486aa:	681b      	ldr	r3, [r3, #0]
100486ac:	66bb      	str	r3, [r7, #104]	@ 0x68
  __ASM volatile ("MSR primask, %0" : : "r" (priMask) : "memory");
100486ae:	6ebb      	ldr	r3, [r7, #104]	@ 0x68
100486b0:	f383 8810 	msr	PRIMASK, r3
}
100486b4:	46c0      	nop			@ (mov r8, r8)

          /* Abort the UART DMA Rx channel */
          if (huart->hdmarx != NULL)
100486b6:	687b      	ldr	r3, [r7, #4]
100486b8:	2280      	movs	r2, #128	@ 0x80
100486ba:	589b      	ldr	r3, [r3, r2]
100486bc:	2b00      	cmp	r3, #0
100486be:	d016      	beq.n	100486ee <HAL_UART_IRQHandler+0x292>
          {
            /* Set the UART DMA Abort callback :
               will lead to call HAL_UART_ErrorCallback() at end of DMA abort procedure */
            huart->hdmarx->XferAbortCallback = UART_DMAAbortOnError;
100486c0:	687b      	ldr	r3, [r7, #4]
100486c2:	2280      	movs	r2, #128	@ 0x80
100486c4:	589b      	ldr	r3, [r3, r2]
100486c6:	4a17      	ldr	r2, [pc, #92]	@ (10048724 <HAL_UART_IRQHandler+0x2c8>)
100486c8:	639a      	str	r2, [r3, #56]	@ 0x38

            /* Abort DMA RX */
            if (HAL_DMA_Abort_IT(huart->hdmarx) != HAL_OK)
100486ca:	687b      	ldr	r3, [r7, #4]
100486cc:	2280      	movs	r2, #128	@ 0x80
100486ce:	589b      	ldr	r3, [r3, r2]
100486d0:	0018      	movs	r0, r3
100486d2:	f7fc fa8e 	bl	10044bf2 <HAL_DMA_Abort_IT>
100486d6:	1e03      	subs	r3, r0, #0
100486d8:	d01c      	beq.n	10048714 <HAL_UART_IRQHandler+0x2b8>
            {
              /* Call Directly huart->hdmarx->XferAbortCallback function in case of error */
              huart->hdmarx->XferAbortCallback(huart->hdmarx);
100486da:	687b      	ldr	r3, [r7, #4]
100486dc:	2280      	movs	r2, #128	@ 0x80
100486de:	589b      	ldr	r3, [r3, r2]
100486e0:	6b9b      	ldr	r3, [r3, #56]	@ 0x38
100486e2:	687a      	ldr	r2, [r7, #4]
100486e4:	2180      	movs	r1, #128	@ 0x80
100486e6:	5852      	ldr	r2, [r2, r1]
100486e8:	0010      	movs	r0, r2
100486ea:	4798      	blx	r3
        if (HAL_IS_BIT_SET(huart->Instance->CR3, USART_CR3_DMAR))
100486ec:	e012      	b.n	10048714 <HAL_UART_IRQHandler+0x2b8>
#if (USE_HAL_UART_REGISTER_CALLBACKS == 1)
            /*Call registered error callback*/
            huart->ErrorCallback(huart);
#else
            /*Call legacy weak error callback*/
            HAL_UART_ErrorCallback(huart);
100486ee:	687b      	ldr	r3, [r7, #4]
100486f0:	0018      	movs	r0, r3
100486f2:	f000 fa01 	bl	10048af8 <HAL_UART_ErrorCallback>
        if (HAL_IS_BIT_SET(huart->Instance->CR3, USART_CR3_DMAR))
100486f6:	e00d      	b.n	10048714 <HAL_UART_IRQHandler+0x2b8>
#if (USE_HAL_UART_REGISTER_CALLBACKS == 1)
          /*Call registered error callback*/
          huart->ErrorCallback(huart);
#else
          /*Call legacy weak error callback*/
          HAL_UART_ErrorCallback(huart);
100486f8:	687b      	ldr	r3, [r7, #4]
100486fa:	0018      	movs	r0, r3
100486fc:	f000 f9fc 	bl	10048af8 <HAL_UART_ErrorCallback>
        if (HAL_IS_BIT_SET(huart->Instance->CR3, USART_CR3_DMAR))
10048700:	e008      	b.n	10048714 <HAL_UART_IRQHandler+0x2b8>
#if (USE_HAL_UART_REGISTER_CALLBACKS == 1)
        /*Call registered error callback*/
        huart->ErrorCallback(huart);
#else
        /*Call legacy weak error callback*/
        HAL_UART_ErrorCallback(huart);
10048702:	687b      	ldr	r3, [r7, #4]
10048704:	0018      	movs	r0, r3
10048706:	f000 f9f7 	bl	10048af8 <HAL_UART_ErrorCallback>
#endif /* USE_HAL_UART_REGISTER_CALLBACKS */
        huart->ErrorCode = HAL_UART_ERROR_NONE;
1004870a:	687b      	ldr	r3, [r7, #4]
1004870c:	2290      	movs	r2, #144	@ 0x90
1004870e:	2100      	movs	r1, #0
10048710:	5099      	str	r1, [r3, r2]
      }
    }
    return;
10048712:	e1d8      	b.n	10048ac6 <HAL_UART_IRQHandler+0x66a>
        if (HAL_IS_BIT_SET(huart->Instance->CR3, USART_CR3_DMAR))
10048714:	46c0      	nop			@ (mov r8, r8)
    return;
10048716:	e1d6      	b.n	10048ac6 <HAL_UART_IRQHandler+0x66a>
10048718:	0000080f 	.word	0x0000080f
1004871c:	10000001 	.word	0x10000001
10048720:	04000120 	.word	0x04000120
10048724:	10049259 	.word	0x10049259

  } /* End if some error occurs */

  /* Check current reception Mode :
     If Reception till IDLE event has been selected : */
  if ((huart->ReceptionType == HAL_UART_RECEPTION_TOIDLE)
10048728:	687b      	ldr	r3, [r7, #4]
1004872a:	6edb      	ldr	r3, [r3, #108]	@ 0x6c
1004872c:	2b01      	cmp	r3, #1
1004872e:	d000      	beq.n	10048732 <HAL_UART_IRQHandler+0x2d6>
10048730:	e15d      	b.n	100489ee <HAL_UART_IRQHandler+0x592>
      && ((isrflags & USART_ISR_IDLE) != 0U)
10048732:	23a4      	movs	r3, #164	@ 0xa4
10048734:	18fb      	adds	r3, r7, r3
10048736:	681b      	ldr	r3, [r3, #0]
10048738:	2210      	movs	r2, #16
1004873a:	4013      	ands	r3, r2
1004873c:	d100      	bne.n	10048740 <HAL_UART_IRQHandler+0x2e4>
1004873e:	e156      	b.n	100489ee <HAL_UART_IRQHandler+0x592>
      && ((cr1its & USART_ISR_IDLE) != 0U))
10048740:	23a0      	movs	r3, #160	@ 0xa0
10048742:	18fb      	adds	r3, r7, r3
10048744:	681b      	ldr	r3, [r3, #0]
10048746:	2210      	movs	r2, #16
10048748:	4013      	ands	r3, r2
1004874a:	d100      	bne.n	1004874e <HAL_UART_IRQHandler+0x2f2>
1004874c:	e14f      	b.n	100489ee <HAL_UART_IRQHandler+0x592>
  {
    __HAL_UART_CLEAR_FLAG(huart, UART_CLEAR_IDLEF);
1004874e:	687b      	ldr	r3, [r7, #4]
10048750:	681b      	ldr	r3, [r3, #0]
10048752:	2210      	movs	r2, #16
10048754:	621a      	str	r2, [r3, #32]

#if defined(HAL_DMA_MODULE_ENABLED)
    /* Check if DMA mode is enabled in UART */
    if (HAL_IS_BIT_SET(huart->Instance->CR3, USART_CR3_DMAR))
10048756:	687b      	ldr	r3, [r7, #4]
10048758:	681b      	ldr	r3, [r3, #0]
1004875a:	689b      	ldr	r3, [r3, #8]
1004875c:	2240      	movs	r2, #64	@ 0x40
1004875e:	4013      	ands	r3, r2
10048760:	2b40      	cmp	r3, #64	@ 0x40
10048762:	d000      	beq.n	10048766 <HAL_UART_IRQHandler+0x30a>
10048764:	e0c3      	b.n	100488ee <HAL_UART_IRQHandler+0x492>
    {
      /* DMA mode enabled */
      /* Check received length : If all expected data are received, do nothing,
         (DMA cplt callback will be called).
         Otherwise, if at least one data has already been received, IDLE event is to be notified to user */
      uint16_t nb_remaining_rx_data = (uint16_t) __HAL_DMA_GET_COUNTER(huart->hdmarx);
10048766:	687b      	ldr	r3, [r7, #4]
10048768:	2280      	movs	r2, #128	@ 0x80
1004876a:	589b      	ldr	r3, [r3, r2]
1004876c:	681b      	ldr	r3, [r3, #0]
1004876e:	685a      	ldr	r2, [r3, #4]
10048770:	217e      	movs	r1, #126	@ 0x7e
10048772:	187b      	adds	r3, r7, r1
10048774:	801a      	strh	r2, [r3, #0]
      if ((nb_remaining_rx_data > 0U)
10048776:	187b      	adds	r3, r7, r1
10048778:	881b      	ldrh	r3, [r3, #0]
1004877a:	2b00      	cmp	r3, #0
1004877c:	d100      	bne.n	10048780 <HAL_UART_IRQHandler+0x324>
1004877e:	e097      	b.n	100488b0 <HAL_UART_IRQHandler+0x454>
          && (nb_remaining_rx_data < huart->RxXferSize))
10048780:	687b      	ldr	r3, [r7, #4]
10048782:	225c      	movs	r2, #92	@ 0x5c
10048784:	5a9b      	ldrh	r3, [r3, r2]
10048786:	187a      	adds	r2, r7, r1
10048788:	8812      	ldrh	r2, [r2, #0]
1004878a:	429a      	cmp	r2, r3
1004878c:	d300      	bcc.n	10048790 <HAL_UART_IRQHandler+0x334>
1004878e:	e08f      	b.n	100488b0 <HAL_UART_IRQHandler+0x454>
      {
        /* Reception is not complete */
        huart->RxXferCount = nb_remaining_rx_data;
10048790:	687b      	ldr	r3, [r7, #4]
10048792:	187a      	adds	r2, r7, r1
10048794:	215e      	movs	r1, #94	@ 0x5e
10048796:	8812      	ldrh	r2, [r2, #0]
10048798:	525a      	strh	r2, [r3, r1]

        /* In Normal mode, end DMA xfer and HAL UART Rx process*/
        if (HAL_IS_BIT_CLR(huart->hdmarx->Instance->CCR, DMA_CCR_CIRC))
1004879a:	687b      	ldr	r3, [r7, #4]
1004879c:	2280      	movs	r2, #128	@ 0x80
1004879e:	589b      	ldr	r3, [r3, r2]
100487a0:	681b      	ldr	r3, [r3, #0]
100487a2:	681b      	ldr	r3, [r3, #0]
100487a4:	2220      	movs	r2, #32
100487a6:	4013      	ands	r3, r2
100487a8:	d170      	bne.n	1004888c <HAL_UART_IRQHandler+0x430>
  __ASM volatile ("MRS %0, primask" : "=r" (result) );
100487aa:	f3ef 8310 	mrs	r3, PRIMASK
100487ae:	633b      	str	r3, [r7, #48]	@ 0x30
  return(result);
100487b0:	6b3b      	ldr	r3, [r7, #48]	@ 0x30
        {
          /* Disable PE and ERR (Frame error, noise error, overrun error) interrupts */
          ATOMIC_CLEAR_BIT(huart->Instance->CR1, USART_CR1_PEIE);
100487b2:	67bb      	str	r3, [r7, #120]	@ 0x78
100487b4:	2301      	movs	r3, #1
100487b6:	637b      	str	r3, [r7, #52]	@ 0x34
  __ASM volatile ("MSR primask, %0" : : "r" (priMask) : "memory");
100487b8:	6b7b      	ldr	r3, [r7, #52]	@ 0x34
100487ba:	f383 8810 	msr	PRIMASK, r3
}
100487be:	46c0      	nop			@ (mov r8, r8)
100487c0:	687b      	ldr	r3, [r7, #4]
100487c2:	681b      	ldr	r3, [r3, #0]
100487c4:	681a      	ldr	r2, [r3, #0]
100487c6:	687b      	ldr	r3, [r7, #4]
100487c8:	681b      	ldr	r3, [r3, #0]
100487ca:	49c4      	ldr	r1, [pc, #784]	@ (10048adc <HAL_UART_IRQHandler+0x680>)
100487cc:	400a      	ands	r2, r1
100487ce:	601a      	str	r2, [r3, #0]
100487d0:	6fbb      	ldr	r3, [r7, #120]	@ 0x78
100487d2:	63bb      	str	r3, [r7, #56]	@ 0x38
  __ASM volatile ("MSR primask, %0" : : "r" (priMask) : "memory");
100487d4:	6bbb      	ldr	r3, [r7, #56]	@ 0x38
100487d6:	f383 8810 	msr	PRIMASK, r3
}
100487da:	46c0      	nop			@ (mov r8, r8)
  __ASM volatile ("MRS %0, primask" : "=r" (result) );
100487dc:	f3ef 8310 	mrs	r3, PRIMASK
100487e0:	63fb      	str	r3, [r7, #60]	@ 0x3c
  return(result);
100487e2:	6bfb      	ldr	r3, [r7, #60]	@ 0x3c
          ATOMIC_CLEAR_BIT(huart->Instance->CR3, USART_CR3_EIE);
100487e4:	677b      	str	r3, [r7, #116]	@ 0x74
100487e6:	2301      	movs	r3, #1
100487e8:	643b      	str	r3, [r7, #64]	@ 0x40
  __ASM volatile ("MSR primask, %0" : : "r" (priMask) : "memory");
100487ea:	6c3b      	ldr	r3, [r7, #64]	@ 0x40
100487ec:	f383 8810 	msr	PRIMASK, r3
}
100487f0:	46c0      	nop			@ (mov r8, r8)
100487f2:	687b      	ldr	r3, [r7, #4]
100487f4:	681b      	ldr	r3, [r3, #0]
100487f6:	689a      	ldr	r2, [r3, #8]
100487f8:	687b      	ldr	r3, [r7, #4]
100487fa:	681b      	ldr	r3, [r3, #0]
100487fc:	2101      	movs	r1, #1
100487fe:	438a      	bics	r2, r1
10048800:	609a      	str	r2, [r3, #8]
10048802:	6f7b      	ldr	r3, [r7, #116]	@ 0x74
10048804:	647b      	str	r3, [r7, #68]	@ 0x44
  __ASM volatile ("MSR primask, %0" : : "r" (priMask) : "memory");
10048806:	6c7b      	ldr	r3, [r7, #68]	@ 0x44
10048808:	f383 8810 	msr	PRIMASK, r3
}
1004880c:	46c0      	nop			@ (mov r8, r8)
  __ASM volatile ("MRS %0, primask" : "=r" (result) );
1004880e:	f3ef 8310 	mrs	r3, PRIMASK
10048812:	64bb      	str	r3, [r7, #72]	@ 0x48
  return(result);
10048814:	6cbb      	ldr	r3, [r7, #72]	@ 0x48

          /* Disable the DMA transfer for the receiver request by resetting the DMAR bit
             in the UART CR3 register */
          ATOMIC_CLEAR_BIT(huart->Instance->CR3, USART_CR3_DMAR);
10048816:	673b      	str	r3, [r7, #112]	@ 0x70
10048818:	2301      	movs	r3, #1
1004881a:	64fb      	str	r3, [r7, #76]	@ 0x4c
  __ASM volatile ("MSR primask, %0" : : "r" (priMask) : "memory");
1004881c:	6cfb      	ldr	r3, [r7, #76]	@ 0x4c
1004881e:	f383 8810 	msr	PRIMASK, r3
}
10048822:	46c0      	nop			@ (mov r8, r8)
10048824:	687b      	ldr	r3, [r7, #4]
10048826:	681b      	ldr	r3, [r3, #0]
10048828:	689a      	ldr	r2, [r3, #8]
1004882a:	687b      	ldr	r3, [r7, #4]
1004882c:	681b      	ldr	r3, [r3, #0]
1004882e:	2140      	movs	r1, #64	@ 0x40
10048830:	438a      	bics	r2, r1
10048832:	609a      	str	r2, [r3, #8]
10048834:	6f3b      	ldr	r3, [r7, #112]	@ 0x70
10048836:	653b      	str	r3, [r7, #80]	@ 0x50
  __ASM volatile ("MSR primask, %0" : : "r" (priMask) : "memory");
10048838:	6d3b      	ldr	r3, [r7, #80]	@ 0x50
1004883a:	f383 8810 	msr	PRIMASK, r3
}
1004883e:	46c0      	nop			@ (mov r8, r8)

          /* At end of Rx process, restore huart->RxState to Ready */
          huart->RxState = HAL_UART_STATE_READY;
10048840:	687b      	ldr	r3, [r7, #4]
10048842:	228c      	movs	r2, #140	@ 0x8c
10048844:	2120      	movs	r1, #32
10048846:	5099      	str	r1, [r3, r2]
          huart->ReceptionType = HAL_UART_RECEPTION_STANDARD;
10048848:	687b      	ldr	r3, [r7, #4]
1004884a:	2200      	movs	r2, #0
1004884c:	66da      	str	r2, [r3, #108]	@ 0x6c
  __ASM volatile ("MRS %0, primask" : "=r" (result) );
1004884e:	f3ef 8310 	mrs	r3, PRIMASK
10048852:	657b      	str	r3, [r7, #84]	@ 0x54
  return(result);
10048854:	6d7b      	ldr	r3, [r7, #84]	@ 0x54

          ATOMIC_CLEAR_BIT(huart->Instance->CR1, USART_CR1_IDLEIE);
10048856:	66fb      	str	r3, [r7, #108]	@ 0x6c
10048858:	2301      	movs	r3, #1
1004885a:	65bb      	str	r3, [r7, #88]	@ 0x58
  __ASM volatile ("MSR primask, %0" : : "r" (priMask) : "memory");
1004885c:	6dbb      	ldr	r3, [r7, #88]	@ 0x58
1004885e:	f383 8810 	msr	PRIMASK, r3
}
10048862:	46c0      	nop			@ (mov r8, r8)
10048864:	687b      	ldr	r3, [r7, #4]
10048866:	681b      	ldr	r3, [r3, #0]
10048868:	681a      	ldr	r2, [r3, #0]
1004886a:	687b      	ldr	r3, [r7, #4]
1004886c:	681b      	ldr	r3, [r3, #0]
1004886e:	2110      	movs	r1, #16
10048870:	438a      	bics	r2, r1
10048872:	601a      	str	r2, [r3, #0]
10048874:	6efb      	ldr	r3, [r7, #108]	@ 0x6c
10048876:	65fb      	str	r3, [r7, #92]	@ 0x5c
  __ASM volatile ("MSR primask, %0" : : "r" (priMask) : "memory");
10048878:	6dfb      	ldr	r3, [r7, #92]	@ 0x5c
1004887a:	f383 8810 	msr	PRIMASK, r3
}
1004887e:	46c0      	nop			@ (mov r8, r8)

          /* Last bytes received, so no need as the abort is immediate */
          (void)HAL_DMA_Abort(huart->hdmarx);
10048880:	687b      	ldr	r3, [r7, #4]
10048882:	2280      	movs	r2, #128	@ 0x80
10048884:	589b      	ldr	r3, [r3, r2]
10048886:	0018      	movs	r0, r3
10048888:	f7fc f974 	bl	10044b74 <HAL_DMA_Abort>
        }

        /* Initialize type of RxEvent that correspond to RxEvent callback execution;
           In this case, Rx Event type is Idle Event */
        huart->RxEventType = HAL_UART_RXEVENT_IDLE;
1004888c:	687b      	ldr	r3, [r7, #4]
1004888e:	2202      	movs	r2, #2
10048890:	671a      	str	r2, [r3, #112]	@ 0x70
#if (USE_HAL_UART_REGISTER_CALLBACKS == 1)
        /*Call registered Rx Event callback*/
        huart->RxEventCallback(huart, (huart->RxXferSize - huart->RxXferCount));
#else
        /*Call legacy weak Rx Event callback*/
        HAL_UARTEx_RxEventCallback(huart, (huart->RxXferSize - huart->RxXferCount));
10048892:	687b      	ldr	r3, [r7, #4]
10048894:	225c      	movs	r2, #92	@ 0x5c
10048896:	5a9a      	ldrh	r2, [r3, r2]
10048898:	687b      	ldr	r3, [r7, #4]
1004889a:	215e      	movs	r1, #94	@ 0x5e
1004889c:	5a5b      	ldrh	r3, [r3, r1]
1004889e:	b29b      	uxth	r3, r3
100488a0:	1ad3      	subs	r3, r2, r3
100488a2:	b29a      	uxth	r2, r3
100488a4:	687b      	ldr	r3, [r7, #4]
100488a6:	0011      	movs	r1, r2
100488a8:	0018      	movs	r0, r3
100488aa:	f000 f92d 	bl	10048b08 <HAL_UARTEx_RxEventCallback>
            HAL_UARTEx_RxEventCallback(huart, huart->RxXferSize);
#endif /* (USE_HAL_UART_REGISTER_CALLBACKS) */
          }
        }
      }
      return;
100488ae:	e10c      	b.n	10048aca <HAL_UART_IRQHandler+0x66e>
        if (nb_remaining_rx_data == huart->RxXferSize)
100488b0:	687b      	ldr	r3, [r7, #4]
100488b2:	225c      	movs	r2, #92	@ 0x5c
100488b4:	5a9b      	ldrh	r3, [r3, r2]
100488b6:	227e      	movs	r2, #126	@ 0x7e
100488b8:	18ba      	adds	r2, r7, r2
100488ba:	8812      	ldrh	r2, [r2, #0]
100488bc:	429a      	cmp	r2, r3
100488be:	d000      	beq.n	100488c2 <HAL_UART_IRQHandler+0x466>
100488c0:	e103      	b.n	10048aca <HAL_UART_IRQHandler+0x66e>
          if (HAL_IS_BIT_SET(huart->hdmarx->Instance->CCR, DMA_CCR_CIRC))
100488c2:	687b      	ldr	r3, [r7, #4]
100488c4:	2280      	movs	r2, #128	@ 0x80
100488c6:	589b      	ldr	r3, [r3, r2]
100488c8:	681b      	ldr	r3, [r3, #0]
100488ca:	681b      	ldr	r3, [r3, #0]
100488cc:	2220      	movs	r2, #32
100488ce:	4013      	ands	r3, r2
100488d0:	2b20      	cmp	r3, #32
100488d2:	d000      	beq.n	100488d6 <HAL_UART_IRQHandler+0x47a>
100488d4:	e0f9      	b.n	10048aca <HAL_UART_IRQHandler+0x66e>
            huart->RxEventType = HAL_UART_RXEVENT_IDLE;
100488d6:	687b      	ldr	r3, [r7, #4]
100488d8:	2202      	movs	r2, #2
100488da:	671a      	str	r2, [r3, #112]	@ 0x70
            HAL_UARTEx_RxEventCallback(huart, huart->RxXferSize);
100488dc:	687b      	ldr	r3, [r7, #4]
100488de:	225c      	movs	r2, #92	@ 0x5c
100488e0:	5a9a      	ldrh	r2, [r3, r2]
100488e2:	687b      	ldr	r3, [r7, #4]
100488e4:	0011      	movs	r1, r2
100488e6:	0018      	movs	r0, r3
100488e8:	f000 f90e 	bl	10048b08 <HAL_UARTEx_RxEventCallback>
      return;
100488ec:	e0ed      	b.n	10048aca <HAL_UART_IRQHandler+0x66e>
    {
#endif /* HAL_DMA_MODULE_ENABLED */
      /* DMA mode not enabled */
      /* Check received length : If all expected data are received, do nothing.
         Otherwise, if at least one data has already been received, IDLE event is to be notified to user */
      uint16_t nb_rx_data = huart->RxXferSize - huart->RxXferCount;
100488ee:	687b      	ldr	r3, [r7, #4]
100488f0:	225c      	movs	r2, #92	@ 0x5c
100488f2:	5a99      	ldrh	r1, [r3, r2]
100488f4:	687b      	ldr	r3, [r7, #4]
100488f6:	225e      	movs	r2, #94	@ 0x5e
100488f8:	5a9b      	ldrh	r3, [r3, r2]
100488fa:	b29a      	uxth	r2, r3
100488fc:	208e      	movs	r0, #142	@ 0x8e
100488fe:	183b      	adds	r3, r7, r0
10048900:	1a8a      	subs	r2, r1, r2
10048902:	801a      	strh	r2, [r3, #0]
      if ((huart->RxXferCount > 0U)
10048904:	687b      	ldr	r3, [r7, #4]
10048906:	225e      	movs	r2, #94	@ 0x5e
10048908:	5a9b      	ldrh	r3, [r3, r2]
1004890a:	b29b      	uxth	r3, r3
1004890c:	2b00      	cmp	r3, #0
1004890e:	d100      	bne.n	10048912 <HAL_UART_IRQHandler+0x4b6>
10048910:	e0dd      	b.n	10048ace <HAL_UART_IRQHandler+0x672>
          && (nb_rx_data > 0U))
10048912:	183b      	adds	r3, r7, r0
10048914:	881b      	ldrh	r3, [r3, #0]
10048916:	2b00      	cmp	r3, #0
10048918:	d100      	bne.n	1004891c <HAL_UART_IRQHandler+0x4c0>
1004891a:	e0d8      	b.n	10048ace <HAL_UART_IRQHandler+0x672>
  __ASM volatile ("MRS %0, primask" : "=r" (result) );
1004891c:	f3ef 8310 	mrs	r3, PRIMASK
10048920:	60fb      	str	r3, [r7, #12]
  return(result);
10048922:	68fb      	ldr	r3, [r7, #12]
      {
        /* Disable the UART Parity Error Interrupt and RXNE interrupts */
        ATOMIC_CLEAR_BIT(huart->Instance->CR1, (USART_CR1_RXNEIE_RXFNEIE | USART_CR1_PEIE));
10048924:	2488      	movs	r4, #136	@ 0x88
10048926:	193a      	adds	r2, r7, r4
10048928:	6013      	str	r3, [r2, #0]
1004892a:	2301      	movs	r3, #1
1004892c:	613b      	str	r3, [r7, #16]
  __ASM volatile ("MSR primask, %0" : : "r" (priMask) : "memory");
1004892e:	693b      	ldr	r3, [r7, #16]
10048930:	f383 8810 	msr	PRIMASK, r3
}
10048934:	46c0      	nop			@ (mov r8, r8)
10048936:	687b      	ldr	r3, [r7, #4]
10048938:	681b      	ldr	r3, [r3, #0]
1004893a:	681a      	ldr	r2, [r3, #0]
1004893c:	687b      	ldr	r3, [r7, #4]
1004893e:	681b      	ldr	r3, [r3, #0]
10048940:	4967      	ldr	r1, [pc, #412]	@ (10048ae0 <HAL_UART_IRQHandler+0x684>)
10048942:	400a      	ands	r2, r1
10048944:	601a      	str	r2, [r3, #0]
10048946:	193b      	adds	r3, r7, r4
10048948:	681b      	ldr	r3, [r3, #0]
1004894a:	617b      	str	r3, [r7, #20]
  __ASM volatile ("MSR primask, %0" : : "r" (priMask) : "memory");
1004894c:	697b      	ldr	r3, [r7, #20]
1004894e:	f383 8810 	msr	PRIMASK, r3
}
10048952:	46c0      	nop			@ (mov r8, r8)
  __ASM volatile ("MRS %0, primask" : "=r" (result) );
10048954:	f3ef 8310 	mrs	r3, PRIMASK
10048958:	61bb      	str	r3, [r7, #24]
  return(result);
1004895a:	69bb      	ldr	r3, [r7, #24]

        /* Disable the UART Error Interrupt:(Frame error, noise error, overrun error) and RX FIFO Threshold interrupt */
        ATOMIC_CLEAR_BIT(huart->Instance->CR3, (USART_CR3_EIE | USART_CR3_RXFTIE));
1004895c:	2484      	movs	r4, #132	@ 0x84
1004895e:	193a      	adds	r2, r7, r4
10048960:	6013      	str	r3, [r2, #0]
10048962:	2301      	movs	r3, #1
10048964:	61fb      	str	r3, [r7, #28]
  __ASM volatile ("MSR primask, %0" : : "r" (priMask) : "memory");
10048966:	69fb      	ldr	r3, [r7, #28]
10048968:	f383 8810 	msr	PRIMASK, r3
}
1004896c:	46c0      	nop			@ (mov r8, r8)
1004896e:	687b      	ldr	r3, [r7, #4]
10048970:	681b      	ldr	r3, [r3, #0]
10048972:	689a      	ldr	r2, [r3, #8]
10048974:	687b      	ldr	r3, [r7, #4]
10048976:	681b      	ldr	r3, [r3, #0]
10048978:	495a      	ldr	r1, [pc, #360]	@ (10048ae4 <HAL_UART_IRQHandler+0x688>)
1004897a:	400a      	ands	r2, r1
1004897c:	609a      	str	r2, [r3, #8]
1004897e:	193b      	adds	r3, r7, r4
10048980:	681b      	ldr	r3, [r3, #0]
10048982:	623b      	str	r3, [r7, #32]
  __ASM volatile ("MSR primask, %0" : : "r" (priMask) : "memory");
10048984:	6a3b      	ldr	r3, [r7, #32]
10048986:	f383 8810 	msr	PRIMASK, r3
}
1004898a:	46c0      	nop			@ (mov r8, r8)

        /* Rx process is completed, restore huart->RxState to Ready */
        huart->RxState = HAL_UART_STATE_READY;
1004898c:	687b      	ldr	r3, [r7, #4]
1004898e:	228c      	movs	r2, #140	@ 0x8c
10048990:	2120      	movs	r1, #32
10048992:	5099      	str	r1, [r3, r2]
        huart->ReceptionType = HAL_UART_RECEPTION_STANDARD;
10048994:	687b      	ldr	r3, [r7, #4]
10048996:	2200      	movs	r2, #0
10048998:	66da      	str	r2, [r3, #108]	@ 0x6c

        /* Clear RxISR function pointer */
        huart->RxISR = NULL;
1004899a:	687b      	ldr	r3, [r7, #4]
1004899c:	2200      	movs	r2, #0
1004899e:	675a      	str	r2, [r3, #116]	@ 0x74
  __ASM volatile ("MRS %0, primask" : "=r" (result) );
100489a0:	f3ef 8310 	mrs	r3, PRIMASK
100489a4:	627b      	str	r3, [r7, #36]	@ 0x24
  return(result);
100489a6:	6a7b      	ldr	r3, [r7, #36]	@ 0x24

        ATOMIC_CLEAR_BIT(huart->Instance->CR1, USART_CR1_IDLEIE);
100489a8:	2480      	movs	r4, #128	@ 0x80
100489aa:	193a      	adds	r2, r7, r4
100489ac:	6013      	str	r3, [r2, #0]
100489ae:	2301      	movs	r3, #1
100489b0:	62bb      	str	r3, [r7, #40]	@ 0x28
  __ASM volatile ("MSR primask, %0" : : "r" (priMask) : "memory");
100489b2:	6abb      	ldr	r3, [r7, #40]	@ 0x28
100489b4:	f383 8810 	msr	PRIMASK, r3
}
100489b8:	46c0      	nop			@ (mov r8, r8)
100489ba:	687b      	ldr	r3, [r7, #4]
100489bc:	681b      	ldr	r3, [r3, #0]
100489be:	681a      	ldr	r2, [r3, #0]
100489c0:	687b      	ldr	r3, [r7, #4]
100489c2:	681b      	ldr	r3, [r3, #0]
100489c4:	2110      	movs	r1, #16
100489c6:	438a      	bics	r2, r1
100489c8:	601a      	str	r2, [r3, #0]
100489ca:	193b      	adds	r3, r7, r4
100489cc:	681b      	ldr	r3, [r3, #0]
100489ce:	62fb      	str	r3, [r7, #44]	@ 0x2c
  __ASM volatile ("MSR primask, %0" : : "r" (priMask) : "memory");
100489d0:	6afb      	ldr	r3, [r7, #44]	@ 0x2c
100489d2:	f383 8810 	msr	PRIMASK, r3
}
100489d6:	46c0      	nop			@ (mov r8, r8)

        /* Initialize type of RxEvent that correspond to RxEvent callback execution;
           In this case, Rx Event type is Idle Event */
        huart->RxEventType = HAL_UART_RXEVENT_IDLE;
100489d8:	687b      	ldr	r3, [r7, #4]
100489da:	2202      	movs	r2, #2
100489dc:	671a      	str	r2, [r3, #112]	@ 0x70
#if (USE_HAL_UART_REGISTER_CALLBACKS == 1)
        /*Call registered Rx complete callback*/
        huart->RxEventCallback(huart, nb_rx_data);
#else
        /*Call legacy weak Rx Event callback*/
        HAL_UARTEx_RxEventCallback(huart, nb_rx_data);
100489de:	183b      	adds	r3, r7, r0
100489e0:	881a      	ldrh	r2, [r3, #0]
100489e2:	687b      	ldr	r3, [r7, #4]
100489e4:	0011      	movs	r1, r2
100489e6:	0018      	movs	r0, r3
100489e8:	f000 f88e 	bl	10048b08 <HAL_UARTEx_RxEventCallback>
#endif /* (USE_HAL_UART_REGISTER_CALLBACKS) */
      }
      return;
100489ec:	e06f      	b.n	10048ace <HAL_UART_IRQHandler+0x672>
    }
#endif /* HAL_DMA_MODULE_ENABLED */
  }

  /* UART wakeup from Stop mode interrupt occurred ---------------------------*/
  if (((isrflags & USART_ISR_WUF) != 0U) && ((cr3its & USART_CR3_WUFIE) != 0U))
100489ee:	23a4      	movs	r3, #164	@ 0xa4
100489f0:	18fb      	adds	r3, r7, r3
100489f2:	681a      	ldr	r2, [r3, #0]
100489f4:	2380      	movs	r3, #128	@ 0x80
100489f6:	035b      	lsls	r3, r3, #13
100489f8:	4013      	ands	r3, r2
100489fa:	d010      	beq.n	10048a1e <HAL_UART_IRQHandler+0x5c2>
100489fc:	239c      	movs	r3, #156	@ 0x9c
100489fe:	18fb      	adds	r3, r7, r3
10048a00:	681a      	ldr	r2, [r3, #0]
10048a02:	2380      	movs	r3, #128	@ 0x80
10048a04:	03db      	lsls	r3, r3, #15
10048a06:	4013      	ands	r3, r2
10048a08:	d009      	beq.n	10048a1e <HAL_UART_IRQHandler+0x5c2>
  {
    __HAL_UART_CLEAR_FLAG(huart, UART_CLEAR_WUF);
10048a0a:	687b      	ldr	r3, [r7, #4]
10048a0c:	681b      	ldr	r3, [r3, #0]
10048a0e:	2280      	movs	r2, #128	@ 0x80
10048a10:	0352      	lsls	r2, r2, #13
10048a12:	621a      	str	r2, [r3, #32]
#if (USE_HAL_UART_REGISTER_CALLBACKS == 1)
    /* Call registered Wakeup Callback */
    huart->WakeupCallback(huart);
#else
    /* Call legacy weak Wakeup Callback */
    HAL_UARTEx_WakeupCallback(huart);
10048a14:	687b      	ldr	r3, [r7, #4]
10048a16:	0018      	movs	r0, r3
10048a18:	f000 fc59 	bl	100492ce <HAL_UARTEx_WakeupCallback>
#endif /* USE_HAL_UART_REGISTER_CALLBACKS */
    return;
10048a1c:	e05a      	b.n	10048ad4 <HAL_UART_IRQHandler+0x678>
  }

  /* UART in mode Transmitter ------------------------------------------------*/
  if (((isrflags & USART_ISR_TXE_TXFNF) != 0U)
10048a1e:	23a4      	movs	r3, #164	@ 0xa4
10048a20:	18fb      	adds	r3, r7, r3
10048a22:	681b      	ldr	r3, [r3, #0]
10048a24:	2280      	movs	r2, #128	@ 0x80
10048a26:	4013      	ands	r3, r2
10048a28:	d016      	beq.n	10048a58 <HAL_UART_IRQHandler+0x5fc>
      && (((cr1its & USART_CR1_TXEIE_TXFNFIE) != 0U)
10048a2a:	23a0      	movs	r3, #160	@ 0xa0
10048a2c:	18fb      	adds	r3, r7, r3
10048a2e:	681b      	ldr	r3, [r3, #0]
10048a30:	2280      	movs	r2, #128	@ 0x80
10048a32:	4013      	ands	r3, r2
10048a34:	d106      	bne.n	10048a44 <HAL_UART_IRQHandler+0x5e8>
          || ((cr3its & USART_CR3_TXFTIE) != 0U)))
10048a36:	239c      	movs	r3, #156	@ 0x9c
10048a38:	18fb      	adds	r3, r7, r3
10048a3a:	681a      	ldr	r2, [r3, #0]
10048a3c:	2380      	movs	r3, #128	@ 0x80
10048a3e:	041b      	lsls	r3, r3, #16
10048a40:	4013      	ands	r3, r2
10048a42:	d009      	beq.n	10048a58 <HAL_UART_IRQHandler+0x5fc>
  {
    if (huart->TxISR != NULL)
10048a44:	687b      	ldr	r3, [r7, #4]
10048a46:	6f9b      	ldr	r3, [r3, #120]	@ 0x78
10048a48:	2b00      	cmp	r3, #0
10048a4a:	d042      	beq.n	10048ad2 <HAL_UART_IRQHandler+0x676>
    {
      huart->TxISR(huart);
10048a4c:	687b      	ldr	r3, [r7, #4]
10048a4e:	6f9b      	ldr	r3, [r3, #120]	@ 0x78
10048a50:	687a      	ldr	r2, [r7, #4]
10048a52:	0010      	movs	r0, r2
10048a54:	4798      	blx	r3
    }
    return;
10048a56:	e03c      	b.n	10048ad2 <HAL_UART_IRQHandler+0x676>
  }

  /* UART in mode Transmitter (transmission end) -----------------------------*/
  if (((isrflags & USART_ISR_TC) != 0U) && ((cr1its & USART_CR1_TCIE) != 0U))
10048a58:	23a4      	movs	r3, #164	@ 0xa4
10048a5a:	18fb      	adds	r3, r7, r3
10048a5c:	681b      	ldr	r3, [r3, #0]
10048a5e:	2240      	movs	r2, #64	@ 0x40
10048a60:	4013      	ands	r3, r2
10048a62:	d00a      	beq.n	10048a7a <HAL_UART_IRQHandler+0x61e>
10048a64:	23a0      	movs	r3, #160	@ 0xa0
10048a66:	18fb      	adds	r3, r7, r3
10048a68:	681b      	ldr	r3, [r3, #0]
10048a6a:	2240      	movs	r2, #64	@ 0x40
10048a6c:	4013      	ands	r3, r2
10048a6e:	d004      	beq.n	10048a7a <HAL_UART_IRQHandler+0x61e>
  {
    UART_EndTransmit_IT(huart);
10048a70:	687b      	ldr	r3, [r7, #4]
10048a72:	0018      	movs	r0, r3
10048a74:	f000 fbff 	bl	10049276 <UART_EndTransmit_IT>
    return;
10048a78:	e02c      	b.n	10048ad4 <HAL_UART_IRQHandler+0x678>
  }

  /* UART TX Fifo Empty occurred ----------------------------------------------*/
  if (((isrflags & USART_ISR_TXFE) != 0U) && ((cr1its & USART_CR1_TXFEIE) != 0U))
10048a7a:	23a4      	movs	r3, #164	@ 0xa4
10048a7c:	18fb      	adds	r3, r7, r3
10048a7e:	681a      	ldr	r2, [r3, #0]
10048a80:	2380      	movs	r3, #128	@ 0x80
10048a82:	041b      	lsls	r3, r3, #16
10048a84:	4013      	ands	r3, r2
10048a86:	d00b      	beq.n	10048aa0 <HAL_UART_IRQHandler+0x644>
10048a88:	23a0      	movs	r3, #160	@ 0xa0
10048a8a:	18fb      	adds	r3, r7, r3
10048a8c:	681a      	ldr	r2, [r3, #0]
10048a8e:	2380      	movs	r3, #128	@ 0x80
10048a90:	05db      	lsls	r3, r3, #23
10048a92:	4013      	ands	r3, r2
10048a94:	d004      	beq.n	10048aa0 <HAL_UART_IRQHandler+0x644>
#if (USE_HAL_UART_REGISTER_CALLBACKS == 1)
    /* Call registered Tx Fifo Empty Callback */
    huart->TxFifoEmptyCallback(huart);
#else
    /* Call legacy weak Tx Fifo Empty Callback */
    HAL_UARTEx_TxFifoEmptyCallback(huart);
10048a96:	687b      	ldr	r3, [r7, #4]
10048a98:	0018      	movs	r0, r3
10048a9a:	f000 fc28 	bl	100492ee <HAL_UARTEx_TxFifoEmptyCallback>
#endif /* USE_HAL_UART_REGISTER_CALLBACKS */
    return;
10048a9e:	e019      	b.n	10048ad4 <HAL_UART_IRQHandler+0x678>
  }

  /* UART RX Fifo Full occurred ----------------------------------------------*/
  if (((isrflags & USART_ISR_RXFF) != 0U) && ((cr1its & USART_CR1_RXFFIE) != 0U))
10048aa0:	23a4      	movs	r3, #164	@ 0xa4
10048aa2:	18fb      	adds	r3, r7, r3
10048aa4:	681a      	ldr	r2, [r3, #0]
10048aa6:	2380      	movs	r3, #128	@ 0x80
10048aa8:	045b      	lsls	r3, r3, #17
10048aaa:	4013      	ands	r3, r2
10048aac:	d012      	beq.n	10048ad4 <HAL_UART_IRQHandler+0x678>
10048aae:	23a0      	movs	r3, #160	@ 0xa0
10048ab0:	18fb      	adds	r3, r7, r3
10048ab2:	681b      	ldr	r3, [r3, #0]
10048ab4:	2b00      	cmp	r3, #0
10048ab6:	da0d      	bge.n	10048ad4 <HAL_UART_IRQHandler+0x678>
#if (USE_HAL_UART_REGISTER_CALLBACKS == 1)
    /* Call registered Rx Fifo Full Callback */
    huart->RxFifoFullCallback(huart);
#else
    /* Call legacy weak Rx Fifo Full Callback */
    HAL_UARTEx_RxFifoFullCallback(huart);
10048ab8:	687b      	ldr	r3, [r7, #4]
10048aba:	0018      	movs	r0, r3
10048abc:	f000 fc0f 	bl	100492de <HAL_UARTEx_RxFifoFullCallback>
#endif /* USE_HAL_UART_REGISTER_CALLBACKS */
    return;
10048ac0:	e008      	b.n	10048ad4 <HAL_UART_IRQHandler+0x678>
      return;
10048ac2:	46c0      	nop			@ (mov r8, r8)
10048ac4:	e006      	b.n	10048ad4 <HAL_UART_IRQHandler+0x678>
    return;
10048ac6:	46c0      	nop			@ (mov r8, r8)
10048ac8:	e004      	b.n	10048ad4 <HAL_UART_IRQHandler+0x678>
      return;
10048aca:	46c0      	nop			@ (mov r8, r8)
10048acc:	e002      	b.n	10048ad4 <HAL_UART_IRQHandler+0x678>
      return;
10048ace:	46c0      	nop			@ (mov r8, r8)
10048ad0:	e000      	b.n	10048ad4 <HAL_UART_IRQHandler+0x678>
    return;
10048ad2:	46c0      	nop			@ (mov r8, r8)
  }
}
10048ad4:	46bd      	mov	sp, r7
10048ad6:	b02a      	add	sp, #168	@ 0xa8
10048ad8:	bdb0      	pop	{r4, r5, r7, pc}
10048ada:	46c0      	nop			@ (mov r8, r8)
10048adc:	fffffeff 	.word	0xfffffeff
10048ae0:	fffffedf 	.word	0xfffffedf
10048ae4:	effffffe 	.word	0xeffffffe

10048ae8 <HAL_UART_TxCpltCallback>:
  * @brief Tx Transfer completed callback.
  * @param huart UART handle.
  * @retval None
  */
__weak void HAL_UART_TxCpltCallback(UART_HandleTypeDef *huart)
{
10048ae8:	b580      	push	{r7, lr}
10048aea:	b082      	sub	sp, #8
10048aec:	af00      	add	r7, sp, #0
10048aee:	6078      	str	r0, [r7, #4]
  UNUSED(huart);

  /* NOTE : This function should not be modified, when the callback is needed,
            the HAL_UART_TxCpltCallback can be implemented in the user file.
   */
}
10048af0:	46c0      	nop			@ (mov r8, r8)
10048af2:	46bd      	mov	sp, r7
10048af4:	b002      	add	sp, #8
10048af6:	bd80      	pop	{r7, pc}

10048af8 <HAL_UART_ErrorCallback>:
  * @brief  UART error callback.
  * @param  huart UART handle.
  * @retval None
  */
__weak void HAL_UART_ErrorCallback(UART_HandleTypeDef *huart)
{
10048af8:	b580      	push	{r7, lr}
10048afa:	b082      	sub	sp, #8
10048afc:	af00      	add	r7, sp, #0
10048afe:	6078      	str	r0, [r7, #4]
  UNUSED(huart);

  /* NOTE : This function should not be modified, when the callback is needed,
            the HAL_UART_ErrorCallback can be implemented in the user file.
   */
}
10048b00:	46c0      	nop			@ (mov r8, r8)
10048b02:	46bd      	mov	sp, r7
10048b04:	b002      	add	sp, #8
10048b06:	bd80      	pop	{r7, pc}

10048b08 <HAL_UARTEx_RxEventCallback>:
  * @param  Size  Number of data available in application reception buffer (indicates a position in
  *               reception buffer until which, data are available)
  * @retval None
  */
__weak void HAL_UARTEx_RxEventCallback(UART_HandleTypeDef *huart, uint16_t Size)
{
10048b08:	b580      	push	{r7, lr}
10048b0a:	b082      	sub	sp, #8
10048b0c:	af00      	add	r7, sp, #0
10048b0e:	6078      	str	r0, [r7, #4]
10048b10:	000a      	movs	r2, r1
10048b12:	1cbb      	adds	r3, r7, #2
10048b14:	801a      	strh	r2, [r3, #0]
  UNUSED(Size);

  /* NOTE : This function should not be modified, when the callback is needed,
            the HAL_UARTEx_RxEventCallback can be implemented in the user file.
   */
}
10048b16:	46c0      	nop			@ (mov r8, r8)
10048b18:	46bd      	mov	sp, r7
10048b1a:	b002      	add	sp, #8
10048b1c:	bd80      	pop	{r7, pc}
	...

10048b20 <UART_SetConfig>:
  * @brief Configure the UART peripheral.
  * @param huart UART handle.
  * @retval HAL status
  */
HAL_StatusTypeDef UART_SetConfig(UART_HandleTypeDef *huart)
{
10048b20:	b5b0      	push	{r4, r5, r7, lr}
10048b22:	b090      	sub	sp, #64	@ 0x40
10048b24:	af00      	add	r7, sp, #0
10048b26:	6278      	str	r0, [r7, #36]	@ 0x24
  uint32_t tmpreg;
  uint16_t brrtemp;
  uint32_t usartdiv;
  HAL_StatusTypeDef ret               = HAL_OK;
10048b28:	231b      	movs	r3, #27
10048b2a:	2220      	movs	r2, #32
10048b2c:	189b      	adds	r3, r3, r2
10048b2e:	19db      	adds	r3, r3, r7
10048b30:	2200      	movs	r2, #0
10048b32:	701a      	strb	r2, [r3, #0]
  *  the UART Word Length, Parity, Mode and oversampling:
  *  set the M bits according to huart->Init.WordLength value
  *  set PCE and PS bits according to huart->Init.Parity value
  *  set TE and RE bits according to huart->Init.Mode value
  *  set OVER8 bit according to huart->Init.OverSampling value */
  tmpreg = (uint32_t)huart->Init.WordLength | huart->Init.Parity | huart->Init.Mode | huart->Init.OverSampling ;
10048b34:	6a7b      	ldr	r3, [r7, #36]	@ 0x24
10048b36:	689a      	ldr	r2, [r3, #8]
10048b38:	6a7b      	ldr	r3, [r7, #36]	@ 0x24
10048b3a:	691b      	ldr	r3, [r3, #16]
10048b3c:	431a      	orrs	r2, r3
10048b3e:	6a7b      	ldr	r3, [r7, #36]	@ 0x24
10048b40:	695b      	ldr	r3, [r3, #20]
10048b42:	431a      	orrs	r2, r3
10048b44:	6a7b      	ldr	r3, [r7, #36]	@ 0x24
10048b46:	69db      	ldr	r3, [r3, #28]
10048b48:	4313      	orrs	r3, r2
10048b4a:	63fb      	str	r3, [r7, #60]	@ 0x3c
  MODIFY_REG(huart->Instance->CR1, USART_CR1_FIELDS, tmpreg);
10048b4c:	6a7b      	ldr	r3, [r7, #36]	@ 0x24
10048b4e:	681b      	ldr	r3, [r3, #0]
10048b50:	681b      	ldr	r3, [r3, #0]
10048b52:	4aa1      	ldr	r2, [pc, #644]	@ (10048dd8 <UART_SetConfig+0x2b8>)
10048b54:	4013      	ands	r3, r2
10048b56:	0019      	movs	r1, r3
10048b58:	6a7b      	ldr	r3, [r7, #36]	@ 0x24
10048b5a:	681a      	ldr	r2, [r3, #0]
10048b5c:	6bfb      	ldr	r3, [r7, #60]	@ 0x3c
10048b5e:	430b      	orrs	r3, r1
10048b60:	6013      	str	r3, [r2, #0]

  /*-------------------------- USART CR2 Configuration -----------------------*/
  /* Configure the UART Stop Bits: Set STOP[13:12] bits according
  * to huart->Init.StopBits value */
  MODIFY_REG(huart->Instance->CR2, USART_CR2_STOP, huart->Init.StopBits);
10048b62:	6a7b      	ldr	r3, [r7, #36]	@ 0x24
10048b64:	681b      	ldr	r3, [r3, #0]
10048b66:	685b      	ldr	r3, [r3, #4]
10048b68:	4a9c      	ldr	r2, [pc, #624]	@ (10048ddc <UART_SetConfig+0x2bc>)
10048b6a:	4013      	ands	r3, r2
10048b6c:	0018      	movs	r0, r3
10048b6e:	6a7b      	ldr	r3, [r7, #36]	@ 0x24
10048b70:	68d9      	ldr	r1, [r3, #12]
10048b72:	6a7b      	ldr	r3, [r7, #36]	@ 0x24
10048b74:	681a      	ldr	r2, [r3, #0]
10048b76:	0003      	movs	r3, r0
10048b78:	430b      	orrs	r3, r1
10048b7a:	6053      	str	r3, [r2, #4]
  /* Configure
  * - UART HardWare Flow Control: set CTSE and RTSE bits according
  *   to huart->Init.HwFlowCtl value
  * - one-bit sampling method versus three samples' majority rule according
  *   to huart->Init.OneBitSampling (not applicable to LPUART) */
  tmpreg = (uint32_t)huart->Init.HwFlowCtl;
10048b7c:	6a7b      	ldr	r3, [r7, #36]	@ 0x24
10048b7e:	699b      	ldr	r3, [r3, #24]
10048b80:	63fb      	str	r3, [r7, #60]	@ 0x3c

  if (!(UART_INSTANCE_LOWPOWER(huart)))
10048b82:	6a7b      	ldr	r3, [r7, #36]	@ 0x24
10048b84:	681b      	ldr	r3, [r3, #0]
10048b86:	4a96      	ldr	r2, [pc, #600]	@ (10048de0 <UART_SetConfig+0x2c0>)
10048b88:	4293      	cmp	r3, r2
10048b8a:	d004      	beq.n	10048b96 <UART_SetConfig+0x76>
  {
    tmpreg |= huart->Init.OneBitSampling;
10048b8c:	6a7b      	ldr	r3, [r7, #36]	@ 0x24
10048b8e:	6a1b      	ldr	r3, [r3, #32]
10048b90:	6bfa      	ldr	r2, [r7, #60]	@ 0x3c
10048b92:	4313      	orrs	r3, r2
10048b94:	63fb      	str	r3, [r7, #60]	@ 0x3c
  }
  MODIFY_REG(huart->Instance->CR3, USART_CR3_FIELDS, tmpreg);
10048b96:	6a7b      	ldr	r3, [r7, #36]	@ 0x24
10048b98:	681b      	ldr	r3, [r3, #0]
10048b9a:	689b      	ldr	r3, [r3, #8]
10048b9c:	4a91      	ldr	r2, [pc, #580]	@ (10048de4 <UART_SetConfig+0x2c4>)
10048b9e:	4013      	ands	r3, r2
10048ba0:	0019      	movs	r1, r3
10048ba2:	6a7b      	ldr	r3, [r7, #36]	@ 0x24
10048ba4:	681a      	ldr	r2, [r3, #0]
10048ba6:	6bfb      	ldr	r3, [r7, #60]	@ 0x3c
10048ba8:	430b      	orrs	r3, r1
10048baa:	6093      	str	r3, [r2, #8]

  /*-------------------------- USART PRESC Configuration -----------------------*/
  /* Configure
  * - UART Clock Prescaler : set PRESCALER according to huart->Init.ClockPrescaler value */
  MODIFY_REG(huart->Instance->PRESC, USART_PRESC_PRESCALER, huart->Init.ClockPrescaler);
10048bac:	6a7b      	ldr	r3, [r7, #36]	@ 0x24
10048bae:	681b      	ldr	r3, [r3, #0]
10048bb0:	6adb      	ldr	r3, [r3, #44]	@ 0x2c
10048bb2:	220f      	movs	r2, #15
10048bb4:	4393      	bics	r3, r2
10048bb6:	0018      	movs	r0, r3
10048bb8:	6a7b      	ldr	r3, [r7, #36]	@ 0x24
10048bba:	6a59      	ldr	r1, [r3, #36]	@ 0x24
10048bbc:	6a7b      	ldr	r3, [r7, #36]	@ 0x24
10048bbe:	681a      	ldr	r2, [r3, #0]
10048bc0:	0003      	movs	r3, r0
10048bc2:	430b      	orrs	r3, r1
10048bc4:	62d3      	str	r3, [r2, #44]	@ 0x2c

  /*-------------------------- USART BRR Configuration -----------------------*/
  /* Check LPUART instance */
  if (UART_INSTANCE_LOWPOWER(huart))
10048bc6:	6a7b      	ldr	r3, [r7, #36]	@ 0x24
10048bc8:	681b      	ldr	r3, [r3, #0]
10048bca:	4a85      	ldr	r2, [pc, #532]	@ (10048de0 <UART_SetConfig+0x2c0>)
10048bcc:	4293      	cmp	r3, r2
10048bce:	d16d      	bne.n	10048cac <UART_SetConfig+0x18c>
  {
    /* Retrieve frequency clock */
    pclk = HAL_RCCEx_GetPeriphCLKFreq(RCC_PERIPHCLK_LPUART1);
10048bd0:	2010      	movs	r0, #16
10048bd2:	f7fe f975 	bl	10046ec0 <HAL_RCCEx_GetPeriphCLKFreq>
10048bd6:	0003      	movs	r3, r0
10048bd8:	637b      	str	r3, [r7, #52]	@ 0x34

    /* If proper clock source reported */
    if (pclk != 0U)
10048bda:	6b7b      	ldr	r3, [r7, #52]	@ 0x34
10048bdc:	2b00      	cmp	r3, #0
10048bde:	d100      	bne.n	10048be2 <UART_SetConfig+0xc2>
10048be0:	e0e3      	b.n	10048daa <UART_SetConfig+0x28a>
    {
      /* Compute clock after Prescaler */
      lpuart_ker_ck_pres = (pclk / UARTPrescTable[huart->Init.ClockPrescaler]);
10048be2:	6a7b      	ldr	r3, [r7, #36]	@ 0x24
10048be4:	6a5a      	ldr	r2, [r3, #36]	@ 0x24
10048be6:	4b80      	ldr	r3, [pc, #512]	@ (10048de8 <UART_SetConfig+0x2c8>)
10048be8:	0052      	lsls	r2, r2, #1
10048bea:	5ad3      	ldrh	r3, [r2, r3]
10048bec:	0019      	movs	r1, r3
10048bee:	6b78      	ldr	r0, [r7, #52]	@ 0x34
10048bf0:	f7f7 fa66 	bl	100400c0 <__udivsi3>
10048bf4:	0003      	movs	r3, r0
10048bf6:	62bb      	str	r3, [r7, #40]	@ 0x28

      /* Ensure that Frequency clock is in the range [3 * baudrate, 4096 * baudrate] */
      if ((lpuart_ker_ck_pres < (3U * huart->Init.BaudRate)) ||
10048bf8:	6a7b      	ldr	r3, [r7, #36]	@ 0x24
10048bfa:	685a      	ldr	r2, [r3, #4]
10048bfc:	0013      	movs	r3, r2
10048bfe:	005b      	lsls	r3, r3, #1
10048c00:	189b      	adds	r3, r3, r2
10048c02:	6aba      	ldr	r2, [r7, #40]	@ 0x28
10048c04:	429a      	cmp	r2, r3
10048c06:	d305      	bcc.n	10048c14 <UART_SetConfig+0xf4>
          (lpuart_ker_ck_pres > (4096U * huart->Init.BaudRate)))
10048c08:	6a7b      	ldr	r3, [r7, #36]	@ 0x24
10048c0a:	685b      	ldr	r3, [r3, #4]
10048c0c:	031b      	lsls	r3, r3, #12
      if ((lpuart_ker_ck_pres < (3U * huart->Init.BaudRate)) ||
10048c0e:	6aba      	ldr	r2, [r7, #40]	@ 0x28
10048c10:	429a      	cmp	r2, r3
10048c12:	d906      	bls.n	10048c22 <UART_SetConfig+0x102>
      {
        ret = HAL_ERROR;
10048c14:	231b      	movs	r3, #27
10048c16:	2220      	movs	r2, #32
10048c18:	189b      	adds	r3, r3, r2
10048c1a:	19db      	adds	r3, r3, r7
10048c1c:	2201      	movs	r2, #1
10048c1e:	701a      	strb	r2, [r3, #0]
10048c20:	e0c3      	b.n	10048daa <UART_SetConfig+0x28a>
      }
      else
      {
        /* Check computed UsartDiv value is in allocated range
           (it is forbidden to write values lower than 0x300 in the LPUART_BRR register) */
        usartdiv = (uint32_t)(UART_DIV_LPUART(pclk, huart->Init.BaudRate, huart->Init.ClockPrescaler));
10048c22:	6b7b      	ldr	r3, [r7, #52]	@ 0x34
10048c24:	61bb      	str	r3, [r7, #24]
10048c26:	2300      	movs	r3, #0
10048c28:	61fb      	str	r3, [r7, #28]
10048c2a:	6a7b      	ldr	r3, [r7, #36]	@ 0x24
10048c2c:	6a5a      	ldr	r2, [r3, #36]	@ 0x24
10048c2e:	4b6e      	ldr	r3, [pc, #440]	@ (10048de8 <UART_SetConfig+0x2c8>)
10048c30:	0052      	lsls	r2, r2, #1
10048c32:	5ad3      	ldrh	r3, [r2, r3]
10048c34:	613b      	str	r3, [r7, #16]
10048c36:	2300      	movs	r3, #0
10048c38:	617b      	str	r3, [r7, #20]
10048c3a:	693a      	ldr	r2, [r7, #16]
10048c3c:	697b      	ldr	r3, [r7, #20]
10048c3e:	69b8      	ldr	r0, [r7, #24]
10048c40:	69f9      	ldr	r1, [r7, #28]
10048c42:	f7f7 fbb3 	bl	100403ac <__aeabi_uldivmod>
10048c46:	0002      	movs	r2, r0
10048c48:	000b      	movs	r3, r1
10048c4a:	0e11      	lsrs	r1, r2, #24
10048c4c:	021d      	lsls	r5, r3, #8
10048c4e:	430d      	orrs	r5, r1
10048c50:	0214      	lsls	r4, r2, #8
10048c52:	6a7b      	ldr	r3, [r7, #36]	@ 0x24
10048c54:	685b      	ldr	r3, [r3, #4]
10048c56:	085b      	lsrs	r3, r3, #1
10048c58:	60bb      	str	r3, [r7, #8]
10048c5a:	2300      	movs	r3, #0
10048c5c:	60fb      	str	r3, [r7, #12]
10048c5e:	68b8      	ldr	r0, [r7, #8]
10048c60:	68f9      	ldr	r1, [r7, #12]
10048c62:	1900      	adds	r0, r0, r4
10048c64:	4169      	adcs	r1, r5
10048c66:	6a7b      	ldr	r3, [r7, #36]	@ 0x24
10048c68:	685b      	ldr	r3, [r3, #4]
10048c6a:	603b      	str	r3, [r7, #0]
10048c6c:	2300      	movs	r3, #0
10048c6e:	607b      	str	r3, [r7, #4]
10048c70:	683a      	ldr	r2, [r7, #0]
10048c72:	687b      	ldr	r3, [r7, #4]
10048c74:	f7f7 fb9a 	bl	100403ac <__aeabi_uldivmod>
10048c78:	0002      	movs	r2, r0
10048c7a:	000b      	movs	r3, r1
10048c7c:	0013      	movs	r3, r2
10048c7e:	633b      	str	r3, [r7, #48]	@ 0x30
        if ((usartdiv >= LPUART_BRR_MIN) && (usartdiv <= LPUART_BRR_MAX))
10048c80:	6b3a      	ldr	r2, [r7, #48]	@ 0x30
10048c82:	23c0      	movs	r3, #192	@ 0xc0
10048c84:	009b      	lsls	r3, r3, #2
10048c86:	429a      	cmp	r2, r3
10048c88:	d309      	bcc.n	10048c9e <UART_SetConfig+0x17e>
10048c8a:	6b3a      	ldr	r2, [r7, #48]	@ 0x30
10048c8c:	2380      	movs	r3, #128	@ 0x80
10048c8e:	035b      	lsls	r3, r3, #13
10048c90:	429a      	cmp	r2, r3
10048c92:	d204      	bcs.n	10048c9e <UART_SetConfig+0x17e>
        {
          huart->Instance->BRR = usartdiv;
10048c94:	6a7b      	ldr	r3, [r7, #36]	@ 0x24
10048c96:	681b      	ldr	r3, [r3, #0]
10048c98:	6b3a      	ldr	r2, [r7, #48]	@ 0x30
10048c9a:	60da      	str	r2, [r3, #12]
10048c9c:	e085      	b.n	10048daa <UART_SetConfig+0x28a>
        }
        else
        {
          ret = HAL_ERROR;
10048c9e:	231b      	movs	r3, #27
10048ca0:	2220      	movs	r2, #32
10048ca2:	189b      	adds	r3, r3, r2
10048ca4:	19db      	adds	r3, r3, r7
10048ca6:	2201      	movs	r2, #1
10048ca8:	701a      	strb	r2, [r3, #0]
10048caa:	e07e      	b.n	10048daa <UART_SetConfig+0x28a>
      } /* if ( (lpuart_ker_ck_pres < (3 * huart->Init.BaudRate) ) ||
                (lpuart_ker_ck_pres > (4096 * huart->Init.BaudRate) )) */
    } /* if (pclk != 0) */
  }
  /* Check UART Over Sampling to set Baud Rate Register */
  else if (huart->Init.OverSampling == UART_OVERSAMPLING_8)
10048cac:	6a7b      	ldr	r3, [r7, #36]	@ 0x24
10048cae:	69da      	ldr	r2, [r3, #28]
10048cb0:	2380      	movs	r3, #128	@ 0x80
10048cb2:	021b      	lsls	r3, r3, #8
10048cb4:	429a      	cmp	r2, r3
10048cb6:	d148      	bne.n	10048d4a <UART_SetConfig+0x22a>
  {
    pclk = UART_PERIPHCLK;
10048cb8:	4b4c      	ldr	r3, [pc, #304]	@ (10048dec <UART_SetConfig+0x2cc>)
10048cba:	637b      	str	r3, [r7, #52]	@ 0x34

    /* USARTDIV must be greater than or equal to 0d16 */
    if (pclk != 0U)
10048cbc:	6b7b      	ldr	r3, [r7, #52]	@ 0x34
10048cbe:	2b00      	cmp	r3, #0
10048cc0:	d100      	bne.n	10048cc4 <UART_SetConfig+0x1a4>
10048cc2:	e072      	b.n	10048daa <UART_SetConfig+0x28a>
    {
      usartdiv = (uint32_t)(UART_DIV_SAMPLING8(pclk, huart->Init.BaudRate, huart->Init.ClockPrescaler));
10048cc4:	6a7b      	ldr	r3, [r7, #36]	@ 0x24
10048cc6:	6a5a      	ldr	r2, [r3, #36]	@ 0x24
10048cc8:	4b47      	ldr	r3, [pc, #284]	@ (10048de8 <UART_SetConfig+0x2c8>)
10048cca:	0052      	lsls	r2, r2, #1
10048ccc:	5ad3      	ldrh	r3, [r2, r3]
10048cce:	0019      	movs	r1, r3
10048cd0:	6b78      	ldr	r0, [r7, #52]	@ 0x34
10048cd2:	f7f7 f9f5 	bl	100400c0 <__udivsi3>
10048cd6:	0003      	movs	r3, r0
10048cd8:	005a      	lsls	r2, r3, #1
10048cda:	6a7b      	ldr	r3, [r7, #36]	@ 0x24
10048cdc:	685b      	ldr	r3, [r3, #4]
10048cde:	085b      	lsrs	r3, r3, #1
10048ce0:	18d2      	adds	r2, r2, r3
10048ce2:	6a7b      	ldr	r3, [r7, #36]	@ 0x24
10048ce4:	685b      	ldr	r3, [r3, #4]
10048ce6:	0019      	movs	r1, r3
10048ce8:	0010      	movs	r0, r2
10048cea:	f7f7 f9e9 	bl	100400c0 <__udivsi3>
10048cee:	0003      	movs	r3, r0
10048cf0:	633b      	str	r3, [r7, #48]	@ 0x30
      if ((usartdiv >= UART_BRR_MIN) && (usartdiv <= UART_BRR_MAX))
10048cf2:	6b3b      	ldr	r3, [r7, #48]	@ 0x30
10048cf4:	2b0f      	cmp	r3, #15
10048cf6:	d921      	bls.n	10048d3c <UART_SetConfig+0x21c>
10048cf8:	6b3a      	ldr	r2, [r7, #48]	@ 0x30
10048cfa:	2380      	movs	r3, #128	@ 0x80
10048cfc:	025b      	lsls	r3, r3, #9
10048cfe:	429a      	cmp	r2, r3
10048d00:	d21c      	bcs.n	10048d3c <UART_SetConfig+0x21c>
      {
        brrtemp = (uint16_t)(usartdiv & 0xFFF0U);
10048d02:	6b3b      	ldr	r3, [r7, #48]	@ 0x30
10048d04:	b29a      	uxth	r2, r3
10048d06:	200e      	movs	r0, #14
10048d08:	2420      	movs	r4, #32
10048d0a:	1903      	adds	r3, r0, r4
10048d0c:	19db      	adds	r3, r3, r7
10048d0e:	210f      	movs	r1, #15
10048d10:	438a      	bics	r2, r1
10048d12:	801a      	strh	r2, [r3, #0]
        brrtemp |= (uint16_t)((usartdiv & (uint16_t)0x000FU) >> 1U);
10048d14:	6b3b      	ldr	r3, [r7, #48]	@ 0x30
10048d16:	085b      	lsrs	r3, r3, #1
10048d18:	b29b      	uxth	r3, r3
10048d1a:	2207      	movs	r2, #7
10048d1c:	4013      	ands	r3, r2
10048d1e:	b299      	uxth	r1, r3
10048d20:	1903      	adds	r3, r0, r4
10048d22:	19db      	adds	r3, r3, r7
10048d24:	1902      	adds	r2, r0, r4
10048d26:	19d2      	adds	r2, r2, r7
10048d28:	8812      	ldrh	r2, [r2, #0]
10048d2a:	430a      	orrs	r2, r1
10048d2c:	801a      	strh	r2, [r3, #0]
        huart->Instance->BRR = brrtemp;
10048d2e:	6a7b      	ldr	r3, [r7, #36]	@ 0x24
10048d30:	681b      	ldr	r3, [r3, #0]
10048d32:	1902      	adds	r2, r0, r4
10048d34:	19d2      	adds	r2, r2, r7
10048d36:	8812      	ldrh	r2, [r2, #0]
10048d38:	60da      	str	r2, [r3, #12]
10048d3a:	e036      	b.n	10048daa <UART_SetConfig+0x28a>
      }
      else
      {
        ret = HAL_ERROR;
10048d3c:	231b      	movs	r3, #27
10048d3e:	2220      	movs	r2, #32
10048d40:	189b      	adds	r3, r3, r2
10048d42:	19db      	adds	r3, r3, r7
10048d44:	2201      	movs	r2, #1
10048d46:	701a      	strb	r2, [r3, #0]
10048d48:	e02f      	b.n	10048daa <UART_SetConfig+0x28a>
      }
    }
  }
  else
  {
    pclk = UART_PERIPHCLK;
10048d4a:	4b28      	ldr	r3, [pc, #160]	@ (10048dec <UART_SetConfig+0x2cc>)
10048d4c:	637b      	str	r3, [r7, #52]	@ 0x34

    if (pclk != 0U)
10048d4e:	6b7b      	ldr	r3, [r7, #52]	@ 0x34
10048d50:	2b00      	cmp	r3, #0
10048d52:	d02a      	beq.n	10048daa <UART_SetConfig+0x28a>
    {
      /* USARTDIV must be greater than or equal to 0d16 */
      usartdiv = (uint32_t)(UART_DIV_SAMPLING16(pclk, huart->Init.BaudRate, huart->Init.ClockPrescaler));
10048d54:	6a7b      	ldr	r3, [r7, #36]	@ 0x24
10048d56:	6a5a      	ldr	r2, [r3, #36]	@ 0x24
10048d58:	4b23      	ldr	r3, [pc, #140]	@ (10048de8 <UART_SetConfig+0x2c8>)
10048d5a:	0052      	lsls	r2, r2, #1
10048d5c:	5ad3      	ldrh	r3, [r2, r3]
10048d5e:	0019      	movs	r1, r3
10048d60:	6b78      	ldr	r0, [r7, #52]	@ 0x34
10048d62:	f7f7 f9ad 	bl	100400c0 <__udivsi3>
10048d66:	0003      	movs	r3, r0
10048d68:	001a      	movs	r2, r3
10048d6a:	6a7b      	ldr	r3, [r7, #36]	@ 0x24
10048d6c:	685b      	ldr	r3, [r3, #4]
10048d6e:	085b      	lsrs	r3, r3, #1
10048d70:	18d2      	adds	r2, r2, r3
10048d72:	6a7b      	ldr	r3, [r7, #36]	@ 0x24
10048d74:	685b      	ldr	r3, [r3, #4]
10048d76:	0019      	movs	r1, r3
10048d78:	0010      	movs	r0, r2
10048d7a:	f7f7 f9a1 	bl	100400c0 <__udivsi3>
10048d7e:	0003      	movs	r3, r0
10048d80:	633b      	str	r3, [r7, #48]	@ 0x30
      if ((usartdiv >= UART_BRR_MIN) && (usartdiv <= UART_BRR_MAX))
10048d82:	6b3b      	ldr	r3, [r7, #48]	@ 0x30
10048d84:	2b0f      	cmp	r3, #15
10048d86:	d90a      	bls.n	10048d9e <UART_SetConfig+0x27e>
10048d88:	6b3a      	ldr	r2, [r7, #48]	@ 0x30
10048d8a:	2380      	movs	r3, #128	@ 0x80
10048d8c:	025b      	lsls	r3, r3, #9
10048d8e:	429a      	cmp	r2, r3
10048d90:	d205      	bcs.n	10048d9e <UART_SetConfig+0x27e>
      {
        huart->Instance->BRR = (uint16_t)usartdiv;
10048d92:	6b3b      	ldr	r3, [r7, #48]	@ 0x30
10048d94:	b29a      	uxth	r2, r3
10048d96:	6a7b      	ldr	r3, [r7, #36]	@ 0x24
10048d98:	681b      	ldr	r3, [r3, #0]
10048d9a:	60da      	str	r2, [r3, #12]
10048d9c:	e005      	b.n	10048daa <UART_SetConfig+0x28a>
      }
      else
      {
        ret = HAL_ERROR;
10048d9e:	231b      	movs	r3, #27
10048da0:	2220      	movs	r2, #32
10048da2:	189b      	adds	r3, r3, r2
10048da4:	19db      	adds	r3, r3, r7
10048da6:	2201      	movs	r2, #1
10048da8:	701a      	strb	r2, [r3, #0]
      }
    }
  }

  /* Initialize the number of data to process during RX/TX ISR execution */
  huart->NbTxDataToProcess = 1;
10048daa:	6a7b      	ldr	r3, [r7, #36]	@ 0x24
10048dac:	226a      	movs	r2, #106	@ 0x6a
10048dae:	2101      	movs	r1, #1
10048db0:	5299      	strh	r1, [r3, r2]
  huart->NbRxDataToProcess = 1;
10048db2:	6a7b      	ldr	r3, [r7, #36]	@ 0x24
10048db4:	2268      	movs	r2, #104	@ 0x68
10048db6:	2101      	movs	r1, #1
10048db8:	5299      	strh	r1, [r3, r2]

  /* Clear ISR function pointers */
  huart->RxISR = NULL;
10048dba:	6a7b      	ldr	r3, [r7, #36]	@ 0x24
10048dbc:	2200      	movs	r2, #0
10048dbe:	675a      	str	r2, [r3, #116]	@ 0x74
  huart->TxISR = NULL;
10048dc0:	6a7b      	ldr	r3, [r7, #36]	@ 0x24
10048dc2:	2200      	movs	r2, #0
10048dc4:	679a      	str	r2, [r3, #120]	@ 0x78

  return ret;
10048dc6:	231b      	movs	r3, #27
10048dc8:	2220      	movs	r2, #32
10048dca:	189b      	adds	r3, r3, r2
10048dcc:	19db      	adds	r3, r3, r7
10048dce:	781b      	ldrb	r3, [r3, #0]
}
10048dd0:	0018      	movs	r0, r3
10048dd2:	46bd      	mov	sp, r7
10048dd4:	b010      	add	sp, #64	@ 0x40
10048dd6:	bdb0      	pop	{r4, r5, r7, pc}
10048dd8:	cfff69f3 	.word	0xcfff69f3
10048ddc:	ffffcfff 	.word	0xffffcfff
10048de0:	41005000 	.word	0x41005000
10048de4:	11fff4ff 	.word	0x11fff4ff
10048de8:	100497f4 	.word	0x100497f4
10048dec:	00f42400 	.word	0x00f42400

10048df0 <UART_AdvFeatureConfig>:
  * @brief Configure the UART peripheral advanced features.
  * @param huart UART handle.
  * @retval None
  */
void UART_AdvFeatureConfig(UART_HandleTypeDef *huart)
{
10048df0:	b580      	push	{r7, lr}
10048df2:	b082      	sub	sp, #8
10048df4:	af00      	add	r7, sp, #0
10048df6:	6078      	str	r0, [r7, #4]
  /* Check whether the set of advanced features to configure is properly set */
  assert_param(IS_UART_ADVFEATURE_INIT(huart->AdvancedInit.AdvFeatureInit));

  /* if required, configure RX/TX pins swap */
  if (HAL_IS_BIT_SET(huart->AdvancedInit.AdvFeatureInit, UART_ADVFEATURE_SWAP_INIT))
10048df8:	687b      	ldr	r3, [r7, #4]
10048dfa:	6a9b      	ldr	r3, [r3, #40]	@ 0x28
10048dfc:	2208      	movs	r2, #8
10048dfe:	4013      	ands	r3, r2
10048e00:	d00b      	beq.n	10048e1a <UART_AdvFeatureConfig+0x2a>
  {
    assert_param(IS_UART_ADVFEATURE_SWAP(huart->AdvancedInit.Swap));
    MODIFY_REG(huart->Instance->CR2, USART_CR2_SWAP, huart->AdvancedInit.Swap);
10048e02:	687b      	ldr	r3, [r7, #4]
10048e04:	681b      	ldr	r3, [r3, #0]
10048e06:	685b      	ldr	r3, [r3, #4]
10048e08:	4a4a      	ldr	r2, [pc, #296]	@ (10048f34 <UART_AdvFeatureConfig+0x144>)
10048e0a:	4013      	ands	r3, r2
10048e0c:	0019      	movs	r1, r3
10048e0e:	687b      	ldr	r3, [r7, #4]
10048e10:	6b9a      	ldr	r2, [r3, #56]	@ 0x38
10048e12:	687b      	ldr	r3, [r7, #4]
10048e14:	681b      	ldr	r3, [r3, #0]
10048e16:	430a      	orrs	r2, r1
10048e18:	605a      	str	r2, [r3, #4]
  }

  /* if required, configure TX pin active level inversion */
  if (HAL_IS_BIT_SET(huart->AdvancedInit.AdvFeatureInit, UART_ADVFEATURE_TXINVERT_INIT))
10048e1a:	687b      	ldr	r3, [r7, #4]
10048e1c:	6a9b      	ldr	r3, [r3, #40]	@ 0x28
10048e1e:	2201      	movs	r2, #1
10048e20:	4013      	ands	r3, r2
10048e22:	d00b      	beq.n	10048e3c <UART_AdvFeatureConfig+0x4c>
  {
    assert_param(IS_UART_ADVFEATURE_TXINV(huart->AdvancedInit.TxPinLevelInvert));
    MODIFY_REG(huart->Instance->CR2, USART_CR2_TXINV, huart->AdvancedInit.TxPinLevelInvert);
10048e24:	687b      	ldr	r3, [r7, #4]
10048e26:	681b      	ldr	r3, [r3, #0]
10048e28:	685b      	ldr	r3, [r3, #4]
10048e2a:	4a43      	ldr	r2, [pc, #268]	@ (10048f38 <UART_AdvFeatureConfig+0x148>)
10048e2c:	4013      	ands	r3, r2
10048e2e:	0019      	movs	r1, r3
10048e30:	687b      	ldr	r3, [r7, #4]
10048e32:	6ada      	ldr	r2, [r3, #44]	@ 0x2c
10048e34:	687b      	ldr	r3, [r7, #4]
10048e36:	681b      	ldr	r3, [r3, #0]
10048e38:	430a      	orrs	r2, r1
10048e3a:	605a      	str	r2, [r3, #4]
  }

  /* if required, configure RX pin active level inversion */
  if (HAL_IS_BIT_SET(huart->AdvancedInit.AdvFeatureInit, UART_ADVFEATURE_RXINVERT_INIT))
10048e3c:	687b      	ldr	r3, [r7, #4]
10048e3e:	6a9b      	ldr	r3, [r3, #40]	@ 0x28
10048e40:	2202      	movs	r2, #2
10048e42:	4013      	ands	r3, r2
10048e44:	d00b      	beq.n	10048e5e <UART_AdvFeatureConfig+0x6e>
  {
    assert_param(IS_UART_ADVFEATURE_RXINV(huart->AdvancedInit.RxPinLevelInvert));
    MODIFY_REG(huart->Instance->CR2, USART_CR2_RXINV, huart->AdvancedInit.RxPinLevelInvert);
10048e46:	687b      	ldr	r3, [r7, #4]
10048e48:	681b      	ldr	r3, [r3, #0]
10048e4a:	685b      	ldr	r3, [r3, #4]
10048e4c:	4a3b      	ldr	r2, [pc, #236]	@ (10048f3c <UART_AdvFeatureConfig+0x14c>)
10048e4e:	4013      	ands	r3, r2
10048e50:	0019      	movs	r1, r3
10048e52:	687b      	ldr	r3, [r7, #4]
10048e54:	6b1a      	ldr	r2, [r3, #48]	@ 0x30
10048e56:	687b      	ldr	r3, [r7, #4]
10048e58:	681b      	ldr	r3, [r3, #0]
10048e5a:	430a      	orrs	r2, r1
10048e5c:	605a      	str	r2, [r3, #4]
  }

  /* if required, configure data inversion */
  if (HAL_IS_BIT_SET(huart->AdvancedInit.AdvFeatureInit, UART_ADVFEATURE_DATAINVERT_INIT))
10048e5e:	687b      	ldr	r3, [r7, #4]
10048e60:	6a9b      	ldr	r3, [r3, #40]	@ 0x28
10048e62:	2204      	movs	r2, #4
10048e64:	4013      	ands	r3, r2
10048e66:	d00b      	beq.n	10048e80 <UART_AdvFeatureConfig+0x90>
  {
    assert_param(IS_UART_ADVFEATURE_DATAINV(huart->AdvancedInit.DataInvert));
    MODIFY_REG(huart->Instance->CR2, USART_CR2_DATAINV, huart->AdvancedInit.DataInvert);
10048e68:	687b      	ldr	r3, [r7, #4]
10048e6a:	681b      	ldr	r3, [r3, #0]
10048e6c:	685b      	ldr	r3, [r3, #4]
10048e6e:	4a34      	ldr	r2, [pc, #208]	@ (10048f40 <UART_AdvFeatureConfig+0x150>)
10048e70:	4013      	ands	r3, r2
10048e72:	0019      	movs	r1, r3
10048e74:	687b      	ldr	r3, [r7, #4]
10048e76:	6b5a      	ldr	r2, [r3, #52]	@ 0x34
10048e78:	687b      	ldr	r3, [r7, #4]
10048e7a:	681b      	ldr	r3, [r3, #0]
10048e7c:	430a      	orrs	r2, r1
10048e7e:	605a      	str	r2, [r3, #4]
  }

  /* if required, configure RX overrun detection disabling */
  if (HAL_IS_BIT_SET(huart->AdvancedInit.AdvFeatureInit, UART_ADVFEATURE_RXOVERRUNDISABLE_INIT))
10048e80:	687b      	ldr	r3, [r7, #4]
10048e82:	6a9b      	ldr	r3, [r3, #40]	@ 0x28
10048e84:	2210      	movs	r2, #16
10048e86:	4013      	ands	r3, r2
10048e88:	d00b      	beq.n	10048ea2 <UART_AdvFeatureConfig+0xb2>
  {
    assert_param(IS_UART_OVERRUN(huart->AdvancedInit.OverrunDisable));
    MODIFY_REG(huart->Instance->CR3, USART_CR3_OVRDIS, huart->AdvancedInit.OverrunDisable);
10048e8a:	687b      	ldr	r3, [r7, #4]
10048e8c:	681b      	ldr	r3, [r3, #0]
10048e8e:	689b      	ldr	r3, [r3, #8]
10048e90:	4a2c      	ldr	r2, [pc, #176]	@ (10048f44 <UART_AdvFeatureConfig+0x154>)
10048e92:	4013      	ands	r3, r2
10048e94:	0019      	movs	r1, r3
10048e96:	687b      	ldr	r3, [r7, #4]
10048e98:	6bda      	ldr	r2, [r3, #60]	@ 0x3c
10048e9a:	687b      	ldr	r3, [r7, #4]
10048e9c:	681b      	ldr	r3, [r3, #0]
10048e9e:	430a      	orrs	r2, r1
10048ea0:	609a      	str	r2, [r3, #8]
  }

#if defined(HAL_DMA_MODULE_ENABLED)
  /* if required, configure DMA disabling on reception error */
  if (HAL_IS_BIT_SET(huart->AdvancedInit.AdvFeatureInit, UART_ADVFEATURE_DMADISABLEONERROR_INIT))
10048ea2:	687b      	ldr	r3, [r7, #4]
10048ea4:	6a9b      	ldr	r3, [r3, #40]	@ 0x28
10048ea6:	2220      	movs	r2, #32
10048ea8:	4013      	ands	r3, r2
10048eaa:	d00b      	beq.n	10048ec4 <UART_AdvFeatureConfig+0xd4>
  {
    assert_param(IS_UART_ADVFEATURE_DMAONRXERROR(huart->AdvancedInit.DMADisableonRxError));
    MODIFY_REG(huart->Instance->CR3, USART_CR3_DDRE, huart->AdvancedInit.DMADisableonRxError);
10048eac:	687b      	ldr	r3, [r7, #4]
10048eae:	681b      	ldr	r3, [r3, #0]
10048eb0:	689b      	ldr	r3, [r3, #8]
10048eb2:	4a25      	ldr	r2, [pc, #148]	@ (10048f48 <UART_AdvFeatureConfig+0x158>)
10048eb4:	4013      	ands	r3, r2
10048eb6:	0019      	movs	r1, r3
10048eb8:	687b      	ldr	r3, [r7, #4]
10048eba:	6c1a      	ldr	r2, [r3, #64]	@ 0x40
10048ebc:	687b      	ldr	r3, [r7, #4]
10048ebe:	681b      	ldr	r3, [r3, #0]
10048ec0:	430a      	orrs	r2, r1
10048ec2:	609a      	str	r2, [r3, #8]
  }
#endif /* HAL_DMA_MODULE_ENABLED */

  /* if required, configure auto Baud rate detection scheme */
  if (HAL_IS_BIT_SET(huart->AdvancedInit.AdvFeatureInit, UART_ADVFEATURE_AUTOBAUDRATE_INIT))
10048ec4:	687b      	ldr	r3, [r7, #4]
10048ec6:	6a9b      	ldr	r3, [r3, #40]	@ 0x28
10048ec8:	2240      	movs	r2, #64	@ 0x40
10048eca:	4013      	ands	r3, r2
10048ecc:	d01d      	beq.n	10048f0a <UART_AdvFeatureConfig+0x11a>
  {
    assert_param(IS_USART_AUTOBAUDRATE_DETECTION_INSTANCE(huart->Instance));
    assert_param(IS_UART_ADVFEATURE_AUTOBAUDRATE(huart->AdvancedInit.AutoBaudRateEnable));
    MODIFY_REG(huart->Instance->CR2, USART_CR2_ABREN, huart->AdvancedInit.AutoBaudRateEnable);
10048ece:	687b      	ldr	r3, [r7, #4]
10048ed0:	681b      	ldr	r3, [r3, #0]
10048ed2:	685b      	ldr	r3, [r3, #4]
10048ed4:	4a1d      	ldr	r2, [pc, #116]	@ (10048f4c <UART_AdvFeatureConfig+0x15c>)
10048ed6:	4013      	ands	r3, r2
10048ed8:	0019      	movs	r1, r3
10048eda:	687b      	ldr	r3, [r7, #4]
10048edc:	6c5a      	ldr	r2, [r3, #68]	@ 0x44
10048ede:	687b      	ldr	r3, [r7, #4]
10048ee0:	681b      	ldr	r3, [r3, #0]
10048ee2:	430a      	orrs	r2, r1
10048ee4:	605a      	str	r2, [r3, #4]
    /* set auto Baudrate detection parameters if detection is enabled */
    if (huart->AdvancedInit.AutoBaudRateEnable == UART_ADVFEATURE_AUTOBAUDRATE_ENABLE)
10048ee6:	687b      	ldr	r3, [r7, #4]
10048ee8:	6c5a      	ldr	r2, [r3, #68]	@ 0x44
10048eea:	2380      	movs	r3, #128	@ 0x80
10048eec:	035b      	lsls	r3, r3, #13
10048eee:	429a      	cmp	r2, r3
10048ef0:	d10b      	bne.n	10048f0a <UART_AdvFeatureConfig+0x11a>
    {
      assert_param(IS_UART_ADVFEATURE_AUTOBAUDRATEMODE(huart->AdvancedInit.AutoBaudRateMode));
      MODIFY_REG(huart->Instance->CR2, USART_CR2_ABRMODE, huart->AdvancedInit.AutoBaudRateMode);
10048ef2:	687b      	ldr	r3, [r7, #4]
10048ef4:	681b      	ldr	r3, [r3, #0]
10048ef6:	685b      	ldr	r3, [r3, #4]
10048ef8:	4a15      	ldr	r2, [pc, #84]	@ (10048f50 <UART_AdvFeatureConfig+0x160>)
10048efa:	4013      	ands	r3, r2
10048efc:	0019      	movs	r1, r3
10048efe:	687b      	ldr	r3, [r7, #4]
10048f00:	6c9a      	ldr	r2, [r3, #72]	@ 0x48
10048f02:	687b      	ldr	r3, [r7, #4]
10048f04:	681b      	ldr	r3, [r3, #0]
10048f06:	430a      	orrs	r2, r1
10048f08:	605a      	str	r2, [r3, #4]
    }
  }

  /* if required, configure MSB first on communication line */
  if (HAL_IS_BIT_SET(huart->AdvancedInit.AdvFeatureInit, UART_ADVFEATURE_MSBFIRST_INIT))
10048f0a:	687b      	ldr	r3, [r7, #4]
10048f0c:	6a9b      	ldr	r3, [r3, #40]	@ 0x28
10048f0e:	2280      	movs	r2, #128	@ 0x80
10048f10:	4013      	ands	r3, r2
10048f12:	d00b      	beq.n	10048f2c <UART_AdvFeatureConfig+0x13c>
  {
    assert_param(IS_UART_ADVFEATURE_MSBFIRST(huart->AdvancedInit.MSBFirst));
    MODIFY_REG(huart->Instance->CR2, USART_CR2_MSBFIRST, huart->AdvancedInit.MSBFirst);
10048f14:	687b      	ldr	r3, [r7, #4]
10048f16:	681b      	ldr	r3, [r3, #0]
10048f18:	685b      	ldr	r3, [r3, #4]
10048f1a:	4a0e      	ldr	r2, [pc, #56]	@ (10048f54 <UART_AdvFeatureConfig+0x164>)
10048f1c:	4013      	ands	r3, r2
10048f1e:	0019      	movs	r1, r3
10048f20:	687b      	ldr	r3, [r7, #4]
10048f22:	6cda      	ldr	r2, [r3, #76]	@ 0x4c
10048f24:	687b      	ldr	r3, [r7, #4]
10048f26:	681b      	ldr	r3, [r3, #0]
10048f28:	430a      	orrs	r2, r1
10048f2a:	605a      	str	r2, [r3, #4]
  }
}
10048f2c:	46c0      	nop			@ (mov r8, r8)
10048f2e:	46bd      	mov	sp, r7
10048f30:	b002      	add	sp, #8
10048f32:	bd80      	pop	{r7, pc}
10048f34:	ffff7fff 	.word	0xffff7fff
10048f38:	fffdffff 	.word	0xfffdffff
10048f3c:	fffeffff 	.word	0xfffeffff
10048f40:	fffbffff 	.word	0xfffbffff
10048f44:	ffffefff 	.word	0xffffefff
10048f48:	ffffdfff 	.word	0xffffdfff
10048f4c:	ffefffff 	.word	0xffefffff
10048f50:	ff9fffff 	.word	0xff9fffff
10048f54:	fff7ffff 	.word	0xfff7ffff

10048f58 <UART_CheckIdleState>:
  * @brief Check the UART Idle State.
  * @param huart UART handle.
  * @retval HAL status
  */
HAL_StatusTypeDef UART_CheckIdleState(UART_HandleTypeDef *huart)
{
10048f58:	b580      	push	{r7, lr}
10048f5a:	b092      	sub	sp, #72	@ 0x48
10048f5c:	af02      	add	r7, sp, #8
10048f5e:	6078      	str	r0, [r7, #4]
  uint32_t tickstart;

  /* Initialize the UART ErrorCode */
  huart->ErrorCode = HAL_UART_ERROR_NONE;
10048f60:	687b      	ldr	r3, [r7, #4]
10048f62:	2290      	movs	r2, #144	@ 0x90
10048f64:	2100      	movs	r1, #0
10048f66:	5099      	str	r1, [r3, r2]

  /* Init tickstart for timeout management */
  tickstart = HAL_GetTick();
10048f68:	f7fb f834 	bl	10043fd4 <HAL_GetTick>
10048f6c:	0003      	movs	r3, r0
10048f6e:	63fb      	str	r3, [r7, #60]	@ 0x3c

  /* Check if the Transmitter is enabled */
  if ((huart->Instance->CR1 & USART_CR1_TE) == USART_CR1_TE)
10048f70:	687b      	ldr	r3, [r7, #4]
10048f72:	681b      	ldr	r3, [r3, #0]
10048f74:	681b      	ldr	r3, [r3, #0]
10048f76:	2208      	movs	r2, #8
10048f78:	4013      	ands	r3, r2
10048f7a:	2b08      	cmp	r3, #8
10048f7c:	d12d      	bne.n	10048fda <UART_CheckIdleState+0x82>
  {
    /* Wait until TEACK flag is set */
    if (UART_WaitOnFlagUntilTimeout(huart, USART_ISR_TEACK, RESET, tickstart, HAL_UART_TIMEOUT_VALUE) != HAL_OK)
10048f7e:	6bfb      	ldr	r3, [r7, #60]	@ 0x3c
10048f80:	2280      	movs	r2, #128	@ 0x80
10048f82:	0391      	lsls	r1, r2, #14
10048f84:	6878      	ldr	r0, [r7, #4]
10048f86:	4a47      	ldr	r2, [pc, #284]	@ (100490a4 <UART_CheckIdleState+0x14c>)
10048f88:	9200      	str	r2, [sp, #0]
10048f8a:	2200      	movs	r2, #0
10048f8c:	f000 f88e 	bl	100490ac <UART_WaitOnFlagUntilTimeout>
10048f90:	1e03      	subs	r3, r0, #0
10048f92:	d022      	beq.n	10048fda <UART_CheckIdleState+0x82>
  __ASM volatile ("MRS %0, primask" : "=r" (result) );
10048f94:	f3ef 8310 	mrs	r3, PRIMASK
10048f98:	627b      	str	r3, [r7, #36]	@ 0x24
  return(result);
10048f9a:	6a7b      	ldr	r3, [r7, #36]	@ 0x24
    {
      /* Disable TXE interrupt for the interrupt process */
      ATOMIC_CLEAR_BIT(huart->Instance->CR1, (USART_CR1_TXEIE_TXFNFIE));
10048f9c:	63bb      	str	r3, [r7, #56]	@ 0x38
10048f9e:	2301      	movs	r3, #1
10048fa0:	62bb      	str	r3, [r7, #40]	@ 0x28
  __ASM volatile ("MSR primask, %0" : : "r" (priMask) : "memory");
10048fa2:	6abb      	ldr	r3, [r7, #40]	@ 0x28
10048fa4:	f383 8810 	msr	PRIMASK, r3
}
10048fa8:	46c0      	nop			@ (mov r8, r8)
10048faa:	687b      	ldr	r3, [r7, #4]
10048fac:	681b      	ldr	r3, [r3, #0]
10048fae:	681a      	ldr	r2, [r3, #0]
10048fb0:	687b      	ldr	r3, [r7, #4]
10048fb2:	681b      	ldr	r3, [r3, #0]
10048fb4:	2180      	movs	r1, #128	@ 0x80
10048fb6:	438a      	bics	r2, r1
10048fb8:	601a      	str	r2, [r3, #0]
10048fba:	6bbb      	ldr	r3, [r7, #56]	@ 0x38
10048fbc:	62fb      	str	r3, [r7, #44]	@ 0x2c
  __ASM volatile ("MSR primask, %0" : : "r" (priMask) : "memory");
10048fbe:	6afb      	ldr	r3, [r7, #44]	@ 0x2c
10048fc0:	f383 8810 	msr	PRIMASK, r3
}
10048fc4:	46c0      	nop			@ (mov r8, r8)

      huart->gState = HAL_UART_STATE_READY;
10048fc6:	687b      	ldr	r3, [r7, #4]
10048fc8:	2288      	movs	r2, #136	@ 0x88
10048fca:	2120      	movs	r1, #32
10048fcc:	5099      	str	r1, [r3, r2]

      __HAL_UNLOCK(huart);
10048fce:	687b      	ldr	r3, [r7, #4]
10048fd0:	2284      	movs	r2, #132	@ 0x84
10048fd2:	2100      	movs	r1, #0
10048fd4:	5499      	strb	r1, [r3, r2]

      /* Timeout occurred */
      return HAL_TIMEOUT;
10048fd6:	2303      	movs	r3, #3
10048fd8:	e060      	b.n	1004909c <UART_CheckIdleState+0x144>
    }
  }

  /* Check if the Receiver is enabled */
  if ((huart->Instance->CR1 & USART_CR1_RE) == USART_CR1_RE)
10048fda:	687b      	ldr	r3, [r7, #4]
10048fdc:	681b      	ldr	r3, [r3, #0]
10048fde:	681b      	ldr	r3, [r3, #0]
10048fe0:	2204      	movs	r2, #4
10048fe2:	4013      	ands	r3, r2
10048fe4:	2b04      	cmp	r3, #4
10048fe6:	d146      	bne.n	10049076 <UART_CheckIdleState+0x11e>
  {
    /* Wait until REACK flag is set */
    if (UART_WaitOnFlagUntilTimeout(huart, USART_ISR_REACK, RESET, tickstart, HAL_UART_TIMEOUT_VALUE) != HAL_OK)
10048fe8:	6bfb      	ldr	r3, [r7, #60]	@ 0x3c
10048fea:	2280      	movs	r2, #128	@ 0x80
10048fec:	03d1      	lsls	r1, r2, #15
10048fee:	6878      	ldr	r0, [r7, #4]
10048ff0:	4a2c      	ldr	r2, [pc, #176]	@ (100490a4 <UART_CheckIdleState+0x14c>)
10048ff2:	9200      	str	r2, [sp, #0]
10048ff4:	2200      	movs	r2, #0
10048ff6:	f000 f859 	bl	100490ac <UART_WaitOnFlagUntilTimeout>
10048ffa:	1e03      	subs	r3, r0, #0
10048ffc:	d03b      	beq.n	10049076 <UART_CheckIdleState+0x11e>
  __ASM volatile ("MRS %0, primask" : "=r" (result) );
10048ffe:	f3ef 8310 	mrs	r3, PRIMASK
10049002:	60fb      	str	r3, [r7, #12]
  return(result);
10049004:	68fb      	ldr	r3, [r7, #12]
    {
      /* Disable RXNE, PE and ERR (Frame error, noise error, overrun error)
      interrupts for the interrupt process */
      ATOMIC_CLEAR_BIT(huart->Instance->CR1, (USART_CR1_RXNEIE_RXFNEIE | USART_CR1_PEIE));
10049006:	637b      	str	r3, [r7, #52]	@ 0x34
10049008:	2301      	movs	r3, #1
1004900a:	613b      	str	r3, [r7, #16]
  __ASM volatile ("MSR primask, %0" : : "r" (priMask) : "memory");
1004900c:	693b      	ldr	r3, [r7, #16]
1004900e:	f383 8810 	msr	PRIMASK, r3
}
10049012:	46c0      	nop			@ (mov r8, r8)
10049014:	687b      	ldr	r3, [r7, #4]
10049016:	681b      	ldr	r3, [r3, #0]
10049018:	681a      	ldr	r2, [r3, #0]
1004901a:	687b      	ldr	r3, [r7, #4]
1004901c:	681b      	ldr	r3, [r3, #0]
1004901e:	4922      	ldr	r1, [pc, #136]	@ (100490a8 <UART_CheckIdleState+0x150>)
10049020:	400a      	ands	r2, r1
10049022:	601a      	str	r2, [r3, #0]
10049024:	6b7b      	ldr	r3, [r7, #52]	@ 0x34
10049026:	617b      	str	r3, [r7, #20]
  __ASM volatile ("MSR primask, %0" : : "r" (priMask) : "memory");
10049028:	697b      	ldr	r3, [r7, #20]
1004902a:	f383 8810 	msr	PRIMASK, r3
}
1004902e:	46c0      	nop			@ (mov r8, r8)
  __ASM volatile ("MRS %0, primask" : "=r" (result) );
10049030:	f3ef 8310 	mrs	r3, PRIMASK
10049034:	61bb      	str	r3, [r7, #24]
  return(result);
10049036:	69bb      	ldr	r3, [r7, #24]
      ATOMIC_CLEAR_BIT(huart->Instance->CR3, USART_CR3_EIE);
10049038:	633b      	str	r3, [r7, #48]	@ 0x30
1004903a:	2301      	movs	r3, #1
1004903c:	61fb      	str	r3, [r7, #28]
  __ASM volatile ("MSR primask, %0" : : "r" (priMask) : "memory");
1004903e:	69fb      	ldr	r3, [r7, #28]
10049040:	f383 8810 	msr	PRIMASK, r3
}
10049044:	46c0      	nop			@ (mov r8, r8)
10049046:	687b      	ldr	r3, [r7, #4]
10049048:	681b      	ldr	r3, [r3, #0]
1004904a:	689a      	ldr	r2, [r3, #8]
1004904c:	687b      	ldr	r3, [r7, #4]
1004904e:	681b      	ldr	r3, [r3, #0]
10049050:	2101      	movs	r1, #1
10049052:	438a      	bics	r2, r1
10049054:	609a      	str	r2, [r3, #8]
10049056:	6b3b      	ldr	r3, [r7, #48]	@ 0x30
10049058:	623b      	str	r3, [r7, #32]
  __ASM volatile ("MSR primask, %0" : : "r" (priMask) : "memory");
1004905a:	6a3b      	ldr	r3, [r7, #32]
1004905c:	f383 8810 	msr	PRIMASK, r3
}
10049060:	46c0      	nop			@ (mov r8, r8)

      huart->RxState = HAL_UART_STATE_READY;
10049062:	687b      	ldr	r3, [r7, #4]
10049064:	228c      	movs	r2, #140	@ 0x8c
10049066:	2120      	movs	r1, #32
10049068:	5099      	str	r1, [r3, r2]

      __HAL_UNLOCK(huart);
1004906a:	687b      	ldr	r3, [r7, #4]
1004906c:	2284      	movs	r2, #132	@ 0x84
1004906e:	2100      	movs	r1, #0
10049070:	5499      	strb	r1, [r3, r2]

      /* Timeout occurred */
      return HAL_TIMEOUT;
10049072:	2303      	movs	r3, #3
10049074:	e012      	b.n	1004909c <UART_CheckIdleState+0x144>
    }
  }

  /* Initialize the UART State */
  huart->gState = HAL_UART_STATE_READY;
10049076:	687b      	ldr	r3, [r7, #4]
10049078:	2288      	movs	r2, #136	@ 0x88
1004907a:	2120      	movs	r1, #32
1004907c:	5099      	str	r1, [r3, r2]
  huart->RxState = HAL_UART_STATE_READY;
1004907e:	687b      	ldr	r3, [r7, #4]
10049080:	228c      	movs	r2, #140	@ 0x8c
10049082:	2120      	movs	r1, #32
10049084:	5099      	str	r1, [r3, r2]
  huart->ReceptionType = HAL_UART_RECEPTION_STANDARD;
10049086:	687b      	ldr	r3, [r7, #4]
10049088:	2200      	movs	r2, #0
1004908a:	66da      	str	r2, [r3, #108]	@ 0x6c
  huart->RxEventType = HAL_UART_RXEVENT_TC;
1004908c:	687b      	ldr	r3, [r7, #4]
1004908e:	2200      	movs	r2, #0
10049090:	671a      	str	r2, [r3, #112]	@ 0x70

  __HAL_UNLOCK(huart);
10049092:	687b      	ldr	r3, [r7, #4]
10049094:	2284      	movs	r2, #132	@ 0x84
10049096:	2100      	movs	r1, #0
10049098:	5499      	strb	r1, [r3, r2]

  return HAL_OK;
1004909a:	2300      	movs	r3, #0
}
1004909c:	0018      	movs	r0, r3
1004909e:	46bd      	mov	sp, r7
100490a0:	b010      	add	sp, #64	@ 0x40
100490a2:	bd80      	pop	{r7, pc}
100490a4:	01ffffff 	.word	0x01ffffff
100490a8:	fffffedf 	.word	0xfffffedf

100490ac <UART_WaitOnFlagUntilTimeout>:
  * @param Timeout   Timeout duration
  * @retval HAL status
  */
HAL_StatusTypeDef UART_WaitOnFlagUntilTimeout(UART_HandleTypeDef *huart, uint32_t Flag, FlagStatus Status,
                                              uint32_t Tickstart, uint32_t Timeout)
{
100490ac:	b580      	push	{r7, lr}
100490ae:	b084      	sub	sp, #16
100490b0:	af00      	add	r7, sp, #0
100490b2:	60f8      	str	r0, [r7, #12]
100490b4:	60b9      	str	r1, [r7, #8]
100490b6:	603b      	str	r3, [r7, #0]
100490b8:	1dfb      	adds	r3, r7, #7
100490ba:	701a      	strb	r2, [r3, #0]
  /* Wait until flag is set */
  while ((__HAL_UART_GET_FLAG(huart, Flag) ? SET : RESET) == Status)
100490bc:	e051      	b.n	10049162 <UART_WaitOnFlagUntilTimeout+0xb6>
  {
    /* Check for the Timeout */
    if (Timeout != HAL_MAX_DELAY)
100490be:	69bb      	ldr	r3, [r7, #24]
100490c0:	3301      	adds	r3, #1
100490c2:	d04e      	beq.n	10049162 <UART_WaitOnFlagUntilTimeout+0xb6>
    {
      if (((HAL_GetTick() - Tickstart) > Timeout) || (Timeout == 0U))
100490c4:	f7fa ff86 	bl	10043fd4 <HAL_GetTick>
100490c8:	0002      	movs	r2, r0
100490ca:	683b      	ldr	r3, [r7, #0]
100490cc:	1ad3      	subs	r3, r2, r3
100490ce:	69ba      	ldr	r2, [r7, #24]
100490d0:	429a      	cmp	r2, r3
100490d2:	d302      	bcc.n	100490da <UART_WaitOnFlagUntilTimeout+0x2e>
100490d4:	69bb      	ldr	r3, [r7, #24]
100490d6:	2b00      	cmp	r3, #0
100490d8:	d101      	bne.n	100490de <UART_WaitOnFlagUntilTimeout+0x32>
      {

        return HAL_TIMEOUT;
100490da:	2303      	movs	r3, #3
100490dc:	e051      	b.n	10049182 <UART_WaitOnFlagUntilTimeout+0xd6>
      }

      if ((READ_BIT(huart->Instance->CR1, USART_CR1_RE) != 0U) && (Flag != UART_FLAG_TXE) && (Flag != UART_FLAG_TC))
100490de:	68fb      	ldr	r3, [r7, #12]
100490e0:	681b      	ldr	r3, [r3, #0]
100490e2:	681b      	ldr	r3, [r3, #0]
100490e4:	2204      	movs	r2, #4
100490e6:	4013      	ands	r3, r2
100490e8:	d03b      	beq.n	10049162 <UART_WaitOnFlagUntilTimeout+0xb6>
100490ea:	68bb      	ldr	r3, [r7, #8]
100490ec:	2b80      	cmp	r3, #128	@ 0x80
100490ee:	d038      	beq.n	10049162 <UART_WaitOnFlagUntilTimeout+0xb6>
100490f0:	68bb      	ldr	r3, [r7, #8]
100490f2:	2b40      	cmp	r3, #64	@ 0x40
100490f4:	d035      	beq.n	10049162 <UART_WaitOnFlagUntilTimeout+0xb6>
      {
        if (__HAL_UART_GET_FLAG(huart, UART_FLAG_ORE) == SET)
100490f6:	68fb      	ldr	r3, [r7, #12]
100490f8:	681b      	ldr	r3, [r3, #0]
100490fa:	69db      	ldr	r3, [r3, #28]
100490fc:	2208      	movs	r2, #8
100490fe:	4013      	ands	r3, r2
10049100:	2b08      	cmp	r3, #8
10049102:	d111      	bne.n	10049128 <UART_WaitOnFlagUntilTimeout+0x7c>
        {
          /* Clear Overrun Error flag*/
          __HAL_UART_CLEAR_FLAG(huart, UART_CLEAR_OREF);
10049104:	68fb      	ldr	r3, [r7, #12]
10049106:	681b      	ldr	r3, [r3, #0]
10049108:	2208      	movs	r2, #8
1004910a:	621a      	str	r2, [r3, #32]

          /* Blocking error : transfer is aborted
          Set the UART state ready to be able to start again the process,
          Disable Rx Interrupts if ongoing */
          UART_EndRxTransfer(huart);
1004910c:	68fb      	ldr	r3, [r7, #12]
1004910e:	0018      	movs	r0, r3
10049110:	f000 f83c 	bl	1004918c <UART_EndRxTransfer>

          huart->ErrorCode = HAL_UART_ERROR_ORE;
10049114:	68fb      	ldr	r3, [r7, #12]
10049116:	2290      	movs	r2, #144	@ 0x90
10049118:	2108      	movs	r1, #8
1004911a:	5099      	str	r1, [r3, r2]

          /* Process Unlocked */
          __HAL_UNLOCK(huart);
1004911c:	68fb      	ldr	r3, [r7, #12]
1004911e:	2284      	movs	r2, #132	@ 0x84
10049120:	2100      	movs	r1, #0
10049122:	5499      	strb	r1, [r3, r2]

          return HAL_ERROR;
10049124:	2301      	movs	r3, #1
10049126:	e02c      	b.n	10049182 <UART_WaitOnFlagUntilTimeout+0xd6>
        }
        if (__HAL_UART_GET_FLAG(huart, UART_FLAG_RTOF) == SET)
10049128:	68fb      	ldr	r3, [r7, #12]
1004912a:	681b      	ldr	r3, [r3, #0]
1004912c:	69da      	ldr	r2, [r3, #28]
1004912e:	2380      	movs	r3, #128	@ 0x80
10049130:	011b      	lsls	r3, r3, #4
10049132:	401a      	ands	r2, r3
10049134:	2380      	movs	r3, #128	@ 0x80
10049136:	011b      	lsls	r3, r3, #4
10049138:	429a      	cmp	r2, r3
1004913a:	d112      	bne.n	10049162 <UART_WaitOnFlagUntilTimeout+0xb6>
        {
          /* Clear Receiver Timeout flag*/
          __HAL_UART_CLEAR_FLAG(huart, UART_CLEAR_RTOF);
1004913c:	68fb      	ldr	r3, [r7, #12]
1004913e:	681b      	ldr	r3, [r3, #0]
10049140:	2280      	movs	r2, #128	@ 0x80
10049142:	0112      	lsls	r2, r2, #4
10049144:	621a      	str	r2, [r3, #32]

          /* Blocking error : transfer is aborted
          Set the UART state ready to be able to start again the process,
          Disable Rx Interrupts if ongoing */
          UART_EndRxTransfer(huart);
10049146:	68fb      	ldr	r3, [r7, #12]
10049148:	0018      	movs	r0, r3
1004914a:	f000 f81f 	bl	1004918c <UART_EndRxTransfer>

          huart->ErrorCode = HAL_UART_ERROR_RTO;
1004914e:	68fb      	ldr	r3, [r7, #12]
10049150:	2290      	movs	r2, #144	@ 0x90
10049152:	2120      	movs	r1, #32
10049154:	5099      	str	r1, [r3, r2]

          /* Process Unlocked */
          __HAL_UNLOCK(huart);
10049156:	68fb      	ldr	r3, [r7, #12]
10049158:	2284      	movs	r2, #132	@ 0x84
1004915a:	2100      	movs	r1, #0
1004915c:	5499      	strb	r1, [r3, r2]

          return HAL_TIMEOUT;
1004915e:	2303      	movs	r3, #3
10049160:	e00f      	b.n	10049182 <UART_WaitOnFlagUntilTimeout+0xd6>
  while ((__HAL_UART_GET_FLAG(huart, Flag) ? SET : RESET) == Status)
10049162:	68fb      	ldr	r3, [r7, #12]
10049164:	681b      	ldr	r3, [r3, #0]
10049166:	69db      	ldr	r3, [r3, #28]
10049168:	68ba      	ldr	r2, [r7, #8]
1004916a:	4013      	ands	r3, r2
1004916c:	68ba      	ldr	r2, [r7, #8]
1004916e:	1ad3      	subs	r3, r2, r3
10049170:	425a      	negs	r2, r3
10049172:	4153      	adcs	r3, r2
10049174:	b2db      	uxtb	r3, r3
10049176:	001a      	movs	r2, r3
10049178:	1dfb      	adds	r3, r7, #7
1004917a:	781b      	ldrb	r3, [r3, #0]
1004917c:	429a      	cmp	r2, r3
1004917e:	d09e      	beq.n	100490be <UART_WaitOnFlagUntilTimeout+0x12>
        }
      }
    }
  }
  return HAL_OK;
10049180:	2300      	movs	r3, #0
}
10049182:	0018      	movs	r0, r3
10049184:	46bd      	mov	sp, r7
10049186:	b004      	add	sp, #16
10049188:	bd80      	pop	{r7, pc}
	...

1004918c <UART_EndRxTransfer>:
  * @brief  End ongoing Rx transfer on UART peripheral (following error detection or Reception completion).
  * @param  huart UART handle.
  * @retval None
  */
static void UART_EndRxTransfer(UART_HandleTypeDef *huart)
{
1004918c:	b580      	push	{r7, lr}
1004918e:	b08e      	sub	sp, #56	@ 0x38
10049190:	af00      	add	r7, sp, #0
10049192:	6078      	str	r0, [r7, #4]
  __ASM volatile ("MRS %0, primask" : "=r" (result) );
10049194:	f3ef 8310 	mrs	r3, PRIMASK
10049198:	617b      	str	r3, [r7, #20]
  return(result);
1004919a:	697b      	ldr	r3, [r7, #20]
  /* Disable RXNE, PE and ERR (Frame error, noise error, overrun error) interrupts */
  ATOMIC_CLEAR_BIT(huart->Instance->CR1, (USART_CR1_RXNEIE_RXFNEIE | USART_CR1_PEIE));
1004919c:	637b      	str	r3, [r7, #52]	@ 0x34
1004919e:	2301      	movs	r3, #1
100491a0:	61bb      	str	r3, [r7, #24]
  __ASM volatile ("MSR primask, %0" : : "r" (priMask) : "memory");
100491a2:	69bb      	ldr	r3, [r7, #24]
100491a4:	f383 8810 	msr	PRIMASK, r3
}
100491a8:	46c0      	nop			@ (mov r8, r8)
100491aa:	687b      	ldr	r3, [r7, #4]
100491ac:	681b      	ldr	r3, [r3, #0]
100491ae:	681a      	ldr	r2, [r3, #0]
100491b0:	687b      	ldr	r3, [r7, #4]
100491b2:	681b      	ldr	r3, [r3, #0]
100491b4:	4926      	ldr	r1, [pc, #152]	@ (10049250 <UART_EndRxTransfer+0xc4>)
100491b6:	400a      	ands	r2, r1
100491b8:	601a      	str	r2, [r3, #0]
100491ba:	6b7b      	ldr	r3, [r7, #52]	@ 0x34
100491bc:	61fb      	str	r3, [r7, #28]
  __ASM volatile ("MSR primask, %0" : : "r" (priMask) : "memory");
100491be:	69fb      	ldr	r3, [r7, #28]
100491c0:	f383 8810 	msr	PRIMASK, r3
}
100491c4:	46c0      	nop			@ (mov r8, r8)
  __ASM volatile ("MRS %0, primask" : "=r" (result) );
100491c6:	f3ef 8310 	mrs	r3, PRIMASK
100491ca:	623b      	str	r3, [r7, #32]
  return(result);
100491cc:	6a3b      	ldr	r3, [r7, #32]
  ATOMIC_CLEAR_BIT(huart->Instance->CR3, (USART_CR3_EIE | USART_CR3_RXFTIE));
100491ce:	633b      	str	r3, [r7, #48]	@ 0x30
100491d0:	2301      	movs	r3, #1
100491d2:	627b      	str	r3, [r7, #36]	@ 0x24
  __ASM volatile ("MSR primask, %0" : : "r" (priMask) : "memory");
100491d4:	6a7b      	ldr	r3, [r7, #36]	@ 0x24
100491d6:	f383 8810 	msr	PRIMASK, r3
}
100491da:	46c0      	nop			@ (mov r8, r8)
100491dc:	687b      	ldr	r3, [r7, #4]
100491de:	681b      	ldr	r3, [r3, #0]
100491e0:	689a      	ldr	r2, [r3, #8]
100491e2:	687b      	ldr	r3, [r7, #4]
100491e4:	681b      	ldr	r3, [r3, #0]
100491e6:	491b      	ldr	r1, [pc, #108]	@ (10049254 <UART_EndRxTransfer+0xc8>)
100491e8:	400a      	ands	r2, r1
100491ea:	609a      	str	r2, [r3, #8]
100491ec:	6b3b      	ldr	r3, [r7, #48]	@ 0x30
100491ee:	62bb      	str	r3, [r7, #40]	@ 0x28
  __ASM volatile ("MSR primask, %0" : : "r" (priMask) : "memory");
100491f0:	6abb      	ldr	r3, [r7, #40]	@ 0x28
100491f2:	f383 8810 	msr	PRIMASK, r3
}
100491f6:	46c0      	nop			@ (mov r8, r8)

  /* In case of reception waiting for IDLE event, disable also the IDLE IE interrupt source */
  if (huart->ReceptionType == HAL_UART_RECEPTION_TOIDLE)
100491f8:	687b      	ldr	r3, [r7, #4]
100491fa:	6edb      	ldr	r3, [r3, #108]	@ 0x6c
100491fc:	2b01      	cmp	r3, #1
100491fe:	d118      	bne.n	10049232 <UART_EndRxTransfer+0xa6>
  __ASM volatile ("MRS %0, primask" : "=r" (result) );
10049200:	f3ef 8310 	mrs	r3, PRIMASK
10049204:	60bb      	str	r3, [r7, #8]
  return(result);
10049206:	68bb      	ldr	r3, [r7, #8]
  {
    ATOMIC_CLEAR_BIT(huart->Instance->CR1, USART_CR1_IDLEIE);
10049208:	62fb      	str	r3, [r7, #44]	@ 0x2c
1004920a:	2301      	movs	r3, #1
1004920c:	60fb      	str	r3, [r7, #12]
  __ASM volatile ("MSR primask, %0" : : "r" (priMask) : "memory");
1004920e:	68fb      	ldr	r3, [r7, #12]
10049210:	f383 8810 	msr	PRIMASK, r3
}
10049214:	46c0      	nop			@ (mov r8, r8)
10049216:	687b      	ldr	r3, [r7, #4]
10049218:	681b      	ldr	r3, [r3, #0]
1004921a:	681a      	ldr	r2, [r3, #0]
1004921c:	687b      	ldr	r3, [r7, #4]
1004921e:	681b      	ldr	r3, [r3, #0]
10049220:	2110      	movs	r1, #16
10049222:	438a      	bics	r2, r1
10049224:	601a      	str	r2, [r3, #0]
10049226:	6afb      	ldr	r3, [r7, #44]	@ 0x2c
10049228:	613b      	str	r3, [r7, #16]
  __ASM volatile ("MSR primask, %0" : : "r" (priMask) : "memory");
1004922a:	693b      	ldr	r3, [r7, #16]
1004922c:	f383 8810 	msr	PRIMASK, r3
}
10049230:	46c0      	nop			@ (mov r8, r8)
  }

  /* At end of Rx process, restore huart->RxState to Ready */
  huart->RxState = HAL_UART_STATE_READY;
10049232:	687b      	ldr	r3, [r7, #4]
10049234:	228c      	movs	r2, #140	@ 0x8c
10049236:	2120      	movs	r1, #32
10049238:	5099      	str	r1, [r3, r2]
  huart->ReceptionType = HAL_UART_RECEPTION_STANDARD;
1004923a:	687b      	ldr	r3, [r7, #4]
1004923c:	2200      	movs	r2, #0
1004923e:	66da      	str	r2, [r3, #108]	@ 0x6c

  /* Reset RxIsr function pointer */
  huart->RxISR = NULL;
10049240:	687b      	ldr	r3, [r7, #4]
10049242:	2200      	movs	r2, #0
10049244:	675a      	str	r2, [r3, #116]	@ 0x74
}
10049246:	46c0      	nop			@ (mov r8, r8)
10049248:	46bd      	mov	sp, r7
1004924a:	b00e      	add	sp, #56	@ 0x38
1004924c:	bd80      	pop	{r7, pc}
1004924e:	46c0      	nop			@ (mov r8, r8)
10049250:	fffffedf 	.word	0xfffffedf
10049254:	effffffe 	.word	0xeffffffe

10049258 <UART_DMAAbortOnError>:
  *         (To be called at end of DMA Abort procedure following error occurrence).
  * @param  hdma DMA handle.
  * @retval None
  */
static void UART_DMAAbortOnError(DMA_HandleTypeDef *hdma)
{
10049258:	b580      	push	{r7, lr}
1004925a:	b084      	sub	sp, #16
1004925c:	af00      	add	r7, sp, #0
1004925e:	6078      	str	r0, [r7, #4]
  UART_HandleTypeDef *huart = (UART_HandleTypeDef *)(hdma->Parent);
10049260:	687b      	ldr	r3, [r7, #4]
10049262:	6a9b      	ldr	r3, [r3, #40]	@ 0x28
10049264:	60fb      	str	r3, [r7, #12]
#if (USE_HAL_UART_REGISTER_CALLBACKS == 1)
  /*Call registered error callback*/
  huart->ErrorCallback(huart);
#else
  /*Call legacy weak error callback*/
  HAL_UART_ErrorCallback(huart);
10049266:	68fb      	ldr	r3, [r7, #12]
10049268:	0018      	movs	r0, r3
1004926a:	f7ff fc45 	bl	10048af8 <HAL_UART_ErrorCallback>
#endif /* USE_HAL_UART_REGISTER_CALLBACKS */
}
1004926e:	46c0      	nop			@ (mov r8, r8)
10049270:	46bd      	mov	sp, r7
10049272:	b004      	add	sp, #16
10049274:	bd80      	pop	{r7, pc}

10049276 <UART_EndTransmit_IT>:
  * @param  huart pointer to a UART_HandleTypeDef structure that contains
  *                the configuration information for the specified UART module.
  * @retval None
  */
static void UART_EndTransmit_IT(UART_HandleTypeDef *huart)
{
10049276:	b580      	push	{r7, lr}
10049278:	b086      	sub	sp, #24
1004927a:	af00      	add	r7, sp, #0
1004927c:	6078      	str	r0, [r7, #4]
  __ASM volatile ("MRS %0, primask" : "=r" (result) );
1004927e:	f3ef 8310 	mrs	r3, PRIMASK
10049282:	60bb      	str	r3, [r7, #8]
  return(result);
10049284:	68bb      	ldr	r3, [r7, #8]
  /* Disable the UART Transmit Complete Interrupt */
  ATOMIC_CLEAR_BIT(huart->Instance->CR1, USART_CR1_TCIE);
10049286:	617b      	str	r3, [r7, #20]
10049288:	2301      	movs	r3, #1
1004928a:	60fb      	str	r3, [r7, #12]
  __ASM volatile ("MSR primask, %0" : : "r" (priMask) : "memory");
1004928c:	68fb      	ldr	r3, [r7, #12]
1004928e:	f383 8810 	msr	PRIMASK, r3
}
10049292:	46c0      	nop			@ (mov r8, r8)
10049294:	687b      	ldr	r3, [r7, #4]
10049296:	681b      	ldr	r3, [r3, #0]
10049298:	681a      	ldr	r2, [r3, #0]
1004929a:	687b      	ldr	r3, [r7, #4]
1004929c:	681b      	ldr	r3, [r3, #0]
1004929e:	2140      	movs	r1, #64	@ 0x40
100492a0:	438a      	bics	r2, r1
100492a2:	601a      	str	r2, [r3, #0]
100492a4:	697b      	ldr	r3, [r7, #20]
100492a6:	613b      	str	r3, [r7, #16]
  __ASM volatile ("MSR primask, %0" : : "r" (priMask) : "memory");
100492a8:	693b      	ldr	r3, [r7, #16]
100492aa:	f383 8810 	msr	PRIMASK, r3
}
100492ae:	46c0      	nop			@ (mov r8, r8)

  /* Tx process is ended, restore huart->gState to Ready */
  huart->gState = HAL_UART_STATE_READY;
100492b0:	687b      	ldr	r3, [r7, #4]
100492b2:	2288      	movs	r2, #136	@ 0x88
100492b4:	2120      	movs	r1, #32
100492b6:	5099      	str	r1, [r3, r2]

  /* Cleat TxISR function pointer */
  huart->TxISR = NULL;
100492b8:	687b      	ldr	r3, [r7, #4]
100492ba:	2200      	movs	r2, #0
100492bc:	679a      	str	r2, [r3, #120]	@ 0x78
#if (USE_HAL_UART_REGISTER_CALLBACKS == 1)
  /*Call registered Tx complete callback*/
  huart->TxCpltCallback(huart);
#else
  /*Call legacy weak Tx complete callback*/
  HAL_UART_TxCpltCallback(huart);
100492be:	687b      	ldr	r3, [r7, #4]
100492c0:	0018      	movs	r0, r3
100492c2:	f7ff fc11 	bl	10048ae8 <HAL_UART_TxCpltCallback>
#endif /* USE_HAL_UART_REGISTER_CALLBACKS */
}
100492c6:	46c0      	nop			@ (mov r8, r8)
100492c8:	46bd      	mov	sp, r7
100492ca:	b006      	add	sp, #24
100492cc:	bd80      	pop	{r7, pc}

100492ce <HAL_UARTEx_WakeupCallback>:
  * @brief UART wakeup from Stop mode callback.
  * @param huart UART handle.
  * @retval None
  */
__weak void HAL_UARTEx_WakeupCallback(UART_HandleTypeDef *huart)
{
100492ce:	b580      	push	{r7, lr}
100492d0:	b082      	sub	sp, #8
100492d2:	af00      	add	r7, sp, #0
100492d4:	6078      	str	r0, [r7, #4]
  UNUSED(huart);

  /* NOTE : This function should not be modified, when the callback is needed,
            the HAL_UARTEx_WakeupCallback can be implemented in the user file.
   */
}
100492d6:	46c0      	nop			@ (mov r8, r8)
100492d8:	46bd      	mov	sp, r7
100492da:	b002      	add	sp, #8
100492dc:	bd80      	pop	{r7, pc}

100492de <HAL_UARTEx_RxFifoFullCallback>:
  * @brief  UART RX Fifo full callback.
  * @param  huart UART handle.
  * @retval None
  */
__weak void HAL_UARTEx_RxFifoFullCallback(UART_HandleTypeDef *huart)
{
100492de:	b580      	push	{r7, lr}
100492e0:	b082      	sub	sp, #8
100492e2:	af00      	add	r7, sp, #0
100492e4:	6078      	str	r0, [r7, #4]
  UNUSED(huart);

  /* NOTE : This function should not be modified, when the callback is needed,
            the HAL_UARTEx_RxFifoFullCallback can be implemented in the user file.
   */
}
100492e6:	46c0      	nop			@ (mov r8, r8)
100492e8:	46bd      	mov	sp, r7
100492ea:	b002      	add	sp, #8
100492ec:	bd80      	pop	{r7, pc}

100492ee <HAL_UARTEx_TxFifoEmptyCallback>:
  * @brief  UART TX Fifo empty callback.
  * @param  huart UART handle.
  * @retval None
  */
__weak void HAL_UARTEx_TxFifoEmptyCallback(UART_HandleTypeDef *huart)
{
100492ee:	b580      	push	{r7, lr}
100492f0:	b082      	sub	sp, #8
100492f2:	af00      	add	r7, sp, #0
100492f4:	6078      	str	r0, [r7, #4]
  UNUSED(huart);

  /* NOTE : This function should not be modified, when the callback is needed,
            the HAL_UARTEx_TxFifoEmptyCallback can be implemented in the user file.
   */
}
100492f6:	46c0      	nop			@ (mov r8, r8)
100492f8:	46bd      	mov	sp, r7
100492fa:	b002      	add	sp, #8
100492fc:	bd80      	pop	{r7, pc}
	...

10049300 <HAL_UARTEx_DisableFifoMode>:
  * @brief  Disable the FIFO mode.
  * @param huart      UART handle.
  * @retval HAL status
  */
HAL_StatusTypeDef HAL_UARTEx_DisableFifoMode(UART_HandleTypeDef *huart)
{
10049300:	b580      	push	{r7, lr}
10049302:	b084      	sub	sp, #16
10049304:	af00      	add	r7, sp, #0
10049306:	6078      	str	r0, [r7, #4]

  /* Check parameters */
  assert_param(IS_UART_FIFO_INSTANCE(huart->Instance));

  /* Process Locked */
  __HAL_LOCK(huart);
10049308:	687b      	ldr	r3, [r7, #4]
1004930a:	2284      	movs	r2, #132	@ 0x84
1004930c:	5c9b      	ldrb	r3, [r3, r2]
1004930e:	2b01      	cmp	r3, #1
10049310:	d101      	bne.n	10049316 <HAL_UARTEx_DisableFifoMode+0x16>
10049312:	2302      	movs	r3, #2
10049314:	e027      	b.n	10049366 <HAL_UARTEx_DisableFifoMode+0x66>
10049316:	687b      	ldr	r3, [r7, #4]
10049318:	2284      	movs	r2, #132	@ 0x84
1004931a:	2101      	movs	r1, #1
1004931c:	5499      	strb	r1, [r3, r2]

  huart->gState = HAL_UART_STATE_BUSY;
1004931e:	687b      	ldr	r3, [r7, #4]
10049320:	2288      	movs	r2, #136	@ 0x88
10049322:	2124      	movs	r1, #36	@ 0x24
10049324:	5099      	str	r1, [r3, r2]

  /* Save actual UART configuration */
  tmpcr1 = READ_REG(huart->Instance->CR1);
10049326:	687b      	ldr	r3, [r7, #4]
10049328:	681b      	ldr	r3, [r3, #0]
1004932a:	681b      	ldr	r3, [r3, #0]
1004932c:	60fb      	str	r3, [r7, #12]

  /* Disable UART */
  __HAL_UART_DISABLE(huart);
1004932e:	687b      	ldr	r3, [r7, #4]
10049330:	681b      	ldr	r3, [r3, #0]
10049332:	681a      	ldr	r2, [r3, #0]
10049334:	687b      	ldr	r3, [r7, #4]
10049336:	681b      	ldr	r3, [r3, #0]
10049338:	2101      	movs	r1, #1
1004933a:	438a      	bics	r2, r1
1004933c:	601a      	str	r2, [r3, #0]

  /* Disable FIFO mode */
  CLEAR_BIT(tmpcr1, USART_CR1_FIFOEN);
1004933e:	68fb      	ldr	r3, [r7, #12]
10049340:	4a0b      	ldr	r2, [pc, #44]	@ (10049370 <HAL_UARTEx_DisableFifoMode+0x70>)
10049342:	4013      	ands	r3, r2
10049344:	60fb      	str	r3, [r7, #12]
  huart->FifoMode = UART_FIFOMODE_DISABLE;
10049346:	687b      	ldr	r3, [r7, #4]
10049348:	2200      	movs	r2, #0
1004934a:	665a      	str	r2, [r3, #100]	@ 0x64

  /* Restore UART configuration */
  WRITE_REG(huart->Instance->CR1, tmpcr1);
1004934c:	687b      	ldr	r3, [r7, #4]
1004934e:	681b      	ldr	r3, [r3, #0]
10049350:	68fa      	ldr	r2, [r7, #12]
10049352:	601a      	str	r2, [r3, #0]

  huart->gState = HAL_UART_STATE_READY;
10049354:	687b      	ldr	r3, [r7, #4]
10049356:	2288      	movs	r2, #136	@ 0x88
10049358:	2120      	movs	r1, #32
1004935a:	5099      	str	r1, [r3, r2]

  /* Process Unlocked */
  __HAL_UNLOCK(huart);
1004935c:	687b      	ldr	r3, [r7, #4]
1004935e:	2284      	movs	r2, #132	@ 0x84
10049360:	2100      	movs	r1, #0
10049362:	5499      	strb	r1, [r3, r2]

  return HAL_OK;
10049364:	2300      	movs	r3, #0
}
10049366:	0018      	movs	r0, r3
10049368:	46bd      	mov	sp, r7
1004936a:	b004      	add	sp, #16
1004936c:	bd80      	pop	{r7, pc}
1004936e:	46c0      	nop			@ (mov r8, r8)
10049370:	dfffffff 	.word	0xdfffffff

10049374 <HAL_UARTEx_SetTxFifoThreshold>:
  *            @arg @ref UART_TXFIFO_THRESHOLD_7_8
  *            @arg @ref UART_TXFIFO_THRESHOLD_8_8
  * @retval HAL status
  */
HAL_StatusTypeDef HAL_UARTEx_SetTxFifoThreshold(UART_HandleTypeDef *huart, uint32_t Threshold)
{
10049374:	b580      	push	{r7, lr}
10049376:	b084      	sub	sp, #16
10049378:	af00      	add	r7, sp, #0
1004937a:	6078      	str	r0, [r7, #4]
1004937c:	6039      	str	r1, [r7, #0]
  /* Check parameters */
  assert_param(IS_UART_FIFO_INSTANCE(huart->Instance));
  assert_param(IS_UART_TXFIFO_THRESHOLD(Threshold));

  /* Process Locked */
  __HAL_LOCK(huart);
1004937e:	687b      	ldr	r3, [r7, #4]
10049380:	2284      	movs	r2, #132	@ 0x84
10049382:	5c9b      	ldrb	r3, [r3, r2]
10049384:	2b01      	cmp	r3, #1
10049386:	d101      	bne.n	1004938c <HAL_UARTEx_SetTxFifoThreshold+0x18>
10049388:	2302      	movs	r3, #2
1004938a:	e02e      	b.n	100493ea <HAL_UARTEx_SetTxFifoThreshold+0x76>
1004938c:	687b      	ldr	r3, [r7, #4]
1004938e:	2284      	movs	r2, #132	@ 0x84
10049390:	2101      	movs	r1, #1
10049392:	5499      	strb	r1, [r3, r2]

  huart->gState = HAL_UART_STATE_BUSY;
10049394:	687b      	ldr	r3, [r7, #4]
10049396:	2288      	movs	r2, #136	@ 0x88
10049398:	2124      	movs	r1, #36	@ 0x24
1004939a:	5099      	str	r1, [r3, r2]

  /* Save actual UART configuration */
  tmpcr1 = READ_REG(huart->Instance->CR1);
1004939c:	687b      	ldr	r3, [r7, #4]
1004939e:	681b      	ldr	r3, [r3, #0]
100493a0:	681b      	ldr	r3, [r3, #0]
100493a2:	60fb      	str	r3, [r7, #12]

  /* Disable UART */
  __HAL_UART_DISABLE(huart);
100493a4:	687b      	ldr	r3, [r7, #4]
100493a6:	681b      	ldr	r3, [r3, #0]
100493a8:	681a      	ldr	r2, [r3, #0]
100493aa:	687b      	ldr	r3, [r7, #4]
100493ac:	681b      	ldr	r3, [r3, #0]
100493ae:	2101      	movs	r1, #1
100493b0:	438a      	bics	r2, r1
100493b2:	601a      	str	r2, [r3, #0]

  /* Update TX threshold configuration */
  MODIFY_REG(huart->Instance->CR3, USART_CR3_TXFTCFG, Threshold);
100493b4:	687b      	ldr	r3, [r7, #4]
100493b6:	681b      	ldr	r3, [r3, #0]
100493b8:	689b      	ldr	r3, [r3, #8]
100493ba:	00db      	lsls	r3, r3, #3
100493bc:	08d9      	lsrs	r1, r3, #3
100493be:	687b      	ldr	r3, [r7, #4]
100493c0:	681b      	ldr	r3, [r3, #0]
100493c2:	683a      	ldr	r2, [r7, #0]
100493c4:	430a      	orrs	r2, r1
100493c6:	609a      	str	r2, [r3, #8]

  /* Determine the number of data to process during RX/TX ISR execution */
  UARTEx_SetNbDataToProcess(huart);
100493c8:	687b      	ldr	r3, [r7, #4]
100493ca:	0018      	movs	r0, r3
100493cc:	f000 f854 	bl	10049478 <UARTEx_SetNbDataToProcess>

  /* Restore UART configuration */
  WRITE_REG(huart->Instance->CR1, tmpcr1);
100493d0:	687b      	ldr	r3, [r7, #4]
100493d2:	681b      	ldr	r3, [r3, #0]
100493d4:	68fa      	ldr	r2, [r7, #12]
100493d6:	601a      	str	r2, [r3, #0]

  huart->gState = HAL_UART_STATE_READY;
100493d8:	687b      	ldr	r3, [r7, #4]
100493da:	2288      	movs	r2, #136	@ 0x88
100493dc:	2120      	movs	r1, #32
100493de:	5099      	str	r1, [r3, r2]

  /* Process Unlocked */
  __HAL_UNLOCK(huart);
100493e0:	687b      	ldr	r3, [r7, #4]
100493e2:	2284      	movs	r2, #132	@ 0x84
100493e4:	2100      	movs	r1, #0
100493e6:	5499      	strb	r1, [r3, r2]

  return HAL_OK;
100493e8:	2300      	movs	r3, #0
}
100493ea:	0018      	movs	r0, r3
100493ec:	46bd      	mov	sp, r7
100493ee:	b004      	add	sp, #16
100493f0:	bd80      	pop	{r7, pc}
	...

100493f4 <HAL_UARTEx_SetRxFifoThreshold>:
  *            @arg @ref UART_RXFIFO_THRESHOLD_7_8
  *            @arg @ref UART_RXFIFO_THRESHOLD_8_8
  * @retval HAL status
  */
HAL_StatusTypeDef HAL_UARTEx_SetRxFifoThreshold(UART_HandleTypeDef *huart, uint32_t Threshold)
{
100493f4:	b580      	push	{r7, lr}
100493f6:	b084      	sub	sp, #16
100493f8:	af00      	add	r7, sp, #0
100493fa:	6078      	str	r0, [r7, #4]
100493fc:	6039      	str	r1, [r7, #0]
  /* Check the parameters */
  assert_param(IS_UART_FIFO_INSTANCE(huart->Instance));
  assert_param(IS_UART_RXFIFO_THRESHOLD(Threshold));

  /* Process Locked */
  __HAL_LOCK(huart);
100493fe:	687b      	ldr	r3, [r7, #4]
10049400:	2284      	movs	r2, #132	@ 0x84
10049402:	5c9b      	ldrb	r3, [r3, r2]
10049404:	2b01      	cmp	r3, #1
10049406:	d101      	bne.n	1004940c <HAL_UARTEx_SetRxFifoThreshold+0x18>
10049408:	2302      	movs	r3, #2
1004940a:	e02f      	b.n	1004946c <HAL_UARTEx_SetRxFifoThreshold+0x78>
1004940c:	687b      	ldr	r3, [r7, #4]
1004940e:	2284      	movs	r2, #132	@ 0x84
10049410:	2101      	movs	r1, #1
10049412:	5499      	strb	r1, [r3, r2]

  huart->gState = HAL_UART_STATE_BUSY;
10049414:	687b      	ldr	r3, [r7, #4]
10049416:	2288      	movs	r2, #136	@ 0x88
10049418:	2124      	movs	r1, #36	@ 0x24
1004941a:	5099      	str	r1, [r3, r2]

  /* Save actual UART configuration */
  tmpcr1 = READ_REG(huart->Instance->CR1);
1004941c:	687b      	ldr	r3, [r7, #4]
1004941e:	681b      	ldr	r3, [r3, #0]
10049420:	681b      	ldr	r3, [r3, #0]
10049422:	60fb      	str	r3, [r7, #12]

  /* Disable UART */
  __HAL_UART_DISABLE(huart);
10049424:	687b      	ldr	r3, [r7, #4]
10049426:	681b      	ldr	r3, [r3, #0]
10049428:	681a      	ldr	r2, [r3, #0]
1004942a:	687b      	ldr	r3, [r7, #4]
1004942c:	681b      	ldr	r3, [r3, #0]
1004942e:	2101      	movs	r1, #1
10049430:	438a      	bics	r2, r1
10049432:	601a      	str	r2, [r3, #0]

  /* Update RX threshold configuration */
  MODIFY_REG(huart->Instance->CR3, USART_CR3_RXFTCFG, Threshold);
10049434:	687b      	ldr	r3, [r7, #4]
10049436:	681b      	ldr	r3, [r3, #0]
10049438:	689b      	ldr	r3, [r3, #8]
1004943a:	4a0e      	ldr	r2, [pc, #56]	@ (10049474 <HAL_UARTEx_SetRxFifoThreshold+0x80>)
1004943c:	4013      	ands	r3, r2
1004943e:	0019      	movs	r1, r3
10049440:	687b      	ldr	r3, [r7, #4]
10049442:	681b      	ldr	r3, [r3, #0]
10049444:	683a      	ldr	r2, [r7, #0]
10049446:	430a      	orrs	r2, r1
10049448:	609a      	str	r2, [r3, #8]

  /* Determine the number of data to process during RX/TX ISR execution */
  UARTEx_SetNbDataToProcess(huart);
1004944a:	687b      	ldr	r3, [r7, #4]
1004944c:	0018      	movs	r0, r3
1004944e:	f000 f813 	bl	10049478 <UARTEx_SetNbDataToProcess>

  /* Restore UART configuration */
  WRITE_REG(huart->Instance->CR1, tmpcr1);
10049452:	687b      	ldr	r3, [r7, #4]
10049454:	681b      	ldr	r3, [r3, #0]
10049456:	68fa      	ldr	r2, [r7, #12]
10049458:	601a      	str	r2, [r3, #0]

  huart->gState = HAL_UART_STATE_READY;
1004945a:	687b      	ldr	r3, [r7, #4]
1004945c:	2288      	movs	r2, #136	@ 0x88
1004945e:	2120      	movs	r1, #32
10049460:	5099      	str	r1, [r3, r2]

  /* Process Unlocked */
  __HAL_UNLOCK(huart);
10049462:	687b      	ldr	r3, [r7, #4]
10049464:	2284      	movs	r2, #132	@ 0x84
10049466:	2100      	movs	r1, #0
10049468:	5499      	strb	r1, [r3, r2]

  return HAL_OK;
1004946a:	2300      	movs	r3, #0
}
1004946c:	0018      	movs	r0, r3
1004946e:	46bd      	mov	sp, r7
10049470:	b004      	add	sp, #16
10049472:	bd80      	pop	{r7, pc}
10049474:	f1ffffff 	.word	0xf1ffffff

10049478 <UARTEx_SetNbDataToProcess>:
  *       the UART configuration registers.
  * @param huart UART handle.
  * @retval None
  */
static void UARTEx_SetNbDataToProcess(UART_HandleTypeDef *huart)
{
10049478:	b5f0      	push	{r4, r5, r6, r7, lr}
1004947a:	b085      	sub	sp, #20
1004947c:	af00      	add	r7, sp, #0
1004947e:	6078      	str	r0, [r7, #4]
  uint8_t rx_fifo_threshold;
  uint8_t tx_fifo_threshold;
  static const uint8_t numerator[] = {1U, 1U, 1U, 3U, 7U, 1U, 0U, 0U};
  static const uint8_t denominator[] = {8U, 4U, 2U, 4U, 8U, 1U, 1U, 1U};

  if (huart->FifoMode == UART_FIFOMODE_DISABLE)
10049480:	687b      	ldr	r3, [r7, #4]
10049482:	6e5b      	ldr	r3, [r3, #100]	@ 0x64
10049484:	2b00      	cmp	r3, #0
10049486:	d108      	bne.n	1004949a <UARTEx_SetNbDataToProcess+0x22>
  {
    huart->NbTxDataToProcess = 1U;
10049488:	687b      	ldr	r3, [r7, #4]
1004948a:	226a      	movs	r2, #106	@ 0x6a
1004948c:	2101      	movs	r1, #1
1004948e:	5299      	strh	r1, [r3, r2]
    huart->NbRxDataToProcess = 1U;
10049490:	687b      	ldr	r3, [r7, #4]
10049492:	2268      	movs	r2, #104	@ 0x68
10049494:	2101      	movs	r1, #1
10049496:	5299      	strh	r1, [r3, r2]
    huart->NbTxDataToProcess = ((uint16_t)tx_fifo_depth * numerator[tx_fifo_threshold]) /
                               (uint16_t)denominator[tx_fifo_threshold];
    huart->NbRxDataToProcess = ((uint16_t)rx_fifo_depth * numerator[rx_fifo_threshold]) /
                               (uint16_t)denominator[rx_fifo_threshold];
  }
}
10049498:	e043      	b.n	10049522 <UARTEx_SetNbDataToProcess+0xaa>
    rx_fifo_depth = RX_FIFO_DEPTH;
1004949a:	260f      	movs	r6, #15
1004949c:	19bb      	adds	r3, r7, r6
1004949e:	2208      	movs	r2, #8
100494a0:	701a      	strb	r2, [r3, #0]
    tx_fifo_depth = TX_FIFO_DEPTH;
100494a2:	200e      	movs	r0, #14
100494a4:	183b      	adds	r3, r7, r0
100494a6:	2208      	movs	r2, #8
100494a8:	701a      	strb	r2, [r3, #0]
    rx_fifo_threshold = (uint8_t)(READ_BIT(huart->Instance->CR3, USART_CR3_RXFTCFG) >> USART_CR3_RXFTCFG_Pos);
100494aa:	687b      	ldr	r3, [r7, #4]
100494ac:	681b      	ldr	r3, [r3, #0]
100494ae:	689b      	ldr	r3, [r3, #8]
100494b0:	0e5b      	lsrs	r3, r3, #25
100494b2:	b2da      	uxtb	r2, r3
100494b4:	240d      	movs	r4, #13
100494b6:	193b      	adds	r3, r7, r4
100494b8:	2107      	movs	r1, #7
100494ba:	400a      	ands	r2, r1
100494bc:	701a      	strb	r2, [r3, #0]
    tx_fifo_threshold = (uint8_t)(READ_BIT(huart->Instance->CR3, USART_CR3_TXFTCFG) >> USART_CR3_TXFTCFG_Pos);
100494be:	687b      	ldr	r3, [r7, #4]
100494c0:	681b      	ldr	r3, [r3, #0]
100494c2:	689b      	ldr	r3, [r3, #8]
100494c4:	0f5b      	lsrs	r3, r3, #29
100494c6:	b2da      	uxtb	r2, r3
100494c8:	250c      	movs	r5, #12
100494ca:	197b      	adds	r3, r7, r5
100494cc:	2107      	movs	r1, #7
100494ce:	400a      	ands	r2, r1
100494d0:	701a      	strb	r2, [r3, #0]
    huart->NbTxDataToProcess = ((uint16_t)tx_fifo_depth * numerator[tx_fifo_threshold]) /
100494d2:	183b      	adds	r3, r7, r0
100494d4:	781b      	ldrb	r3, [r3, #0]
100494d6:	197a      	adds	r2, r7, r5
100494d8:	7812      	ldrb	r2, [r2, #0]
100494da:	4914      	ldr	r1, [pc, #80]	@ (1004952c <UARTEx_SetNbDataToProcess+0xb4>)
100494dc:	5c8a      	ldrb	r2, [r1, r2]
100494de:	435a      	muls	r2, r3
100494e0:	0010      	movs	r0, r2
                               (uint16_t)denominator[tx_fifo_threshold];
100494e2:	197b      	adds	r3, r7, r5
100494e4:	781b      	ldrb	r3, [r3, #0]
100494e6:	4a12      	ldr	r2, [pc, #72]	@ (10049530 <UARTEx_SetNbDataToProcess+0xb8>)
100494e8:	5cd3      	ldrb	r3, [r2, r3]
    huart->NbTxDataToProcess = ((uint16_t)tx_fifo_depth * numerator[tx_fifo_threshold]) /
100494ea:	0019      	movs	r1, r3
100494ec:	f7f6 fe72 	bl	100401d4 <__divsi3>
100494f0:	0003      	movs	r3, r0
100494f2:	b299      	uxth	r1, r3
100494f4:	687b      	ldr	r3, [r7, #4]
100494f6:	226a      	movs	r2, #106	@ 0x6a
100494f8:	5299      	strh	r1, [r3, r2]
    huart->NbRxDataToProcess = ((uint16_t)rx_fifo_depth * numerator[rx_fifo_threshold]) /
100494fa:	19bb      	adds	r3, r7, r6
100494fc:	781b      	ldrb	r3, [r3, #0]
100494fe:	193a      	adds	r2, r7, r4
10049500:	7812      	ldrb	r2, [r2, #0]
10049502:	490a      	ldr	r1, [pc, #40]	@ (1004952c <UARTEx_SetNbDataToProcess+0xb4>)
10049504:	5c8a      	ldrb	r2, [r1, r2]
10049506:	435a      	muls	r2, r3
10049508:	0010      	movs	r0, r2
                               (uint16_t)denominator[rx_fifo_threshold];
1004950a:	193b      	adds	r3, r7, r4
1004950c:	781b      	ldrb	r3, [r3, #0]
1004950e:	4a08      	ldr	r2, [pc, #32]	@ (10049530 <UARTEx_SetNbDataToProcess+0xb8>)
10049510:	5cd3      	ldrb	r3, [r2, r3]
    huart->NbRxDataToProcess = ((uint16_t)rx_fifo_depth * numerator[rx_fifo_threshold]) /
10049512:	0019      	movs	r1, r3
10049514:	f7f6 fe5e 	bl	100401d4 <__divsi3>
10049518:	0003      	movs	r3, r0
1004951a:	b299      	uxth	r1, r3
1004951c:	687b      	ldr	r3, [r7, #4]
1004951e:	2268      	movs	r2, #104	@ 0x68
10049520:	5299      	strh	r1, [r3, r2]
}
10049522:	46c0      	nop			@ (mov r8, r8)
10049524:	46bd      	mov	sp, r7
10049526:	b005      	add	sp, #20
10049528:	bdf0      	pop	{r4, r5, r6, r7, pc}
1004952a:	46c0      	nop			@ (mov r8, r8)
1004952c:	1004980c 	.word	0x1004980c
10049530:	10049814 	.word	0x10049814

10049534 <LL_GetXTALFreq>:
/**
  * @brief  This function returns the HSE XTAL frequency expressed in Hz.
  * @retval HSE XTAL frequency frequency.
  */
uint32_t LL_GetXTALFreq(void)
{
10049534:	b580      	push	{r7, lr}
10049536:	af00      	add	r7, sp, #0
  return HSE_xtalFrequency;
10049538:	4b02      	ldr	r3, [pc, #8]	@ (10049544 <LL_GetXTALFreq+0x10>)
1004953a:	681b      	ldr	r3, [r3, #0]
}
1004953c:	0018      	movs	r0, r3
1004953e:	46bd      	mov	sp, r7
10049540:	bd80      	pop	{r7, pc}
10049542:	46c0      	nop			@ (mov r8, r8)
10049544:	20000204 	.word	0x20000204

10049548 <memset>:
10049548:	0003      	movs	r3, r0
1004954a:	1882      	adds	r2, r0, r2
1004954c:	4293      	cmp	r3, r2
1004954e:	d100      	bne.n	10049552 <memset+0xa>
10049550:	4770      	bx	lr
10049552:	7019      	strb	r1, [r3, #0]
10049554:	3301      	adds	r3, #1
10049556:	e7f9      	b.n	1004954c <memset+0x4>
10049558:	100407b2 	.word	0x100407b2
1004955c:	100406de 	.word	0x100406de
10049560:	100406c8 	.word	0x100406c8
10049564:	10040744 	.word	0x10040744
10049568:	100406c8 	.word	0x100406c8
1004956c:	10040778 	.word	0x10040778
10049570:	100406c8 	.word	0x100406c8
10049574:	10040744 	.word	0x10040744
10049578:	100406de 	.word	0x100406de
1004957c:	100406de 	.word	0x100406de
10049580:	10040778 	.word	0x10040778
10049584:	10040744 	.word	0x10040744
10049588:	100406b4 	.word	0x100406b4
1004958c:	100406b4 	.word	0x100406b4
10049590:	100406b4 	.word	0x100406b4
10049594:	10040782 	.word	0x10040782
10049598:	100406de 	.word	0x100406de
1004959c:	100406de 	.word	0x100406de
100495a0:	100406c8 	.word	0x100406c8
100495a4:	1004081e 	.word	0x1004081e
100495a8:	100406c8 	.word	0x100406c8
100495ac:	10040778 	.word	0x10040778
100495b0:	100406c8 	.word	0x100406c8
100495b4:	1004081e 	.word	0x1004081e
100495b8:	100406de 	.word	0x100406de
100495bc:	100406de 	.word	0x100406de
100495c0:	10040778 	.word	0x10040778
100495c4:	1004081e 	.word	0x1004081e
100495c8:	100406b4 	.word	0x100406b4
100495cc:	100406b4 	.word	0x100406b4
100495d0:	100406b4 	.word	0x100406b4
100495d4:	100412dc 	.word	0x100412dc
100495d8:	10041190 	.word	0x10041190
100495dc:	10041108 	.word	0x10041108
100495e0:	10041132 	.word	0x10041132
100495e4:	10041108 	.word	0x10041108
100495e8:	10041274 	.word	0x10041274
100495ec:	10041108 	.word	0x10041108
100495f0:	10041132 	.word	0x10041132
100495f4:	10041190 	.word	0x10041190
100495f8:	10041190 	.word	0x10041190
100495fc:	10041274 	.word	0x10041274
10049600:	10041132 	.word	0x10041132
10049604:	1004112a 	.word	0x1004112a
10049608:	1004112a 	.word	0x1004112a
1004960c:	1004112a 	.word	0x1004112a
10049610:	10041296 	.word	0x10041296

10049614 <ADC_CHANNEL_SWITCH_POS_LUT>:
10049614:	06040200 0e0c0a08 06040200 100448e8     .............H..
10049624:	100448e8 100448e8 100448e8 100448fc     .H...H...H...H..
10049634:	100448fc 100448fc 100448fc 10044910     .H...H...H...I..
10049644:	10044910 10044910 10044910 10044924     .I...I...I..$I..
10049654:	10044936                                6I..

10049658 <s_Channel_Filter_Bandwidth>:
10049658:	00186a00 00170a70 0015b2b0 00145320     .j..p....... S..
10049668:	0012fb60 00119bd0 00104410 000ee480     `........D......
10049678:	000d8cc0 000c3500 000b8538 000ad958     .....5..8...X...
10049688:	000a2990 00097db0 0008cde8 00082208     .)...}......."..
10049698:	00077240 0006c660 00061a80 0005c0a8     @r..`...........
100496a8:	00056ab8 000514c8 0004bed8 00046500     .j...........e..
100496b8:	00040f10 0003b920 00036330 00030d40     .... ...0c..@...
100496c8:	0002de60 0002b750 00028870 00025d78     `...P...p...x]..
100496d8:	00023280 00020788 0001dc90 0001b198     .2..............
100496e8:	000186a0 000170c0 00015b44 00014564     .....p..D[..dE..
100496f8:	00012fe8 00011a08 0001048c 0000eeac     ./..............
10049708:	0000d930 0000c350 0000b860 0000ad70     0...P...`...p...
10049718:	0000a280 000097f4 00008d04 00008214     ................
10049728:	00007724 00006c98 000061a8 00005c30     $w...l...a..0\..
10049738:	000056b8 00005140 00004bc8 000046b4     .V..@Q...K...F..
10049748:	000040d8 00003bc4 0000364c 000030d4     .@...;..L6...0..
10049758:	00002e18 00002b5c 000028a0 000025e4     ....\+...(...%..
10049768:	00002328 0000206c 00001db0 00001af4     (#..l ..........
10049778:	000017ed 00001716 000015ae 00001450     ............P...
10049788:	00001306 00001194 00001004 00000ed8     ................
10049798:	00000dac 00000c35 00000b7c 00000adc     ....5...|.......
100497a8:	00000a28 00000960 00000898 00000834     (...`.......4...
100497b8:	0000076c 000006a4 00000000 00000000     l...............
	...

100497e4 <SFD_2FSK>:
100497e4:	904e0000 6f4e0000                       ..N...No

100497ec <SFD_4FSK>:
100497ec:	d75575fd 7dff75fd                       .uU..u.}

100497f4 <UARTPrescTable>:
100497f4:	00020001 00060004 000a0008 0010000c     ................
10049804:	00400020 01000080                        .@.....

1004980c <numerator.1>:
1004980c:	03010101 00000107                       ........

10049814 <denominator.0>:
10049814:	04020408 01010108                       ........

Disassembly of section .init:

1004981c <_init>:
1004981c:	b5f8      	push	{r3, r4, r5, r6, r7, lr}
1004981e:	46c0      	nop			@ (mov r8, r8)

Disassembly of section .fini:

10049820 <_fini>:
10049820:	b5f8      	push	{r3, r4, r5, r6, r7, lr}
10049822:	46c0      	nop			@ (mov r8, r8)
